Archive member included because of file (symbol)

/opt/Espressif/esp-open-sdk/sdk/lib/libmain.a(debug-vector.o)
                              (_DebugExceptionVector)
/opt/Espressif/esp-open-sdk/sdk/lib/libmain.a(double-vector.o)
                              (_DoubleExceptionVector)
/opt/Espressif/esp-open-sdk/sdk/lib/libmain.a(kernel-vector.o)
                              (_KernelExceptionVector)
/opt/Espressif/esp-open-sdk/sdk/lib/libmain.a(nmi-vector.o)
                              (_NMIExceptionVector)
/opt/Espressif/esp-open-sdk/sdk/lib/libmain.a(user-vector.o)
                              (_UserExceptionVector)
/opt/Espressif/esp-open-sdk/sdk/lib/libmain.a(vector.o)
                              (call_user_start)
/opt/Espressif/esp-open-sdk/sdk/lib/libmain.a(app_main.o)
                              /opt/Espressif/esp-open-sdk/sdk/lib/libmain.a(nmi-vector.o) (NMI_Handler)
/opt/Espressif/esp-open-sdk/sdk/lib/libmain.a(ets_timer.o)
                              /opt/Espressif/esp-open-sdk/sdk/lib/libmain.a(app_main.o) (ets_timer_setfn)
/opt/Espressif/esp-open-sdk/sdk/lib/libmain.a(mem_manager.o)
                              /opt/Espressif/esp-open-sdk/sdk/lib/libmain.a(app_main.o) (pvPortMalloc)
/opt/Espressif/esp-open-sdk/sdk/lib/libmain.a(spi_flash.o)
                              /opt/Espressif/esp-open-sdk/sdk/lib/libmain.a(app_main.o) (spi_flash_read)
/opt/Espressif/esp-open-sdk/sdk/lib/libmain.a(user_interface.o)
                              /opt/Espressif/esp-open-sdk/sdk/lib/libmain.a(app_main.o) (done_cb)
/opt/Espressif/esp-open-sdk/sdk/lib/libmain.a(empty_user_rf_pre_init.o)
                              /opt/Espressif/esp-open-sdk/sdk/lib/libmain.a(app_main.o) (user_rf_pre_init)
/opt/Espressif/esp-open-sdk/sdk/lib/libmain.a(eagle_lib.o)
                              /opt/Espressif/esp-open-sdk/sdk/lib/libmain.a(user_interface.o) (ets_sprintf)
/opt/Espressif/esp-open-sdk/sdk/lib/libmain.a(eagle_lwip_if.o)
                              /opt/Espressif/esp-open-sdk/sdk/lib/libmain.a(user_interface.o) (hostname)
build/app_app.a(user_main.o)  /opt/Espressif/esp-open-sdk/sdk/lib/libmain.a(app_main.o) (user_init)
build/app_app.a(debug.o)      build/app_app.a(user_main.o) (uart0_printf)
build/app_app.a(pr.o)         build/app_app.a(user_main.o) (tft_printf)
build/app_app.a(printf.o)     build/app_app.a(debug.o) (t_vsnprintf)
build/app_app.a(time.o)       build/app_app.a(user_main.o) (ctime)
build/app_app.a(timer_hal.o)  build/app_app.a(time.o) (clock_gettime)
build/app_app.a(hspi.o)       build/app_app.a(user_main.o) (hspi_init)
build/app_app.a(uart.o)       build/app_app.a(debug.o) (uart_putc)
build/app_app.a(util.o)       build/app_app.a(uart.o) (reset)
build/app_app.a(cal_dex.o)    /opt/Espressif/esp-open-sdk/sdk/lib/libmain.a(app_main.o) (__wrap__xtos_set_exception_handler)
build/app_app.a(ili9341.o)    build/app_app.a(user_main.o) (tft_fillWin)
build/app_app.a(network.o)    build/app_app.a(user_main.o) (ip_msg)
build/app_app.a(wire.o)       build/app_app.a(user_main.o) (wire_draw)
build/app_app.a(timer.o)      build/app_app.a(timer_hal.o) (set_timers)
build/app_app.a(queue.o)      build/app_app.a(uart.o) (queue_new)
build/app_app.a(ili9341_adafruit.o)
                              build/app_app.a(ili9341.o) (tft_configRegister)
build/app_app.a(font.o)       build/app_app.a(ili9341.o) (font_attr)
build/app_app.a(cordic.o)     build/app_app.a(wire.o) (rotate)
/opt/Espressif/esp-open-sdk/xtensa-lx106-elf/lib/gcc/xtensa-lx106-elf/4.8.2/libgcc.a(_divsi3.o)
                              build/app_app.a(user_main.o) (__divsi3)
/opt/Espressif/esp-open-sdk/xtensa-lx106-elf/lib/gcc/xtensa-lx106-elf/4.8.2/libgcc.a(_modsi3.o)
                              build/app_app.a(printf.o) (__modsi3)
/opt/Espressif/esp-open-sdk/xtensa-lx106-elf/lib/gcc/xtensa-lx106-elf/4.8.2/libgcc.a(_udivsi3.o)
                              /opt/Espressif/esp-open-sdk/sdk/lib/libmain.a(app_main.o) (__udivsi3)
/opt/Espressif/esp-open-sdk/xtensa-lx106-elf/lib/gcc/xtensa-lx106-elf/4.8.2/libgcc.a(_umodsi3.o)
                              /opt/Espressif/esp-open-sdk/sdk/lib/libmain.a(eagle_lib.o) (__umodsi3)
/opt/Espressif/esp-open-sdk/xtensa-lx106-elf/lib/gcc/xtensa-lx106-elf/4.8.2/libgcc.a(_addsubdf3.o)
                              build/app_app.a(user_main.o) (__adddf3)
/opt/Espressif/esp-open-sdk/xtensa-lx106-elf/lib/gcc/xtensa-lx106-elf/4.8.2/libgcc.a(_muldf3.o)
                              build/app_app.a(user_main.o) (__muldf3)
/opt/Espressif/esp-open-sdk/xtensa-lx106-elf/lib/gcc/xtensa-lx106-elf/4.8.2/libgcc.a(_divdf3.o)
                              build/app_app.a(user_main.o) (__divdf3)
/opt/Espressif/esp-open-sdk/xtensa-lx106-elf/lib/gcc/xtensa-lx106-elf/4.8.2/libgcc.a(_cmpdf2.o)
                              build/app_app.a(printf.o) (__eqdf2)
/opt/Espressif/esp-open-sdk/xtensa-lx106-elf/lib/gcc/xtensa-lx106-elf/4.8.2/libgcc.a(_fixdfsi.o)
                              build/app_app.a(printf.o) (__fixdfsi)
/opt/Espressif/esp-open-sdk/xtensa-lx106-elf/lib/gcc/xtensa-lx106-elf/4.8.2/libgcc.a(_floatsidf.o)
                              build/app_app.a(user_main.o) (__floatunsidf)
/opt/Espressif/esp-open-sdk/xtensa-lx106-elf/lib/gcc/xtensa-lx106-elf/4.8.2/libgcc.a(_truncdfsf2.o)
                              build/app_app.a(user_main.o) (__truncdfsf2)
/opt/Espressif/esp-open-sdk/xtensa-lx106-elf/lib/gcc/xtensa-lx106-elf/4.8.2/libgcc.a(_extendsfdf2.o)
                              build/app_app.a(user_main.o) (__extendsfdf2)
/opt/Espressif/esp-open-sdk/xtensa-lx106-elf/lib/gcc/xtensa-lx106-elf/4.8.2/libgcc.a(_muldi3.o)
                              /opt/Espressif/esp-open-sdk/sdk/lib/libmain.a(user_interface.o) (__muldi3)
/opt/Espressif/esp-open-sdk/xtensa-lx106-elf/lib/gcc/xtensa-lx106-elf/4.8.2/libgcc.a(_umulsidi3.o)
                              /opt/Espressif/esp-open-sdk/xtensa-lx106-elf/lib/gcc/xtensa-lx106-elf/4.8.2/libgcc.a(_muldi3.o) (__umulsidi3)
/opt/Espressif/esp-open-sdk/xtensa-lx106-elf/xtensa-lx106-elf/sysroot/usr/lib/libhal.a(int_asm--set_intclear.o)
                              /opt/Espressif/esp-open-sdk/sdk/lib/libmain.a(app_main.o) (xthal_set_intclear)
/opt/Espressif/esp-open-sdk/sdk/lib/libphy.a(phy.o)
                              /opt/Espressif/esp-open-sdk/sdk/lib/libmain.a(app_main.o) (phy_enable_agc)
/opt/Espressif/esp-open-sdk/sdk/lib/libphy.a(phy_chip_v6_ana.o)
                              /opt/Espressif/esp-open-sdk/sdk/lib/libmain.a(user_interface.o) (test_tout)
/opt/Espressif/esp-open-sdk/sdk/lib/libphy.a(phy_chip_v6.o)
                              /opt/Espressif/esp-open-sdk/sdk/lib/libphy.a(phy_chip_v6_ana.o) (g_phyFuns)
/opt/Espressif/esp-open-sdk/sdk/lib/libphy.a(phy_chip_v6_cal.o)
                              /opt/Espressif/esp-open-sdk/sdk/lib/libphy.a(phy_chip_v6.o) (loop_pwctrl_pwdet_error_accum_high_power)
/opt/Espressif/esp-open-sdk/sdk/lib/libphy.a(phy_chip_v6_unused.o)
                              /opt/Espressif/esp-open-sdk/sdk/lib/libphy.a(phy_chip_v6.o) (chip_v6_set_sense)
/opt/Espressif/esp-open-sdk/sdk/lib/libphy.a(phy_sleep.o)
                              /opt/Espressif/esp-open-sdk/sdk/lib/libphy.a(phy_chip_v6.o) (pm_set_sleep_cycles)
/opt/Espressif/esp-open-sdk/sdk/lib/libpp.a(if_hwctrl.o)
                              /opt/Espressif/esp-open-sdk/sdk/lib/libmain.a(user_interface.o) (ic_set_vif)
/opt/Espressif/esp-open-sdk/sdk/lib/libpp.a(lmac.o)
                              /opt/Espressif/esp-open-sdk/sdk/lib/libmain.a(app_main.o) (lmacInit)
/opt/Espressif/esp-open-sdk/sdk/lib/libpp.a(pm.o)
                              /opt/Espressif/esp-open-sdk/sdk/lib/libmain.a(user_interface.o) (pm_rtc_clock_cali_proc)
/opt/Espressif/esp-open-sdk/sdk/lib/libpp.a(pm_for_bcn_only_mode.o)
                              /opt/Espressif/esp-open-sdk/sdk/lib/libpp.a(pm.o) (fpm_is_open)
/opt/Espressif/esp-open-sdk/sdk/lib/libpp.a(pp.o)
                              /opt/Espressif/esp-open-sdk/sdk/lib/libpp.a(pm.o) (pend_flag_noise_check)
/opt/Espressif/esp-open-sdk/sdk/lib/libpp.a(rate_control.o)
                              /opt/Espressif/esp-open-sdk/sdk/lib/libpp.a(lmac.o) (RC_SetBasicRate)
/opt/Espressif/esp-open-sdk/sdk/lib/libpp.a(trc.o)
                              /opt/Espressif/esp-open-sdk/sdk/lib/libpp.a(if_hwctrl.o) (rcUpdatePhyMode)
/opt/Espressif/esp-open-sdk/sdk/lib/libpp.a(wdev.o)
                              /opt/Espressif/esp-open-sdk/sdk/lib/libpp.a(pp.o) (wDevCtrl)
/opt/Espressif/esp-open-sdk/sdk/lib/libpp.a(esf_buf.o)
                              /opt/Espressif/esp-open-sdk/sdk/lib/libpp.a(wdev.o) (esf_rx_buf_alloc)
/opt/Espressif/esp-open-sdk/sdk/lib/libnet80211.a(ieee80211.o)
                              /opt/Espressif/esp-open-sdk/sdk/lib/libmain.a(app_main.o) (g_ic)
/opt/Espressif/esp-open-sdk/sdk/lib/libnet80211.a(ieee80211_crypto.o)
                              /opt/Espressif/esp-open-sdk/sdk/lib/libnet80211.a(ieee80211.o) (ieee80211_crypto_attach)
/opt/Espressif/esp-open-sdk/sdk/lib/libnet80211.a(ieee80211_ets.o)
                              /opt/Espressif/esp-open-sdk/sdk/lib/libpp.a(pm.o) (ieee80211_getmgtframe)
/opt/Espressif/esp-open-sdk/sdk/lib/libnet80211.a(ieee80211_hostap.o)
                              /opt/Espressif/esp-open-sdk/sdk/lib/libmain.a(user_interface.o) (BcnEb_update)
/opt/Espressif/esp-open-sdk/sdk/lib/libnet80211.a(ieee80211_ht.o)
                              /opt/Espressif/esp-open-sdk/sdk/lib/libmain.a(user_interface.o) (ieee80211_ht_attach)
/opt/Espressif/esp-open-sdk/sdk/lib/libnet80211.a(ieee80211_input.o)
                              /opt/Espressif/esp-open-sdk/sdk/lib/libnet80211.a(ieee80211_hostap.o) (ieee80211_decap)
/opt/Espressif/esp-open-sdk/sdk/lib/libnet80211.a(ieee80211_output.o)
                              /opt/Espressif/esp-open-sdk/sdk/lib/libmain.a(eagle_lwip_if.o) (ieee80211_output_pbuf)
/opt/Espressif/esp-open-sdk/sdk/lib/libnet80211.a(ieee80211_phy.o)
                              /opt/Espressif/esp-open-sdk/sdk/lib/libnet80211.a(ieee80211.o) (ieee80211_get_ratetable)
/opt/Espressif/esp-open-sdk/sdk/lib/libnet80211.a(ieee80211_power.o)
                              /opt/Espressif/esp-open-sdk/sdk/lib/libnet80211.a(ieee80211_hostap.o) (ieee80211_psq_init)
/opt/Espressif/esp-open-sdk/sdk/lib/libnet80211.a(ieee80211_proto.o)
                              /opt/Espressif/esp-open-sdk/sdk/lib/libpp.a(wdev.o) (ieee80211_addr_bcast)
/opt/Espressif/esp-open-sdk/sdk/lib/libnet80211.a(ieee80211_scan.o)
                              /opt/Espressif/esp-open-sdk/sdk/lib/libpp.a(pp.o) (gScanStruct)
/opt/Espressif/esp-open-sdk/sdk/lib/libnet80211.a(ieee80211_sta.o)
                              /opt/Espressif/esp-open-sdk/sdk/lib/libmain.a(user_interface.o) (ieee80211_sta_new_state)
/opt/Espressif/esp-open-sdk/sdk/lib/libnet80211.a(wl_chm.o)
                              /opt/Espressif/esp-open-sdk/sdk/lib/libnet80211.a(ieee80211.o) (chm_init)
/opt/Espressif/esp-open-sdk/sdk/lib/libnet80211.a(wl_cnx.o)
                              /opt/Espressif/esp-open-sdk/sdk/lib/libmain.a(user_interface.o) (sta_con_timer)
/opt/Espressif/esp-open-sdk/sdk/lib/libnet80211.a(ieee80211_action.o)
                              /opt/Espressif/esp-open-sdk/sdk/lib/libnet80211.a(ieee80211_ht.o) (ieee80211_send_action_register)
/opt/Espressif/esp-open-sdk/sdk/lib/libnet80211.a(ieee80211_action_vendor.o)
                              /opt/Espressif/esp-open-sdk/sdk/lib/libnet80211.a(ieee80211.o) (ieee80211_action_vendor_spec_attach)
/opt/Espressif/esp-open-sdk/sdk/lib/libnet80211.a(ieee80211_crypto_ccmp.o)
                              /opt/Espressif/esp-open-sdk/sdk/lib/libnet80211.a(ieee80211_input.o) (ccmp)
/opt/Espressif/esp-open-sdk/sdk/lib/libnet80211.a(ieee80211_ie_vendor.o)
                              /opt/Espressif/esp-open-sdk/sdk/lib/libnet80211.a(ieee80211_action_vendor.o) (ieee80211_add_ie_vendor_esp_now)
/opt/Espressif/esp-open-sdk/sdk/lib/liblwip.a(dhcp.o)
                              /opt/Espressif/esp-open-sdk/sdk/lib/libnet80211.a(wl_cnx.o) (dhcp_release)
/opt/Espressif/esp-open-sdk/sdk/lib/liblwip.a(dhcpserver.o)
                              /opt/Espressif/esp-open-sdk/sdk/lib/libmain.a(user_interface.o) (dhcps_start)
/opt/Espressif/esp-open-sdk/sdk/lib/liblwip.a(dns.o)
                              /opt/Espressif/esp-open-sdk/sdk/lib/liblwip.a(dhcp.o) (dns_setserver)
/opt/Espressif/esp-open-sdk/sdk/lib/liblwip.a(espconn_tcp.o)
                              /opt/Espressif/esp-open-sdk/sdk/lib/libmain.a(app_main.o) (espconn_init)
/opt/Espressif/esp-open-sdk/sdk/lib/liblwip.a(etharp.o)
                              /opt/Espressif/esp-open-sdk/sdk/lib/libmain.a(eagle_lwip_if.o) (etharp_output)
/opt/Espressif/esp-open-sdk/sdk/lib/liblwip.a(init.o)
                              /opt/Espressif/esp-open-sdk/sdk/lib/libmain.a(app_main.o) (lwip_init)
/opt/Espressif/esp-open-sdk/sdk/lib/liblwip.a(ip_addr.o)
                              /opt/Espressif/esp-open-sdk/sdk/lib/liblwip.a(dhcp.o) (ip_addr_any)
/opt/Espressif/esp-open-sdk/sdk/lib/liblwip.a(ip.o)
                              /opt/Espressif/esp-open-sdk/sdk/lib/liblwip.a(etharp.o) (ip_input)
/opt/Espressif/esp-open-sdk/sdk/lib/liblwip.a(memp.o)
                              /opt/Espressif/esp-open-sdk/sdk/lib/liblwip.a(etharp.o) (memp_sizes)
/opt/Espressif/esp-open-sdk/sdk/lib/liblwip.a(netif.o)
                              /opt/Espressif/esp-open-sdk/sdk/lib/liblwip.a(dhcp.o) (netif_list)
/opt/Espressif/esp-open-sdk/sdk/lib/liblwip.a(pbuf.o)
                              /opt/Espressif/esp-open-sdk/sdk/lib/libnet80211.a(ieee80211_hostap.o) (pbuf_alloc)
/opt/Espressif/esp-open-sdk/sdk/lib/liblwip.a(raw.o)
                              /opt/Espressif/esp-open-sdk/sdk/lib/liblwip.a(ip.o) (raw_input)
/opt/Espressif/esp-open-sdk/sdk/lib/liblwip.a(sntp.o)
                              build/app_app.a(user_main.o) (sntp_get_current_timestamp)
/opt/Espressif/esp-open-sdk/sdk/lib/liblwip.a(tcp_in.o)
                              /opt/Espressif/esp-open-sdk/sdk/lib/liblwip.a(ip.o) (tcp_input)
/opt/Espressif/esp-open-sdk/sdk/lib/liblwip.a(tcp.o)
                              /opt/Espressif/esp-open-sdk/sdk/lib/liblwip.a(espconn_tcp.o) (tcp_active_pcbs)
/opt/Espressif/esp-open-sdk/sdk/lib/liblwip.a(tcp_out.o)
                              /opt/Espressif/esp-open-sdk/sdk/lib/liblwip.a(tcp.o) (tcp_send_fin)
/opt/Espressif/esp-open-sdk/sdk/lib/liblwip.a(timers.o)
                              /opt/Espressif/esp-open-sdk/sdk/lib/liblwip.a(sntp.o) (sys_timeout)
/opt/Espressif/esp-open-sdk/sdk/lib/liblwip.a(udp.o)
                              /opt/Espressif/esp-open-sdk/sdk/lib/liblwip.a(ip.o) (udp_input)
/opt/Espressif/esp-open-sdk/sdk/lib/liblwip.a(espconn.o)
                              /opt/Espressif/esp-open-sdk/sdk/lib/liblwip.a(espconn_tcp.o) (plink_active)
/opt/Espressif/esp-open-sdk/sdk/lib/liblwip.a(espconn_udp.o)
                              /opt/Espressif/esp-open-sdk/sdk/lib/liblwip.a(espconn.o) (espconn_udp_sent)
/opt/Espressif/esp-open-sdk/sdk/lib/liblwip.a(icmp.o)
                              /opt/Espressif/esp-open-sdk/sdk/lib/liblwip.a(ip.o) (icmp_input)
/opt/Espressif/esp-open-sdk/sdk/lib/liblwip.a(igmp.o)
                              /opt/Espressif/esp-open-sdk/sdk/lib/liblwip.a(init.o) (igmp_init)
/opt/Espressif/esp-open-sdk/sdk/lib/liblwip.a(inet_chksum.o)
                              /opt/Espressif/esp-open-sdk/sdk/lib/liblwip.a(tcp_in.o) (inet_chksum_pseudo)
/opt/Espressif/esp-open-sdk/sdk/lib/liblwip.a(mdns.o)
                              /opt/Espressif/esp-open-sdk/sdk/lib/liblwip.a(espconn_udp.o) (mdns_close)
/opt/Espressif/esp-open-sdk/sdk/lib/libwpa.a(ap_config.o)
                              /opt/Espressif/esp-open-sdk/sdk/lib/libnet80211.a(ieee80211_hostap.o) (hostapd_setup_wpa_psk)
/opt/Espressif/esp-open-sdk/sdk/lib/libwpa.a(common.o)
                              /opt/Espressif/esp-open-sdk/sdk/lib/libmain.a(user_interface.o) (hexstr2bin)
/opt/Espressif/esp-open-sdk/sdk/lib/libwpa.a(os_xtensa.o)
                              /opt/Espressif/esp-open-sdk/sdk/lib/libwpa.a(common.o) (os_get_time)
/opt/Espressif/esp-open-sdk/sdk/lib/libwpa.a(wpa_auth.o)
                              /opt/Espressif/esp-open-sdk/sdk/lib/libnet80211.a(ieee80211_hostap.o) (wpa_init)
/opt/Espressif/esp-open-sdk/sdk/lib/libwpa.a(wpa_auth_ie.o)
                              /opt/Espressif/esp-open-sdk/sdk/lib/libwpa.a(wpa_auth.o) (wpa_auth_gen_wpa_ie)
/opt/Espressif/esp-open-sdk/sdk/lib/libwpa.a(wpa.o)
                              /opt/Espressif/esp-open-sdk/sdk/lib/libnet80211.a(ieee80211_sta.o) (wpa_sm_rx_eapol)
/opt/Espressif/esp-open-sdk/sdk/lib/libwpa.a(wpa_common.o)
                              /opt/Espressif/esp-open-sdk/sdk/lib/libwpa.a(wpa_auth_ie.o) (wpa_parse_wpa_ie_rsn)
/opt/Espressif/esp-open-sdk/sdk/lib/libwpa.a(wpa_debug.o)
                              /opt/Espressif/esp-open-sdk/sdk/lib/libwpa.a(wpa_auth.o) (eloop_cancel_timeout)
/opt/Espressif/esp-open-sdk/sdk/lib/libwpa.a(wpa_ie.o)
                              /opt/Espressif/esp-open-sdk/sdk/lib/libnet80211.a(ieee80211_scan.o) (wpa_parse_wpa_ie)
/opt/Espressif/esp-open-sdk/sdk/lib/libwpa.a(wpa_main.o)
                              /opt/Espressif/esp-open-sdk/sdk/lib/libnet80211.a(wl_cnx.o) (ppInstallKey)
/opt/Espressif/esp-open-sdk/sdk/lib/libwpa.a(wpas_glue.o)
                              /opt/Espressif/esp-open-sdk/sdk/lib/libwpa.a(wpa.o) (wpa_sm_alloc_eapol)
/opt/Espressif/esp-open-sdk/sdk/lib/libwpa.a(aes-wrap.o)
                              /opt/Espressif/esp-open-sdk/sdk/lib/libwpa.a(wpa_auth.o) (aes_wrap)
/opt/Espressif/esp-open-sdk/sdk/lib/libwpa.a(aes-internal-enc.o)
                              /opt/Espressif/esp-open-sdk/sdk/lib/libwpa.a(aes-wrap.o) (aes_encrypt_init)
/opt/Espressif/esp-open-sdk/xtensa-lx106-elf/lib/gcc/xtensa-lx106-elf/4.8.2/../../../../xtensa-lx106-elf/lib/libm.a(lib_a-s_floor.o)
                              build/app_app.a(printf.o) (floor)
/opt/Espressif/esp-open-sdk/xtensa-lx106-elf/lib/gcc/xtensa-lx106-elf/4.8.2/../../../../xtensa-lx106-elf/lib/libm.a(lib_a-s_frexp.o)
                              build/app_app.a(printf.o) (frexp)
/opt/Espressif/esp-open-sdk/xtensa-lx106-elf/lib/gcc/xtensa-lx106-elf/4.8.2/../../../../xtensa-lx106-elf/lib/libm.a(lib_a-s_modf.o)
                              build/app_app.a(printf.o) (modf)
/opt/Espressif/esp-open-sdk/xtensa-lx106-elf/lib/gcc/xtensa-lx106-elf/4.8.2/libgcc.a(_ashrdi3.o)
                              /opt/Espressif/esp-open-sdk/sdk/lib/libphy.a(phy_chip_v6.o) (__ashrdi3)
/opt/Espressif/esp-open-sdk/xtensa-lx106-elf/lib/gcc/xtensa-lx106-elf/4.8.2/libgcc.a(_addsubsf3.o)
                              /opt/Espressif/esp-open-sdk/sdk/lib/libphy.a(phy_chip_v6_ana.o) (__addsf3)
/opt/Espressif/esp-open-sdk/xtensa-lx106-elf/lib/gcc/xtensa-lx106-elf/4.8.2/libgcc.a(_mulsf3.o)
                              /opt/Espressif/esp-open-sdk/sdk/lib/libphy.a(phy_chip_v6_ana.o) (__mulsf3)
/opt/Espressif/esp-open-sdk/xtensa-lx106-elf/lib/gcc/xtensa-lx106-elf/4.8.2/libgcc.a(_divsf3.o)
                              /opt/Espressif/esp-open-sdk/sdk/lib/libphy.a(phy_chip_v6_ana.o) (__divsf3)
/opt/Espressif/esp-open-sdk/xtensa-lx106-elf/lib/gcc/xtensa-lx106-elf/4.8.2/libgcc.a(_fixsfsi.o)
                              /opt/Espressif/esp-open-sdk/sdk/lib/libphy.a(phy_chip_v6.o) (__fixsfsi)
/opt/Espressif/esp-open-sdk/xtensa-lx106-elf/lib/gcc/xtensa-lx106-elf/4.8.2/libgcc.a(_fixunssfsi.o)
                              /opt/Espressif/esp-open-sdk/sdk/lib/libphy.a(phy_chip_v6_ana.o) (__fixunssfsi)
/opt/Espressif/esp-open-sdk/xtensa-lx106-elf/lib/gcc/xtensa-lx106-elf/4.8.2/libgcc.a(_floatsisf.o)
                              /opt/Espressif/esp-open-sdk/sdk/lib/libphy.a(phy_chip_v6.o) (__floatunsisf)
/opt/Espressif/esp-open-sdk/xtensa-lx106-elf/lib/gcc/xtensa-lx106-elf/4.8.2/libgcc.a(_popcountsi2.o)
                              /opt/Espressif/esp-open-sdk/sdk/lib/libpp.a(if_hwctrl.o) (__popcountsi2)
/opt/Espressif/esp-open-sdk/xtensa-lx106-elf/lib/gcc/xtensa-lx106-elf/4.8.2/libgcc.a(_divdi3.o)
                              /opt/Espressif/esp-open-sdk/sdk/lib/libphy.a(phy_chip_v6_cal.o) (__divdi3)
/opt/Espressif/esp-open-sdk/xtensa-lx106-elf/lib/gcc/xtensa-lx106-elf/4.8.2/libgcc.a(_umoddi3.o)
                              /opt/Espressif/esp-open-sdk/sdk/lib/libpp.a(pm.o) (__umoddi3)
/opt/Espressif/esp-open-sdk/xtensa-lx106-elf/lib/gcc/xtensa-lx106-elf/4.8.2/libgcc.a(_popcount_tab.o)
                              /opt/Espressif/esp-open-sdk/xtensa-lx106-elf/lib/gcc/xtensa-lx106-elf/4.8.2/libgcc.a(_popcountsi2.o) (__popcount_tab)
/opt/Espressif/esp-open-sdk/sdk/lib/libnet80211.a(ieee80211_crypto_tkip.o)
                              /opt/Espressif/esp-open-sdk/sdk/lib/libwpa.a(wpa_auth.o) (tkip)
/opt/Espressif/esp-open-sdk/sdk/lib/libnet80211.a(ieee80211_crypto_wep.o)
                              /opt/Espressif/esp-open-sdk/sdk/lib/libwpa.a(wpa_auth.o) (wep)

Allocating common symbols
Common symbol       size              file

uart0_gets_line     0x4               build/app_app.a(uart.o)
__clock             0x8               build/app_app.a(timer_hal.o)
xpos                0x2               build/app_app.a(user_main.o)
NormalTaskQueue     0x40              build/app_app.a(user_main.o)
Y                   0x4               build/app_app.a(cordic.o)
_wintest            0x16              build/app_app.a(user_main.o)
tftwin              0x16              build/app_app.a(ili9341.o)
ip_xpos             0x2               build/app_app.a(user_main.o)
tft_ID              0x2               build/app_app.a(ili9341.o)
uart0_gets_receive_queue
                    0x4               build/app_app.a(uart.o)
IdleTaskQueue       0x8               build/app_app.a(user_main.o)
_windemo            0x16              build/app_app.a(user_main.o)
_winstats           0x16              build/app_app.a(user_main.o)
timer_irq           0x40              build/app_app.a(timer_hal.o)
HighTaskQueue       0x8               build/app_app.a(user_main.o)
ip_ypos             0x2               build/app_app.a(user_main.o)
ip_msg              0x40              build/app_app.a(network.o)
__tzone             0x8               build/app_app.a(time.o)
_wintestdemo        0x16              build/app_app.a(user_main.o)
Z                   0x4               build/app_app.a(cordic.o)
_data               0x4               build/app_app.a(util.o)
ypos                0x2               build/app_app.a(user_main.o)
UserTaskQueue       0x20              build/app_app.a(user_main.o)
master              0x4               build/app_app.a(user_main.o)
X                   0x4               build/app_app.a(cordic.o)

Discarded input sections

 .text          0x0000000000000000        0x0 /opt/Espressif/esp-open-sdk/sdk/lib/libmain.a(debug-vector.o)
 .data          0x0000000000000000        0x0 /opt/Espressif/esp-open-sdk/sdk/lib/libmain.a(debug-vector.o)
 .bss           0x0000000000000000        0x0 /opt/Espressif/esp-open-sdk/sdk/lib/libmain.a(debug-vector.o)
 .xt.prop       0x0000000000000000       0x18 /opt/Espressif/esp-open-sdk/sdk/lib/libmain.a(debug-vector.o)
 .text          0x0000000000000000        0x0 /opt/Espressif/esp-open-sdk/sdk/lib/libmain.a(double-vector.o)
 .data          0x0000000000000000        0x0 /opt/Espressif/esp-open-sdk/sdk/lib/libmain.a(double-vector.o)
 .bss           0x0000000000000000        0x0 /opt/Espressif/esp-open-sdk/sdk/lib/libmain.a(double-vector.o)
 .xt.prop       0x0000000000000000       0x18 /opt/Espressif/esp-open-sdk/sdk/lib/libmain.a(double-vector.o)
 .text          0x0000000000000000        0x0 /opt/Espressif/esp-open-sdk/sdk/lib/libmain.a(kernel-vector.o)
 .data          0x0000000000000000        0x0 /opt/Espressif/esp-open-sdk/sdk/lib/libmain.a(kernel-vector.o)
 .bss           0x0000000000000000        0x0 /opt/Espressif/esp-open-sdk/sdk/lib/libmain.a(kernel-vector.o)
 .xt.prop       0x0000000000000000       0x18 /opt/Espressif/esp-open-sdk/sdk/lib/libmain.a(kernel-vector.o)
 .literal       0x0000000000000000        0x0 /opt/Espressif/esp-open-sdk/sdk/lib/libmain.a(nmi-vector.o)
 .NMIExceptionVector.literal
                0x0000000000000000        0x0 /opt/Espressif/esp-open-sdk/sdk/lib/libmain.a(nmi-vector.o)
 .xt.lit        0x0000000000000000       0x10 /opt/Espressif/esp-open-sdk/sdk/lib/libmain.a(nmi-vector.o)
 .xt.prop       0x0000000000000000       0x3c /opt/Espressif/esp-open-sdk/sdk/lib/libmain.a(nmi-vector.o)
 .literal       0x0000000000000000        0x0 /opt/Espressif/esp-open-sdk/sdk/lib/libmain.a(user-vector.o)
 .UserExceptionVector.literal
                0x0000000000000000        0x0 /opt/Espressif/esp-open-sdk/sdk/lib/libmain.a(user-vector.o)
 .data          0x0000000000000000        0x0 /opt/Espressif/esp-open-sdk/sdk/lib/libmain.a(user-vector.o)
 .bss           0x0000000000000000        0x0 /opt/Espressif/esp-open-sdk/sdk/lib/libmain.a(user-vector.o)
 .xt.lit        0x0000000000000000       0x10 /opt/Espressif/esp-open-sdk/sdk/lib/libmain.a(user-vector.o)
 .xt.prop       0x0000000000000000       0x3c /opt/Espressif/esp-open-sdk/sdk/lib/libmain.a(user-vector.o)
 .UserEnter.literal
                0x0000000000000000        0x0 /opt/Espressif/esp-open-sdk/sdk/lib/libmain.a(vector.o)
 .text          0x0000000000000000        0x0 /opt/Espressif/esp-open-sdk/sdk/lib/libmain.a(vector.o)
 .data          0x0000000000000000        0x0 /opt/Espressif/esp-open-sdk/sdk/lib/libmain.a(vector.o)
 .bss           0x0000000000000000        0x0 /opt/Espressif/esp-open-sdk/sdk/lib/libmain.a(vector.o)
 .xt.lit        0x0000000000000000        0x8 /opt/Espressif/esp-open-sdk/sdk/lib/libmain.a(vector.o)
 .xt.prop       0x0000000000000000       0x18 /opt/Espressif/esp-open-sdk/sdk/lib/libmain.a(vector.o)
 .literal       0x0000000000000000        0x0 /opt/Espressif/esp-open-sdk/sdk/lib/libmain.a(app_main.o)
 .irom0.literal
                0x0000000000000000        0x0 /opt/Espressif/esp-open-sdk/sdk/lib/libmain.a(app_main.o)
 .xt.lit        0x0000000000000000       0x88 /opt/Espressif/esp-open-sdk/sdk/lib/libmain.a(app_main.o)
 .xt.prop       0x0000000000000000      0x7d4 /opt/Espressif/esp-open-sdk/sdk/lib/libmain.a(app_main.o)
 .literal       0x0000000000000000        0x0 /opt/Espressif/esp-open-sdk/sdk/lib/libmain.a(ets_timer.o)
 .irom0.literal
                0x0000000000000000        0x0 /opt/Espressif/esp-open-sdk/sdk/lib/libmain.a(ets_timer.o)
 .data          0x0000000000000000        0x0 /opt/Espressif/esp-open-sdk/sdk/lib/libmain.a(ets_timer.o)
 .xt.lit        0x0000000000000000       0x48 /opt/Espressif/esp-open-sdk/sdk/lib/libmain.a(ets_timer.o)
 .xt.prop       0x0000000000000000      0x3a8 /opt/Espressif/esp-open-sdk/sdk/lib/libmain.a(ets_timer.o)
 .literal       0x0000000000000000        0x0 /opt/Espressif/esp-open-sdk/sdk/lib/libmain.a(mem_manager.o)
 .irom0.literal
                0x0000000000000000        0x0 /opt/Espressif/esp-open-sdk/sdk/lib/libmain.a(mem_manager.o)
 .data          0x0000000000000000        0x0 /opt/Espressif/esp-open-sdk/sdk/lib/libmain.a(mem_manager.o)
 .xt.lit        0x0000000000000000       0x38 /opt/Espressif/esp-open-sdk/sdk/lib/libmain.a(mem_manager.o)
 .xt.prop       0x0000000000000000      0x27c /opt/Espressif/esp-open-sdk/sdk/lib/libmain.a(mem_manager.o)
 .literal       0x0000000000000000        0x0 /opt/Espressif/esp-open-sdk/sdk/lib/libmain.a(spi_flash.o)
 .irom0.literal
                0x0000000000000000        0x0 /opt/Espressif/esp-open-sdk/sdk/lib/libmain.a(spi_flash.o)
 .data          0x0000000000000000        0x0 /opt/Espressif/esp-open-sdk/sdk/lib/libmain.a(spi_flash.o)
 .irom0.text    0x0000000000000000        0xb /opt/Espressif/esp-open-sdk/sdk/lib/libmain.a(spi_flash.o)
 .xt.lit        0x0000000000000000       0x38 /opt/Espressif/esp-open-sdk/sdk/lib/libmain.a(spi_flash.o)
 .xt.prop       0x0000000000000000      0x18c /opt/Espressif/esp-open-sdk/sdk/lib/libmain.a(spi_flash.o)
 .irom0.literal
                0x0000000000000000        0x0 /opt/Espressif/esp-open-sdk/sdk/lib/libmain.a(user_interface.o)
 .literal       0x0000000000000000        0x0 /opt/Espressif/esp-open-sdk/sdk/lib/libmain.a(user_interface.o)
 .xt.lit        0x0000000000000000      0x3b0 /opt/Espressif/esp-open-sdk/sdk/lib/libmain.a(user_interface.o)
 .xt.prop       0x0000000000000000     0x2df0 /opt/Espressif/esp-open-sdk/sdk/lib/libmain.a(user_interface.o)
 .data          0x0000000000000000        0x0 /opt/Espressif/esp-open-sdk/sdk/lib/libmain.a(empty_user_rf_pre_init.o)
 .bss           0x0000000000000000        0x0 /opt/Espressif/esp-open-sdk/sdk/lib/libmain.a(empty_user_rf_pre_init.o)
 .xt.prop       0x0000000000000000       0x24 /opt/Espressif/esp-open-sdk/sdk/lib/libmain.a(empty_user_rf_pre_init.o)
 .irom0.literal
                0x0000000000000000        0x0 /opt/Espressif/esp-open-sdk/sdk/lib/libmain.a(eagle_lib.o)
 .text          0x0000000000000000        0x0 /opt/Espressif/esp-open-sdk/sdk/lib/libmain.a(eagle_lib.o)
 .data          0x0000000000000000        0x0 /opt/Espressif/esp-open-sdk/sdk/lib/libmain.a(eagle_lib.o)
 .bss           0x0000000000000000        0x0 /opt/Espressif/esp-open-sdk/sdk/lib/libmain.a(eagle_lib.o)
 .rodata        0x0000000000000000        0x8 /opt/Espressif/esp-open-sdk/sdk/lib/libmain.a(eagle_lib.o)
 .xt.lit        0x0000000000000000       0x18 /opt/Espressif/esp-open-sdk/sdk/lib/libmain.a(eagle_lib.o)
 .xt.prop       0x0000000000000000      0x804 /opt/Espressif/esp-open-sdk/sdk/lib/libmain.a(eagle_lib.o)
 .irom0.literal
                0x0000000000000000        0x0 /opt/Espressif/esp-open-sdk/sdk/lib/libmain.a(eagle_lwip_if.o)
 .text          0x0000000000000000        0x0 /opt/Espressif/esp-open-sdk/sdk/lib/libmain.a(eagle_lwip_if.o)
 .xt.lit        0x0000000000000000       0x28 /opt/Espressif/esp-open-sdk/sdk/lib/libmain.a(eagle_lwip_if.o)
 .xt.prop       0x0000000000000000      0x288 /opt/Espressif/esp-open-sdk/sdk/lib/libmain.a(eagle_lwip_if.o)
 .irom0.literal
                0x0000000000000000        0x0 build/app_app.a(user_main.o)
 .literal.ntp_setup
                0x0000000000000000        0x0 build/app_app.a(user_main.o)
 .literal.user_help
                0x0000000000000000        0x0 build/app_app.a(user_main.o)
 .literal.user_task
                0x0000000000000000        0x0 build/app_app.a(user_main.o)
 .text          0x0000000000000000        0x0 build/app_app.a(user_main.o)
 .data          0x0000000000000000        0x0 build/app_app.a(user_main.o)
 .bss           0x0000000000000000        0x0 build/app_app.a(user_main.o)
 .text.user_help
                0x0000000000000000       0x1d build/app_app.a(user_main.o)
 .xt.lit        0x0000000000000000       0x40 build/app_app.a(user_main.o)
 .xt.prop       0x0000000000000000      0x300 build/app_app.a(user_main.o)
 .irom0.literal
                0x0000000000000000        0x0 build/app_app.a(debug.o)
 .text          0x0000000000000000        0x0 build/app_app.a(debug.o)
 .data          0x0000000000000000        0x0 build/app_app.a(debug.o)
 .bss           0x0000000000000000        0x0 build/app_app.a(debug.o)
 .xt.lit        0x0000000000000000        0x8 build/app_app.a(debug.o)
 .xt.prop       0x0000000000000000       0x3c build/app_app.a(debug.o)
 .irom0.literal
                0x0000000000000000        0x0 build/app_app.a(pr.o)
 .text          0x0000000000000000        0x0 build/app_app.a(pr.o)
 .data          0x0000000000000000        0x0 build/app_app.a(pr.o)
 .bss           0x0000000000000000        0x0 build/app_app.a(pr.o)
 .xt.lit        0x0000000000000000        0x8 build/app_app.a(pr.o)
 .xt.prop       0x0000000000000000       0x3c build/app_app.a(pr.o)
 .irom0.literal
                0x0000000000000000        0x0 build/app_app.a(printf.o)
 .literal._puts$4014
                0x0000000000000000        0x0 build/app_app.a(printf.o)
 .text          0x0000000000000000        0x0 build/app_app.a(printf.o)
 .data          0x0000000000000000        0x0 build/app_app.a(printf.o)
 .bss           0x0000000000000000        0x0 build/app_app.a(printf.o)
 .xt.lit        0x0000000000000000       0x10 build/app_app.a(printf.o)
 .xt.prop       0x0000000000000000      0xb1c build/app_app.a(printf.o)
 .irom0.literal
                0x0000000000000000        0x0 build/app_app.a(time.o)
 .text          0x0000000000000000        0x0 build/app_app.a(time.o)
 .data          0x0000000000000000        0x0 build/app_app.a(time.o)
 .bss           0x0000000000000000        0x0 build/app_app.a(time.o)
 .xt.lit        0x0000000000000000       0xa0 build/app_app.a(time.o)
 .xt.prop       0x0000000000000000      0x4bc build/app_app.a(time.o)
 .literal.execute_timers
                0x0000000000000000        0x0 build/app_app.a(timer_hal.o)
 .literal.clock_task
                0x0000000000000000        0x0 build/app_app.a(timer_hal.o)
 .irom0.literal
                0x0000000000000000        0x0 build/app_app.a(timer_hal.o)
 .text          0x0000000000000000        0x0 build/app_app.a(timer_hal.o)
 .data          0x0000000000000000        0x0 build/app_app.a(timer_hal.o)
 .bss           0x0000000000000000        0x0 build/app_app.a(timer_hal.o)
 .xt.lit        0x0000000000000000       0x50 build/app_app.a(timer_hal.o)
 .xt.prop       0x0000000000000000      0x228 build/app_app.a(timer_hal.o)
 .literal.hspi_writeFIFO$part$0
                0x0000000000000000        0x0 build/app_app.a(hspi.o)
 .literal.hspi_readFIFO$part$1
                0x0000000000000000        0x0 build/app_app.a(hspi.o)
 .literal.hspi_cs_enable
                0x0000000000000000        0x0 build/app_app.a(hspi.o)
 .literal.hspi_cs_disable
                0x0000000000000000        0x0 build/app_app.a(hspi.o)
 .literal.hspi_init
                0x0000000000000000        0x0 build/app_app.a(hspi.o)
 .literal.hspi_waitReady
                0x0000000000000000        0x0 build/app_app.a(hspi.o)
 .literal.hspi_TX
                0x0000000000000000        0x0 build/app_app.a(hspi.o)
 .literal.hspi_TXRX
                0x0000000000000000        0x0 build/app_app.a(hspi.o)
 .literal.hspi_RX
                0x0000000000000000        0x0 build/app_app.a(hspi.o)
 .text          0x0000000000000000        0x0 build/app_app.a(hspi.o)
 .data          0x0000000000000000        0x0 build/app_app.a(hspi.o)
 .bss           0x0000000000000000        0x0 build/app_app.a(hspi.o)
 .xt.lit        0x0000000000000000       0x48 build/app_app.a(hspi.o)
 .xt.prop       0x0000000000000000      0x2ac build/app_app.a(hspi.o)
 .literal.uart_rx_enable
                0x0000000000000000        0x0 build/app_app.a(uart.o)
 .literal.uart_rx_disable
                0x0000000000000000        0x0 build/app_app.a(uart.o)
 .literal.uart_tx_enable
                0x0000000000000000        0x0 build/app_app.a(uart.o)
 .literal.uart_tx_disable
                0x0000000000000000        0x0 build/app_app.a(uart.o)
 .literal.tx_fifo_flush
                0x0000000000000000        0x0 build/app_app.a(uart.o)
 .literal.rx_fifo_flush
                0x0000000000000000        0x0 build/app_app.a(uart.o)
 .irom0.literal
                0x0000000000000000        0x0 build/app_app.a(uart.o)
 .literal.uart0_gets_add
                0x0000000000000000        0x0 build/app_app.a(uart.o)
 .literal.uart_callback
                0x0000000000000000        0x0 build/app_app.a(uart.o)
 .text          0x0000000000000000        0x0 build/app_app.a(uart.o)
 .data          0x0000000000000000        0x0 build/app_app.a(uart.o)
 .bss           0x0000000000000000        0x0 build/app_app.a(uart.o)
 .text.uart_rx_enable
                0x0000000000000000       0x27 build/app_app.a(uart.o)
 .text.uart_rx_disable
                0x0000000000000000       0x27 build/app_app.a(uart.o)
 .text.uart_tx_enable
                0x0000000000000000       0x26 build/app_app.a(uart.o)
 .text.uart_tx_disable
                0x0000000000000000       0x26 build/app_app.a(uart.o)
 .text.tx_fifo_flush
                0x0000000000000000       0x3c build/app_app.a(uart.o)
 .text.rx_fifo_flush
                0x0000000000000000       0x3c build/app_app.a(uart.o)
 .xt.lit        0x0000000000000000       0xe0 build/app_app.a(uart.o)
 .xt.prop       0x0000000000000000      0x660 build/app_app.a(uart.o)
 .literal.read_flash8
                0x0000000000000000        0x0 build/app_app.a(util.o)
 .literal.cpy_flash
                0x0000000000000000        0x0 build/app_app.a(util.o)
 .literal.read_flash16
                0x0000000000000000        0x0 build/app_app.a(util.o)
 .literal.read_flash32
                0x0000000000000000        0x0 build/app_app.a(util.o)
 .literal.read_flash64
                0x0000000000000000        0x0 build/app_app.a(util.o)
 .literal.read_flash_ptr
                0x0000000000000000        0x0 build/app_app.a(util.o)
 .literal.bittestv
                0x0000000000000000        0x0 build/app_app.a(util.o)
 .literal.bittestxy
                0x0000000000000000        0x0 build/app_app.a(util.o)
 .irom0.literal
                0x0000000000000000        0x0 build/app_app.a(util.o)
 .text          0x0000000000000000        0x0 build/app_app.a(util.o)
 .data          0x0000000000000000        0x0 build/app_app.a(util.o)
 .bss           0x0000000000000000        0x0 build/app_app.a(util.o)
 .text.read_flash8
                0x0000000000000000       0x31 build/app_app.a(util.o)
 .text.read_flash16
                0x0000000000000000       0x1e build/app_app.a(util.o)
 .text.read_flash32
                0x0000000000000000       0x1d build/app_app.a(util.o)
 .text.read_flash64
                0x0000000000000000       0x1f build/app_app.a(util.o)
 .text.read_flash_ptr
                0x0000000000000000       0x1d build/app_app.a(util.o)
 .text.bittestxy
                0x0000000000000000       0x2d build/app_app.a(util.o)
 .xt.lit        0x0000000000000000       0x88 build/app_app.a(util.o)
 .xt.prop       0x0000000000000000      0x534 build/app_app.a(util.o)
 .literal.cal_dex_handler
                0x0000000000000000        0x0 build/app_app.a(cal_dex.o)
 .literal.cal_dex_dump_hex
                0x0000000000000000        0x0 build/app_app.a(cal_dex.o)
 .literal.stackok
                0x0000000000000000        0x0 build/app_app.a(cal_dex.o)
 .literal.cal_dex_dump_stack
                0x0000000000000000        0x0 build/app_app.a(cal_dex.o)
 .literal.cal_dex_dump
                0x0000000000000000        0x0 build/app_app.a(cal_dex.o)
 .literal.__wrap__xtos_set_exception_handler
                0x0000000000000000        0x0 build/app_app.a(cal_dex.o)
 .text          0x0000000000000000        0x0 build/app_app.a(cal_dex.o)
 .data          0x0000000000000000        0x0 build/app_app.a(cal_dex.o)
 .bss           0x0000000000000000        0x0 build/app_app.a(cal_dex.o)
 .text.stackok  0x0000000000000000       0x21 build/app_app.a(cal_dex.o)
 .xt.lit        0x0000000000000000       0x30 build/app_app.a(cal_dex.o)
 .xt.prop       0x0000000000000000      0x1b0 build/app_app.a(cal_dex.o)
 .literal.tft_spi_init
                0x0000000000000000        0x0 build/app_app.a(ili9341.o)
 .literal.tft_spi_begin
                0x0000000000000000        0x0 build/app_app.a(ili9341.o)
 .literal.tft_spi_end
                0x0000000000000000        0x0 build/app_app.a(ili9341.o)
 .literal.tft_spi_TX
                0x0000000000000000        0x0 build/app_app.a(ili9341.o)
 .literal.tft_spi_TXRX
                0x0000000000000000        0x0 build/app_app.a(ili9341.o)
 .literal.tft_spi_RX
                0x0000000000000000        0x0 build/app_app.a(ili9341.o)
 .literal.tft_Cmd
                0x0000000000000000        0x0 build/app_app.a(ili9341.o)
 .literal.tft_Data
                0x0000000000000000        0x0 build/app_app.a(ili9341.o)
 .literal.tft_Cmd_Data_TX
                0x0000000000000000        0x0 build/app_app.a(ili9341.o)
 .literal.tft_abs_window
                0x0000000000000000        0x0 build/app_app.a(ili9341.o)
 .literal.tft_rel_window
                0x0000000000000000        0x0 build/app_app.a(ili9341.o)
 .irom0.literal
                0x0000000000000000        0x0 build/app_app.a(ili9341.o)
 .literal.tft_bit_blit
                0x0000000000000000        0x0 build/app_app.a(ili9341.o)
 .literal.tft_fillRectWH
                0x0000000000000000        0x0 build/app_app.a(ili9341.o)
 .literal.tft_fillWin
                0x0000000000000000        0x0 build/app_app.a(ili9341.o)
 .literal.tft_fillRectXY
                0x0000000000000000        0x0 build/app_app.a(ili9341.o)
 .literal.tft_drawPixel
                0x0000000000000000        0x0 build/app_app.a(ili9341.o)
 .literal.tft_writeRect
                0x0000000000000000        0x0 build/app_app.a(ili9341.o)
 .literal.tft_readRect
                0x0000000000000000        0x0 build/app_app.a(ili9341.o)
 .literal.tft_Vscroll
                0x0000000000000000        0x0 build/app_app.a(ili9341.o)
 .literal.tft_readPixel
                0x0000000000000000        0x0 build/app_app.a(ili9341.o)
 .literal.tft_565toRGB
                0x0000000000000000        0x0 build/app_app.a(ili9341.o)
 .literal.tft_get_font_height
                0x0000000000000000        0x0 build/app_app.a(ili9341.o)
 .literal.tft_drawFastVLine
                0x0000000000000000        0x0 build/app_app.a(ili9341.o)
 .literal.tft_drawFastHLine
                0x0000000000000000        0x0 build/app_app.a(ili9341.o)
 .literal.tft_drawLine
                0x0000000000000000        0x0 build/app_app.a(ili9341.o)
 .literal.tft_putch
                0x0000000000000000        0x0 build/app_app.a(ili9341.o)
 .text          0x0000000000000000        0x0 build/app_app.a(ili9341.o)
 .data          0x0000000000000000        0x0 build/app_app.a(ili9341.o)
 .bss           0x0000000000000000        0x0 build/app_app.a(ili9341.o)
 .text.tft_spi_end
                0x0000000000000000       0x23 build/app_app.a(ili9341.o)
 .text.tft_Cmd  0x0000000000000000       0x1f build/app_app.a(ili9341.o)
 .text.tft_Data
                0x0000000000000000       0x22 build/app_app.a(ili9341.o)
 .text.tft_rel_window
                0x0000000000000000       0x38 build/app_app.a(ili9341.o)
 .text.tft_readPixel
                0x0000000000000000       0xaf build/app_app.a(ili9341.o)
 .text.tft_565toRGB
                0x0000000000000000       0x23 build/app_app.a(ili9341.o)
 .text.tft_get_font_height
                0x0000000000000000       0x2d build/app_app.a(ili9341.o)
 .xt.lit        0x0000000000000000       0xf8 build/app_app.a(ili9341.o)
 .xt.prop       0x0000000000000000      0x96c build/app_app.a(ili9341.o)
 .irom0.literal
                0x0000000000000000        0x0 build/app_app.a(network.o)
 .text          0x0000000000000000        0x0 build/app_app.a(network.o)
 .data          0x0000000000000000        0x0 build/app_app.a(network.o)
 .bss           0x0000000000000000        0x0 build/app_app.a(network.o)
 .xt.lit        0x0000000000000000       0x10 build/app_app.a(network.o)
 .xt.prop       0x0000000000000000      0x1c8 build/app_app.a(network.o)
 .literal.wire2fp
                0x0000000000000000        0x0 build/app_app.a(wire.o)
 .literal.wire_draw
                0x0000000000000000        0x0 build/app_app.a(wire.o)
 .text          0x0000000000000000        0x0 build/app_app.a(wire.o)
 .data          0x0000000000000000        0x0 build/app_app.a(wire.o)
 .bss           0x0000000000000000        0x0 build/app_app.a(wire.o)
 .text.wire2fp  0x0000000000000000       0x87 build/app_app.a(wire.o)
 .xt.lit        0x0000000000000000       0x10 build/app_app.a(wire.o)
 .xt.prop       0x0000000000000000       0xa8 build/app_app.a(wire.o)
 .irom0.literal
                0x0000000000000000        0x0 build/app_app.a(timer.o)
 .text          0x0000000000000000        0x0 build/app_app.a(timer.o)
 .data          0x0000000000000000        0x0 build/app_app.a(timer.o)
 .bss           0x0000000000000000        0x0 build/app_app.a(timer.o)
 .xt.lit        0x0000000000000000       0x40 build/app_app.a(timer.o)
 .xt.prop       0x0000000000000000      0x1e0 build/app_app.a(timer.o)
 .literal.queue_new
                0x0000000000000000        0x0 build/app_app.a(queue.o)
 .literal.queue_del
                0x0000000000000000        0x0 build/app_app.a(queue.o)
 .literal.queue_flush
                0x0000000000000000        0x0 build/app_app.a(queue.o)
 .literal.queue_used
                0x0000000000000000        0x0 build/app_app.a(queue.o)
 .literal.queue_empty
                0x0000000000000000        0x0 build/app_app.a(queue.o)
 .literal.queue_space
                0x0000000000000000        0x0 build/app_app.a(queue.o)
 .literal.queue_full
                0x0000000000000000        0x0 build/app_app.a(queue.o)
 .literal.queue_push_buffer
                0x0000000000000000        0x0 build/app_app.a(queue.o)
 .literal.queue_pop_buffer
                0x0000000000000000        0x0 build/app_app.a(queue.o)
 .literal.queue_pushc
                0x0000000000000000        0x0 build/app_app.a(queue.o)
 .literal.queue_popc
                0x0000000000000000        0x0 build/app_app.a(queue.o)
 .text          0x0000000000000000        0x0 build/app_app.a(queue.o)
 .data          0x0000000000000000        0x0 build/app_app.a(queue.o)
 .bss           0x0000000000000000        0x0 build/app_app.a(queue.o)
 .text.queue_del
                0x0000000000000000       0x3a build/app_app.a(queue.o)
 .text.queue_flush
                0x0000000000000000        0xa build/app_app.a(queue.o)
 .text.queue_used
                0x0000000000000000        0xe build/app_app.a(queue.o)
 .text.queue_full
                0x0000000000000000       0x1a build/app_app.a(queue.o)
 .text.queue_push_buffer
                0x0000000000000000       0x4c build/app_app.a(queue.o)
 .text.queue_pop_buffer
                0x0000000000000000       0x4c build/app_app.a(queue.o)
 .xt.lit        0x0000000000000000       0x10 build/app_app.a(queue.o)
 .xt.prop       0x0000000000000000      0x384 build/app_app.a(queue.o)
 .irom0.literal
                0x0000000000000000        0x0 build/app_app.a(ili9341_adafruit.o)
 .text          0x0000000000000000        0x0 build/app_app.a(ili9341_adafruit.o)
 .data          0x0000000000000000        0x0 build/app_app.a(ili9341_adafruit.o)
 .bss           0x0000000000000000        0x0 build/app_app.a(ili9341_adafruit.o)
 .xt.lit        0x0000000000000000       0x58 build/app_app.a(ili9341_adafruit.o)
 .xt.prop       0x0000000000000000      0x2e8 build/app_app.a(ili9341_adafruit.o)
 .literal.font_attr
                0x0000000000000000        0x0 build/app_app.a(font.o)
 .literal.tft_drawChar
                0x0000000000000000        0x0 build/app_app.a(font.o)
 .text          0x0000000000000000        0x0 build/app_app.a(font.o)
 .data          0x0000000000000000        0x0 build/app_app.a(font.o)
 .bss           0x0000000000000000        0x0 build/app_app.a(font.o)
 .xt.lit        0x0000000000000000       0x10 build/app_app.a(font.o)
 .xt.prop       0x0000000000000000      0x18c build/app_app.a(font.o)
 .irom0.literal
                0x0000000000000000        0x0 build/app_app.a(cordic.o)
 .literal.Circular
                0x0000000000000000        0x0 build/app_app.a(cordic.o)
 .text          0x0000000000000000        0x0 build/app_app.a(cordic.o)
 .data          0x0000000000000000        0x0 build/app_app.a(cordic.o)
 .bss           0x0000000000000000        0x0 build/app_app.a(cordic.o)
 .xt.lit        0x0000000000000000       0x50 build/app_app.a(cordic.o)
 .xt.prop       0x0000000000000000      0x1e0 build/app_app.a(cordic.o)
 .data          0x0000000000000000        0x0 /opt/Espressif/esp-open-sdk/xtensa-lx106-elf/lib/gcc/xtensa-lx106-elf/4.8.2/libgcc.a(_divsi3.o)
 .bss           0x0000000000000000        0x0 /opt/Espressif/esp-open-sdk/xtensa-lx106-elf/lib/gcc/xtensa-lx106-elf/4.8.2/libgcc.a(_divsi3.o)
 .xt.prop       0x0000000000000000       0x9c /opt/Espressif/esp-open-sdk/xtensa-lx106-elf/lib/gcc/xtensa-lx106-elf/4.8.2/libgcc.a(_divsi3.o)
 .data          0x0000000000000000        0x0 /opt/Espressif/esp-open-sdk/xtensa-lx106-elf/lib/gcc/xtensa-lx106-elf/4.8.2/libgcc.a(_modsi3.o)
 .bss           0x0000000000000000        0x0 /opt/Espressif/esp-open-sdk/xtensa-lx106-elf/lib/gcc/xtensa-lx106-elf/4.8.2/libgcc.a(_modsi3.o)
 .xt.prop       0x0000000000000000       0x84 /opt/Espressif/esp-open-sdk/xtensa-lx106-elf/lib/gcc/xtensa-lx106-elf/4.8.2/libgcc.a(_modsi3.o)
 .data          0x0000000000000000        0x0 /opt/Espressif/esp-open-sdk/xtensa-lx106-elf/lib/gcc/xtensa-lx106-elf/4.8.2/libgcc.a(_udivsi3.o)
 .bss           0x0000000000000000        0x0 /opt/Espressif/esp-open-sdk/xtensa-lx106-elf/lib/gcc/xtensa-lx106-elf/4.8.2/libgcc.a(_udivsi3.o)
 .xt.prop       0x0000000000000000       0x9c /opt/Espressif/esp-open-sdk/xtensa-lx106-elf/lib/gcc/xtensa-lx106-elf/4.8.2/libgcc.a(_udivsi3.o)
 .data          0x0000000000000000        0x0 /opt/Espressif/esp-open-sdk/xtensa-lx106-elf/lib/gcc/xtensa-lx106-elf/4.8.2/libgcc.a(_umodsi3.o)
 .bss           0x0000000000000000        0x0 /opt/Espressif/esp-open-sdk/xtensa-lx106-elf/lib/gcc/xtensa-lx106-elf/4.8.2/libgcc.a(_umodsi3.o)
 .xt.prop       0x0000000000000000       0x78 /opt/Espressif/esp-open-sdk/xtensa-lx106-elf/lib/gcc/xtensa-lx106-elf/4.8.2/libgcc.a(_umodsi3.o)
 .data          0x0000000000000000        0x0 /opt/Espressif/esp-open-sdk/xtensa-lx106-elf/lib/gcc/xtensa-lx106-elf/4.8.2/libgcc.a(_addsubdf3.o)
 .bss           0x0000000000000000        0x0 /opt/Espressif/esp-open-sdk/xtensa-lx106-elf/lib/gcc/xtensa-lx106-elf/4.8.2/libgcc.a(_addsubdf3.o)
 .xt.lit        0x0000000000000000        0x8 /opt/Espressif/esp-open-sdk/xtensa-lx106-elf/lib/gcc/xtensa-lx106-elf/4.8.2/libgcc.a(_addsubdf3.o)
 .xt.prop       0x0000000000000000      0x408 /opt/Espressif/esp-open-sdk/xtensa-lx106-elf/lib/gcc/xtensa-lx106-elf/4.8.2/libgcc.a(_addsubdf3.o)
 .data          0x0000000000000000        0x0 /opt/Espressif/esp-open-sdk/xtensa-lx106-elf/lib/gcc/xtensa-lx106-elf/4.8.2/libgcc.a(_muldf3.o)
 .bss           0x0000000000000000        0x0 /opt/Espressif/esp-open-sdk/xtensa-lx106-elf/lib/gcc/xtensa-lx106-elf/4.8.2/libgcc.a(_muldf3.o)
 .xt.lit        0x0000000000000000        0x8 /opt/Espressif/esp-open-sdk/xtensa-lx106-elf/lib/gcc/xtensa-lx106-elf/4.8.2/libgcc.a(_muldf3.o)
 .xt.prop       0x0000000000000000      0x294 /opt/Espressif/esp-open-sdk/xtensa-lx106-elf/lib/gcc/xtensa-lx106-elf/4.8.2/libgcc.a(_muldf3.o)
 .data          0x0000000000000000        0x0 /opt/Espressif/esp-open-sdk/xtensa-lx106-elf/lib/gcc/xtensa-lx106-elf/4.8.2/libgcc.a(_divdf3.o)
 .bss           0x0000000000000000        0x0 /opt/Espressif/esp-open-sdk/xtensa-lx106-elf/lib/gcc/xtensa-lx106-elf/4.8.2/libgcc.a(_divdf3.o)
 .xt.lit        0x0000000000000000        0x8 /opt/Espressif/esp-open-sdk/xtensa-lx106-elf/lib/gcc/xtensa-lx106-elf/4.8.2/libgcc.a(_divdf3.o)
 .xt.prop       0x0000000000000000      0x264 /opt/Espressif/esp-open-sdk/xtensa-lx106-elf/lib/gcc/xtensa-lx106-elf/4.8.2/libgcc.a(_divdf3.o)
 .data          0x0000000000000000        0x0 /opt/Espressif/esp-open-sdk/xtensa-lx106-elf/lib/gcc/xtensa-lx106-elf/4.8.2/libgcc.a(_cmpdf2.o)
 .bss           0x0000000000000000        0x0 /opt/Espressif/esp-open-sdk/xtensa-lx106-elf/lib/gcc/xtensa-lx106-elf/4.8.2/libgcc.a(_cmpdf2.o)
 .xt.lit        0x0000000000000000        0x8 /opt/Espressif/esp-open-sdk/xtensa-lx106-elf/lib/gcc/xtensa-lx106-elf/4.8.2/libgcc.a(_cmpdf2.o)
 .xt.prop       0x0000000000000000      0x288 /opt/Espressif/esp-open-sdk/xtensa-lx106-elf/lib/gcc/xtensa-lx106-elf/4.8.2/libgcc.a(_cmpdf2.o)
 .data          0x0000000000000000        0x0 /opt/Espressif/esp-open-sdk/xtensa-lx106-elf/lib/gcc/xtensa-lx106-elf/4.8.2/libgcc.a(_fixdfsi.o)
 .bss           0x0000000000000000        0x0 /opt/Espressif/esp-open-sdk/xtensa-lx106-elf/lib/gcc/xtensa-lx106-elf/4.8.2/libgcc.a(_fixdfsi.o)
 .xt.lit        0x0000000000000000        0x8 /opt/Espressif/esp-open-sdk/xtensa-lx106-elf/lib/gcc/xtensa-lx106-elf/4.8.2/libgcc.a(_fixdfsi.o)
 .xt.prop       0x0000000000000000       0x6c /opt/Espressif/esp-open-sdk/xtensa-lx106-elf/lib/gcc/xtensa-lx106-elf/4.8.2/libgcc.a(_fixdfsi.o)
 .data          0x0000000000000000        0x0 /opt/Espressif/esp-open-sdk/xtensa-lx106-elf/lib/gcc/xtensa-lx106-elf/4.8.2/libgcc.a(_floatsidf.o)
 .bss           0x0000000000000000        0x0 /opt/Espressif/esp-open-sdk/xtensa-lx106-elf/lib/gcc/xtensa-lx106-elf/4.8.2/libgcc.a(_floatsidf.o)
 .xt.prop       0x0000000000000000       0x54 /opt/Espressif/esp-open-sdk/xtensa-lx106-elf/lib/gcc/xtensa-lx106-elf/4.8.2/libgcc.a(_floatsidf.o)
 .data          0x0000000000000000        0x0 /opt/Espressif/esp-open-sdk/xtensa-lx106-elf/lib/gcc/xtensa-lx106-elf/4.8.2/libgcc.a(_truncdfsf2.o)
 .bss           0x0000000000000000        0x0 /opt/Espressif/esp-open-sdk/xtensa-lx106-elf/lib/gcc/xtensa-lx106-elf/4.8.2/libgcc.a(_truncdfsf2.o)
 .xt.lit        0x0000000000000000        0x8 /opt/Espressif/esp-open-sdk/xtensa-lx106-elf/lib/gcc/xtensa-lx106-elf/4.8.2/libgcc.a(_truncdfsf2.o)
 .xt.prop       0x0000000000000000       0xb4 /opt/Espressif/esp-open-sdk/xtensa-lx106-elf/lib/gcc/xtensa-lx106-elf/4.8.2/libgcc.a(_truncdfsf2.o)
 .data          0x0000000000000000        0x0 /opt/Espressif/esp-open-sdk/xtensa-lx106-elf/lib/gcc/xtensa-lx106-elf/4.8.2/libgcc.a(_extendsfdf2.o)
 .bss           0x0000000000000000        0x0 /opt/Espressif/esp-open-sdk/xtensa-lx106-elf/lib/gcc/xtensa-lx106-elf/4.8.2/libgcc.a(_extendsfdf2.o)
 .xt.lit        0x0000000000000000        0x8 /opt/Espressif/esp-open-sdk/xtensa-lx106-elf/lib/gcc/xtensa-lx106-elf/4.8.2/libgcc.a(_extendsfdf2.o)
 .xt.prop       0x0000000000000000       0x6c /opt/Espressif/esp-open-sdk/xtensa-lx106-elf/lib/gcc/xtensa-lx106-elf/4.8.2/libgcc.a(_extendsfdf2.o)
 .data          0x0000000000000000        0x0 /opt/Espressif/esp-open-sdk/xtensa-lx106-elf/lib/gcc/xtensa-lx106-elf/4.8.2/libgcc.a(_muldi3.o)
 .bss           0x0000000000000000        0x0 /opt/Espressif/esp-open-sdk/xtensa-lx106-elf/lib/gcc/xtensa-lx106-elf/4.8.2/libgcc.a(_muldi3.o)
 .xt.lit        0x0000000000000000        0x8 /opt/Espressif/esp-open-sdk/xtensa-lx106-elf/lib/gcc/xtensa-lx106-elf/4.8.2/libgcc.a(_muldi3.o)
 .xt.prop       0x0000000000000000       0x30 /opt/Espressif/esp-open-sdk/xtensa-lx106-elf/lib/gcc/xtensa-lx106-elf/4.8.2/libgcc.a(_muldi3.o)
 .data          0x0000000000000000        0x0 /opt/Espressif/esp-open-sdk/xtensa-lx106-elf/lib/gcc/xtensa-lx106-elf/4.8.2/libgcc.a(_umulsidi3.o)
 .bss           0x0000000000000000        0x0 /opt/Espressif/esp-open-sdk/xtensa-lx106-elf/lib/gcc/xtensa-lx106-elf/4.8.2/libgcc.a(_umulsidi3.o)
 .xt.prop       0x0000000000000000       0x3c /opt/Espressif/esp-open-sdk/xtensa-lx106-elf/lib/gcc/xtensa-lx106-elf/4.8.2/libgcc.a(_umulsidi3.o)
 .data          0x0000000000000000        0x0 /opt/Espressif/esp-open-sdk/xtensa-lx106-elf/xtensa-lx106-elf/sysroot/usr/lib/libhal.a(int_asm--set_intclear.o)
 .bss           0x0000000000000000        0x0 /opt/Espressif/esp-open-sdk/xtensa-lx106-elf/xtensa-lx106-elf/sysroot/usr/lib/libhal.a(int_asm--set_intclear.o)
 .xt.prop       0x0000000000000000       0x24 /opt/Espressif/esp-open-sdk/xtensa-lx106-elf/xtensa-lx106-elf/sysroot/usr/lib/libhal.a(int_asm--set_intclear.o)
 .irom0.literal
                0x0000000000000000        0x0 /opt/Espressif/esp-open-sdk/sdk/lib/libphy.a(phy.o)
 .literal       0x0000000000000000        0x0 /opt/Espressif/esp-open-sdk/sdk/lib/libphy.a(phy.o)
 .data          0x0000000000000000        0x0 /opt/Espressif/esp-open-sdk/sdk/lib/libphy.a(phy.o)
 .xt.lit        0x0000000000000000       0x68 /opt/Espressif/esp-open-sdk/sdk/lib/libphy.a(phy.o)
 .xt.prop       0x0000000000000000      0x1e0 /opt/Espressif/esp-open-sdk/sdk/lib/libphy.a(phy.o)
 .irom0.literal
                0x0000000000000000        0x0 /opt/Espressif/esp-open-sdk/sdk/lib/libphy.a(phy_chip_v6_ana.o)
 .text          0x0000000000000000        0x0 /opt/Espressif/esp-open-sdk/sdk/lib/libphy.a(phy_chip_v6_ana.o)
 .data          0x0000000000000000        0x0 /opt/Espressif/esp-open-sdk/sdk/lib/libphy.a(phy_chip_v6_ana.o)
 .bss           0x0000000000000000        0x0 /opt/Espressif/esp-open-sdk/sdk/lib/libphy.a(phy_chip_v6_ana.o)
 .rodata        0x0000000000000000        0x8 /opt/Espressif/esp-open-sdk/sdk/lib/libphy.a(phy_chip_v6_ana.o)
 .xt.lit        0x0000000000000000       0xc0 /opt/Espressif/esp-open-sdk/sdk/lib/libphy.a(phy_chip_v6_ana.o)
 .xt.prop       0x0000000000000000      0xd5c /opt/Espressif/esp-open-sdk/sdk/lib/libphy.a(phy_chip_v6_ana.o)
 .irom0.literal
                0x0000000000000000        0x0 /opt/Espressif/esp-open-sdk/sdk/lib/libphy.a(phy_chip_v6.o)
 .literal       0x0000000000000000        0x0 /opt/Espressif/esp-open-sdk/sdk/lib/libphy.a(phy_chip_v6.o)
 .xt.lit        0x0000000000000000      0x1f0 /opt/Espressif/esp-open-sdk/sdk/lib/libphy.a(phy_chip_v6.o)
 .xt.prop       0x0000000000000000     0x1fb0 /opt/Espressif/esp-open-sdk/sdk/lib/libphy.a(phy_chip_v6.o)
 .irom0.literal
                0x0000000000000000        0x0 /opt/Espressif/esp-open-sdk/sdk/lib/libphy.a(phy_chip_v6_cal.o)
 .literal       0x0000000000000000        0x0 /opt/Espressif/esp-open-sdk/sdk/lib/libphy.a(phy_chip_v6_cal.o)
 .data          0x0000000000000000        0x0 /opt/Espressif/esp-open-sdk/sdk/lib/libphy.a(phy_chip_v6_cal.o)
 .xt.lit        0x0000000000000000       0xe0 /opt/Espressif/esp-open-sdk/sdk/lib/libphy.a(phy_chip_v6_cal.o)
 .xt.prop       0x0000000000000000      0xf84 /opt/Espressif/esp-open-sdk/sdk/lib/libphy.a(phy_chip_v6_cal.o)
 .irom0.literal
                0x0000000000000000        0x0 /opt/Espressif/esp-open-sdk/sdk/lib/libphy.a(phy_chip_v6_unused.o)
 .text          0x0000000000000000        0x0 /opt/Espressif/esp-open-sdk/sdk/lib/libphy.a(phy_chip_v6_unused.o)
 .data          0x0000000000000000        0x0 /opt/Espressif/esp-open-sdk/sdk/lib/libphy.a(phy_chip_v6_unused.o)
 .bss           0x0000000000000000        0x0 /opt/Espressif/esp-open-sdk/sdk/lib/libphy.a(phy_chip_v6_unused.o)
 .xt.lit        0x0000000000000000       0x28 /opt/Espressif/esp-open-sdk/sdk/lib/libphy.a(phy_chip_v6_unused.o)
 .xt.prop       0x0000000000000000      0x1b0 /opt/Espressif/esp-open-sdk/sdk/lib/libphy.a(phy_chip_v6_unused.o)
 .irom0.literal
                0x0000000000000000        0x0 /opt/Espressif/esp-open-sdk/sdk/lib/libphy.a(phy_sleep.o)
 .literal       0x0000000000000000        0x0 /opt/Espressif/esp-open-sdk/sdk/lib/libphy.a(phy_sleep.o)
 .xt.lit        0x0000000000000000       0xd8 /opt/Espressif/esp-open-sdk/sdk/lib/libphy.a(phy_sleep.o)
 .xt.prop       0x0000000000000000      0x8c4 /opt/Espressif/esp-open-sdk/sdk/lib/libphy.a(phy_sleep.o)
 .irom0.literal
                0x0000000000000000        0x0 /opt/Espressif/esp-open-sdk/sdk/lib/libpp.a(if_hwctrl.o)
 .text          0x0000000000000000        0x0 /opt/Espressif/esp-open-sdk/sdk/lib/libpp.a(if_hwctrl.o)
 .data          0x0000000000000000        0x0 /opt/Espressif/esp-open-sdk/sdk/lib/libpp.a(if_hwctrl.o)
 .xt.lit        0x0000000000000000       0x98 /opt/Espressif/esp-open-sdk/sdk/lib/libpp.a(if_hwctrl.o)
 .xt.prop       0x0000000000000000      0x4e0 /opt/Espressif/esp-open-sdk/sdk/lib/libpp.a(if_hwctrl.o)
 .literal       0x0000000000000000        0x0 /opt/Espressif/esp-open-sdk/sdk/lib/libpp.a(lmac.o)
 .irom0.literal
                0x0000000000000000        0x0 /opt/Espressif/esp-open-sdk/sdk/lib/libpp.a(lmac.o)
 .data          0x0000000000000000        0x0 /opt/Espressif/esp-open-sdk/sdk/lib/libpp.a(lmac.o)
 .xt.lit        0x0000000000000000      0x110 /opt/Espressif/esp-open-sdk/sdk/lib/libpp.a(lmac.o)
 .xt.prop       0x0000000000000000     0x1494 /opt/Espressif/esp-open-sdk/sdk/lib/libpp.a(lmac.o)
 .irom0.literal
                0x0000000000000000        0x0 /opt/Espressif/esp-open-sdk/sdk/lib/libpp.a(pm.o)
 .text          0x0000000000000000        0x0 /opt/Espressif/esp-open-sdk/sdk/lib/libpp.a(pm.o)
 .xt.lit        0x0000000000000000      0x198 /opt/Espressif/esp-open-sdk/sdk/lib/libpp.a(pm.o)
 .xt.prop       0x0000000000000000     0x1740 /opt/Espressif/esp-open-sdk/sdk/lib/libpp.a(pm.o)
 .irom0.literal
                0x0000000000000000        0x0 /opt/Espressif/esp-open-sdk/sdk/lib/libpp.a(pm_for_bcn_only_mode.o)
 .text          0x0000000000000000        0x0 /opt/Espressif/esp-open-sdk/sdk/lib/libpp.a(pm_for_bcn_only_mode.o)
 .xt.lit        0x0000000000000000       0x90 /opt/Espressif/esp-open-sdk/sdk/lib/libpp.a(pm_for_bcn_only_mode.o)
 .xt.prop       0x0000000000000000      0x99c /opt/Espressif/esp-open-sdk/sdk/lib/libpp.a(pm_for_bcn_only_mode.o)
 .literal       0x0000000000000000        0x0 /opt/Espressif/esp-open-sdk/sdk/lib/libpp.a(pp.o)
 .irom0.literal
                0x0000000000000000        0x0 /opt/Espressif/esp-open-sdk/sdk/lib/libpp.a(pp.o)
 .xt.lit        0x0000000000000000      0x198 /opt/Espressif/esp-open-sdk/sdk/lib/libpp.a(pp.o)
 .xt.prop       0x0000000000000000     0x18a8 /opt/Espressif/esp-open-sdk/sdk/lib/libpp.a(pp.o)
 .literal       0x0000000000000000        0x0 /opt/Espressif/esp-open-sdk/sdk/lib/libpp.a(rate_control.o)
 .irom0.literal
                0x0000000000000000        0x0 /opt/Espressif/esp-open-sdk/sdk/lib/libpp.a(rate_control.o)
 .xt.lit        0x0000000000000000       0x38 /opt/Espressif/esp-open-sdk/sdk/lib/libpp.a(rate_control.o)
 .xt.prop       0x0000000000000000      0x1d4 /opt/Espressif/esp-open-sdk/sdk/lib/libpp.a(rate_control.o)
 .literal       0x0000000000000000        0x0 /opt/Espressif/esp-open-sdk/sdk/lib/libpp.a(trc.o)
 .irom0.literal
                0x0000000000000000        0x0 /opt/Espressif/esp-open-sdk/sdk/lib/libpp.a(trc.o)
 .xt.lit        0x0000000000000000       0xa0 /opt/Espressif/esp-open-sdk/sdk/lib/libpp.a(trc.o)
 .xt.prop       0x0000000000000000      0xe7c /opt/Espressif/esp-open-sdk/sdk/lib/libpp.a(trc.o)
 .literal       0x0000000000000000        0x0 /opt/Espressif/esp-open-sdk/sdk/lib/libpp.a(wdev.o)
 .irom0.literal
                0x0000000000000000        0x0 /opt/Espressif/esp-open-sdk/sdk/lib/libpp.a(wdev.o)
 .xt.lit        0x0000000000000000      0x198 /opt/Espressif/esp-open-sdk/sdk/lib/libpp.a(wdev.o)
 .xt.prop       0x0000000000000000     0x1344 /opt/Espressif/esp-open-sdk/sdk/lib/libpp.a(wdev.o)
 .literal       0x0000000000000000        0x0 /opt/Espressif/esp-open-sdk/sdk/lib/libpp.a(esf_buf.o)
 .irom0.literal
                0x0000000000000000        0x0 /opt/Espressif/esp-open-sdk/sdk/lib/libpp.a(esf_buf.o)
 .data          0x0000000000000000        0x0 /opt/Espressif/esp-open-sdk/sdk/lib/libpp.a(esf_buf.o)
 .xt.lit        0x0000000000000000       0x20 /opt/Espressif/esp-open-sdk/sdk/lib/libpp.a(esf_buf.o)
 .xt.prop       0x0000000000000000      0x2d0 /opt/Espressif/esp-open-sdk/sdk/lib/libpp.a(esf_buf.o)
 .irom0.literal
                0x0000000000000000        0x0 /opt/Espressif/esp-open-sdk/sdk/lib/libnet80211.a(ieee80211.o)
 .text          0x0000000000000000        0x0 /opt/Espressif/esp-open-sdk/sdk/lib/libnet80211.a(ieee80211.o)
 .data          0x0000000000000000        0x0 /opt/Espressif/esp-open-sdk/sdk/lib/libnet80211.a(ieee80211.o)
 .rodata        0x0000000000000000        0x8 /opt/Espressif/esp-open-sdk/sdk/lib/libnet80211.a(ieee80211.o)
 .xt.lit        0x0000000000000000       0x30 /opt/Espressif/esp-open-sdk/sdk/lib/libnet80211.a(ieee80211.o)
 .xt.prop       0x0000000000000000      0x414 /opt/Espressif/esp-open-sdk/sdk/lib/libnet80211.a(ieee80211.o)
 .irom0.literal
                0x0000000000000000        0x0 /opt/Espressif/esp-open-sdk/sdk/lib/libnet80211.a(ieee80211_crypto.o)
 .text          0x0000000000000000        0x0 /opt/Espressif/esp-open-sdk/sdk/lib/libnet80211.a(ieee80211_crypto.o)
 .data          0x0000000000000000        0x0 /opt/Espressif/esp-open-sdk/sdk/lib/libnet80211.a(ieee80211_crypto.o)
 .bss           0x0000000000000000        0x0 /opt/Espressif/esp-open-sdk/sdk/lib/libnet80211.a(ieee80211_crypto.o)
 .xt.lit        0x0000000000000000       0x10 /opt/Espressif/esp-open-sdk/sdk/lib/libnet80211.a(ieee80211_crypto.o)
 .xt.prop       0x0000000000000000      0x138 /opt/Espressif/esp-open-sdk/sdk/lib/libnet80211.a(ieee80211_crypto.o)
 .irom0.literal
                0x0000000000000000        0x0 /opt/Espressif/esp-open-sdk/sdk/lib/libnet80211.a(ieee80211_ets.o)
 .text          0x0000000000000000        0x0 /opt/Espressif/esp-open-sdk/sdk/lib/libnet80211.a(ieee80211_ets.o)
 .data          0x0000000000000000        0x0 /opt/Espressif/esp-open-sdk/sdk/lib/libnet80211.a(ieee80211_ets.o)
 .bss           0x0000000000000000        0x0 /opt/Espressif/esp-open-sdk/sdk/lib/libnet80211.a(ieee80211_ets.o)
 .xt.lit        0x0000000000000000        0x8 /opt/Espressif/esp-open-sdk/sdk/lib/libnet80211.a(ieee80211_ets.o)
 .xt.prop       0x0000000000000000       0x48 /opt/Espressif/esp-open-sdk/sdk/lib/libnet80211.a(ieee80211_ets.o)
 .literal       0x0000000000000000        0x0 /opt/Espressif/esp-open-sdk/sdk/lib/libnet80211.a(ieee80211_hostap.o)
 .irom0.literal
                0x0000000000000000        0x0 /opt/Espressif/esp-open-sdk/sdk/lib/libnet80211.a(ieee80211_hostap.o)
 .rodata        0x0000000000000000        0x4 /opt/Espressif/esp-open-sdk/sdk/lib/libnet80211.a(ieee80211_hostap.o)
 .xt.lit        0x0000000000000000       0x78 /opt/Espressif/esp-open-sdk/sdk/lib/libnet80211.a(ieee80211_hostap.o)
 .xt.prop       0x0000000000000000      0xc9c /opt/Espressif/esp-open-sdk/sdk/lib/libnet80211.a(ieee80211_hostap.o)
 .irom0.literal
                0x0000000000000000        0x0 /opt/Espressif/esp-open-sdk/sdk/lib/libnet80211.a(ieee80211_ht.o)
 .text          0x0000000000000000        0x0 /opt/Espressif/esp-open-sdk/sdk/lib/libnet80211.a(ieee80211_ht.o)
 .data          0x0000000000000000        0x0 /opt/Espressif/esp-open-sdk/sdk/lib/libnet80211.a(ieee80211_ht.o)
 .bss           0x0000000000000000        0x0 /opt/Espressif/esp-open-sdk/sdk/lib/libnet80211.a(ieee80211_ht.o)
 .xt.lit        0x0000000000000000       0x68 /opt/Espressif/esp-open-sdk/sdk/lib/libnet80211.a(ieee80211_ht.o)
 .xt.prop       0x0000000000000000      0x690 /opt/Espressif/esp-open-sdk/sdk/lib/libnet80211.a(ieee80211_ht.o)
 .irom0.literal
                0x0000000000000000        0x0 /opt/Espressif/esp-open-sdk/sdk/lib/libnet80211.a(ieee80211_input.o)
 .text          0x0000000000000000        0x0 /opt/Espressif/esp-open-sdk/sdk/lib/libnet80211.a(ieee80211_input.o)
 .data          0x0000000000000000        0x0 /opt/Espressif/esp-open-sdk/sdk/lib/libnet80211.a(ieee80211_input.o)
 .bss           0x0000000000000000        0x0 /opt/Espressif/esp-open-sdk/sdk/lib/libnet80211.a(ieee80211_input.o)
 .xt.lit        0x0000000000000000       0x60 /opt/Espressif/esp-open-sdk/sdk/lib/libnet80211.a(ieee80211_input.o)
 .xt.prop       0x0000000000000000      0x870 /opt/Espressif/esp-open-sdk/sdk/lib/libnet80211.a(ieee80211_input.o)
 .irom0.literal
                0x0000000000000000        0x0 /opt/Espressif/esp-open-sdk/sdk/lib/libnet80211.a(ieee80211_output.o)
 .text          0x0000000000000000        0x0 /opt/Espressif/esp-open-sdk/sdk/lib/libnet80211.a(ieee80211_output.o)
 .data          0x0000000000000000        0x0 /opt/Espressif/esp-open-sdk/sdk/lib/libnet80211.a(ieee80211_output.o)
 .bss           0x0000000000000000        0x0 /opt/Espressif/esp-open-sdk/sdk/lib/libnet80211.a(ieee80211_output.o)
 .xt.lit        0x0000000000000000       0x88 /opt/Espressif/esp-open-sdk/sdk/lib/libnet80211.a(ieee80211_output.o)
 .xt.prop       0x0000000000000000      0xd80 /opt/Espressif/esp-open-sdk/sdk/lib/libnet80211.a(ieee80211_output.o)
 .irom0.literal
                0x0000000000000000        0x0 /opt/Espressif/esp-open-sdk/sdk/lib/libnet80211.a(ieee80211_phy.o)
 .text          0x0000000000000000        0x0 /opt/Espressif/esp-open-sdk/sdk/lib/libnet80211.a(ieee80211_phy.o)
 .bss           0x0000000000000000        0x0 /opt/Espressif/esp-open-sdk/sdk/lib/libnet80211.a(ieee80211_phy.o)
 .xt.lit        0x0000000000000000       0x38 /opt/Espressif/esp-open-sdk/sdk/lib/libnet80211.a(ieee80211_phy.o)
 .xt.prop       0x0000000000000000      0x27c /opt/Espressif/esp-open-sdk/sdk/lib/libnet80211.a(ieee80211_phy.o)
 .irom0.literal
                0x0000000000000000        0x0 /opt/Espressif/esp-open-sdk/sdk/lib/libnet80211.a(ieee80211_power.o)
 .text          0x0000000000000000        0x0 /opt/Espressif/esp-open-sdk/sdk/lib/libnet80211.a(ieee80211_power.o)
 .data          0x0000000000000000        0x0 /opt/Espressif/esp-open-sdk/sdk/lib/libnet80211.a(ieee80211_power.o)
 .bss           0x0000000000000000        0x0 /opt/Espressif/esp-open-sdk/sdk/lib/libnet80211.a(ieee80211_power.o)
 .xt.lit        0x0000000000000000       0x20 /opt/Espressif/esp-open-sdk/sdk/lib/libnet80211.a(ieee80211_power.o)
 .xt.prop       0x0000000000000000      0x1bc /opt/Espressif/esp-open-sdk/sdk/lib/libnet80211.a(ieee80211_power.o)
 .irom0.literal
                0x0000000000000000        0x0 /opt/Espressif/esp-open-sdk/sdk/lib/libnet80211.a(ieee80211_proto.o)
 .text          0x0000000000000000        0x0 /opt/Espressif/esp-open-sdk/sdk/lib/libnet80211.a(ieee80211_proto.o)
 .bss           0x0000000000000000        0x0 /opt/Espressif/esp-open-sdk/sdk/lib/libnet80211.a(ieee80211_proto.o)
 .xt.lit        0x0000000000000000       0x20 /opt/Espressif/esp-open-sdk/sdk/lib/libnet80211.a(ieee80211_proto.o)
 .xt.prop       0x0000000000000000      0x1e0 /opt/Espressif/esp-open-sdk/sdk/lib/libnet80211.a(ieee80211_proto.o)
 .irom0.literal
                0x0000000000000000        0x0 /opt/Espressif/esp-open-sdk/sdk/lib/libnet80211.a(ieee80211_scan.o)
 .text          0x0000000000000000        0x0 /opt/Espressif/esp-open-sdk/sdk/lib/libnet80211.a(ieee80211_scan.o)
 .data          0x0000000000000000        0x0 /opt/Espressif/esp-open-sdk/sdk/lib/libnet80211.a(ieee80211_scan.o)
 .xt.lit        0x0000000000000000       0xd8 /opt/Espressif/esp-open-sdk/sdk/lib/libnet80211.a(ieee80211_scan.o)
 .xt.prop       0x0000000000000000      0xbf4 /opt/Espressif/esp-open-sdk/sdk/lib/libnet80211.a(ieee80211_scan.o)
 .irom0.literal
                0x0000000000000000        0x0 /opt/Espressif/esp-open-sdk/sdk/lib/libnet80211.a(ieee80211_sta.o)
 .text          0x0000000000000000        0x0 /opt/Espressif/esp-open-sdk/sdk/lib/libnet80211.a(ieee80211_sta.o)
 .data          0x0000000000000000        0x0 /opt/Espressif/esp-open-sdk/sdk/lib/libnet80211.a(ieee80211_sta.o)
 .bss           0x0000000000000000        0x0 /opt/Espressif/esp-open-sdk/sdk/lib/libnet80211.a(ieee80211_sta.o)
 .xt.lit        0x0000000000000000       0x50 /opt/Espressif/esp-open-sdk/sdk/lib/libnet80211.a(ieee80211_sta.o)
 .xt.prop       0x0000000000000000      0x8f4 /opt/Espressif/esp-open-sdk/sdk/lib/libnet80211.a(ieee80211_sta.o)
 .irom0.literal
                0x0000000000000000        0x0 /opt/Espressif/esp-open-sdk/sdk/lib/libnet80211.a(wl_chm.o)
 .literal       0x0000000000000000        0x0 /opt/Espressif/esp-open-sdk/sdk/lib/libnet80211.a(wl_chm.o)
 .data          0x0000000000000000        0x0 /opt/Espressif/esp-open-sdk/sdk/lib/libnet80211.a(wl_chm.o)
 .xt.lit        0x0000000000000000       0x60 /opt/Espressif/esp-open-sdk/sdk/lib/libnet80211.a(wl_chm.o)
 .xt.prop       0x0000000000000000      0x2dc /opt/Espressif/esp-open-sdk/sdk/lib/libnet80211.a(wl_chm.o)
 .irom0.literal
                0x0000000000000000        0x0 /opt/Espressif/esp-open-sdk/sdk/lib/libnet80211.a(wl_cnx.o)
 .text          0x0000000000000000        0x0 /opt/Espressif/esp-open-sdk/sdk/lib/libnet80211.a(wl_cnx.o)
 .data          0x0000000000000000        0x0 /opt/Espressif/esp-open-sdk/sdk/lib/libnet80211.a(wl_cnx.o)
 .xt.lit        0x0000000000000000       0xf8 /opt/Espressif/esp-open-sdk/sdk/lib/libnet80211.a(wl_cnx.o)
 .xt.prop       0x0000000000000000      0xf3c /opt/Espressif/esp-open-sdk/sdk/lib/libnet80211.a(wl_cnx.o)
 .irom0.literal
                0x0000000000000000        0x0 /opt/Espressif/esp-open-sdk/sdk/lib/libnet80211.a(ieee80211_action.o)
 .text          0x0000000000000000        0x0 /opt/Espressif/esp-open-sdk/sdk/lib/libnet80211.a(ieee80211_action.o)
 .bss           0x0000000000000000        0x0 /opt/Espressif/esp-open-sdk/sdk/lib/libnet80211.a(ieee80211_action.o)
 .xt.lit        0x0000000000000000       0x30 /opt/Espressif/esp-open-sdk/sdk/lib/libnet80211.a(ieee80211_action.o)
 .xt.prop       0x0000000000000000      0x33c /opt/Espressif/esp-open-sdk/sdk/lib/libnet80211.a(ieee80211_action.o)
 .irom0.literal
                0x0000000000000000        0x0 /opt/Espressif/esp-open-sdk/sdk/lib/libnet80211.a(ieee80211_action_vendor.o)
 .text          0x0000000000000000        0x0 /opt/Espressif/esp-open-sdk/sdk/lib/libnet80211.a(ieee80211_action_vendor.o)
 .data          0x0000000000000000        0x0 /opt/Espressif/esp-open-sdk/sdk/lib/libnet80211.a(ieee80211_action_vendor.o)
 .xt.lit        0x0000000000000000       0x50 /opt/Espressif/esp-open-sdk/sdk/lib/libnet80211.a(ieee80211_action_vendor.o)
 .xt.prop       0x0000000000000000      0x360 /opt/Espressif/esp-open-sdk/sdk/lib/libnet80211.a(ieee80211_action_vendor.o)
 .irom0.literal
                0x0000000000000000        0x0 /opt/Espressif/esp-open-sdk/sdk/lib/libnet80211.a(ieee80211_crypto_ccmp.o)
 .text          0x0000000000000000        0x0 /opt/Espressif/esp-open-sdk/sdk/lib/libnet80211.a(ieee80211_crypto_ccmp.o)
 .bss           0x0000000000000000        0x0 /opt/Espressif/esp-open-sdk/sdk/lib/libnet80211.a(ieee80211_crypto_ccmp.o)
 .xt.lit        0x0000000000000000        0x8 /opt/Espressif/esp-open-sdk/sdk/lib/libnet80211.a(ieee80211_crypto_ccmp.o)
 .xt.prop       0x0000000000000000       0xd8 /opt/Espressif/esp-open-sdk/sdk/lib/libnet80211.a(ieee80211_crypto_ccmp.o)
 .irom0.literal
                0x0000000000000000        0x0 /opt/Espressif/esp-open-sdk/sdk/lib/libnet80211.a(ieee80211_ie_vendor.o)
 .text          0x0000000000000000        0x0 /opt/Espressif/esp-open-sdk/sdk/lib/libnet80211.a(ieee80211_ie_vendor.o)
 .data          0x0000000000000000        0x0 /opt/Espressif/esp-open-sdk/sdk/lib/libnet80211.a(ieee80211_ie_vendor.o)
 .bss           0x0000000000000000        0x0 /opt/Espressif/esp-open-sdk/sdk/lib/libnet80211.a(ieee80211_ie_vendor.o)
 .xt.lit        0x0000000000000000       0x30 /opt/Espressif/esp-open-sdk/sdk/lib/libnet80211.a(ieee80211_ie_vendor.o)
 .xt.prop       0x0000000000000000       0xf0 /opt/Espressif/esp-open-sdk/sdk/lib/libnet80211.a(ieee80211_ie_vendor.o)
 .irom0.literal
                0x0000000000000000        0x0 /opt/Espressif/esp-open-sdk/sdk/lib/liblwip.a(dhcp.o)
 .text          0x0000000000000000        0x0 /opt/Espressif/esp-open-sdk/sdk/lib/liblwip.a(dhcp.o)
 .xt.lit        0x0000000000000000       0xc0 /opt/Espressif/esp-open-sdk/sdk/lib/liblwip.a(dhcp.o)
 .xt.prop       0x0000000000000000      0xd8c /opt/Espressif/esp-open-sdk/sdk/lib/liblwip.a(dhcp.o)
 .irom0.literal
                0x0000000000000000        0x0 /opt/Espressif/esp-open-sdk/sdk/lib/liblwip.a(dhcpserver.o)
 .text          0x0000000000000000        0x0 /opt/Espressif/esp-open-sdk/sdk/lib/liblwip.a(dhcpserver.o)
 .xt.lit        0x0000000000000000       0x78 /opt/Espressif/esp-open-sdk/sdk/lib/liblwip.a(dhcpserver.o)
 .xt.prop       0x0000000000000000      0x7a4 /opt/Espressif/esp-open-sdk/sdk/lib/liblwip.a(dhcpserver.o)
 .irom0.literal
                0x0000000000000000        0x0 /opt/Espressif/esp-open-sdk/sdk/lib/liblwip.a(dns.o)
 .text          0x0000000000000000        0x0 /opt/Espressif/esp-open-sdk/sdk/lib/liblwip.a(dns.o)
 .data          0x0000000000000000        0x0 /opt/Espressif/esp-open-sdk/sdk/lib/liblwip.a(dns.o)
 .xt.lit        0x0000000000000000       0x48 /opt/Espressif/esp-open-sdk/sdk/lib/liblwip.a(dns.o)
 .xt.prop       0x0000000000000000      0x480 /opt/Espressif/esp-open-sdk/sdk/lib/liblwip.a(dns.o)
 .irom0.literal
                0x0000000000000000        0x0 /opt/Espressif/esp-open-sdk/sdk/lib/liblwip.a(espconn_tcp.o)
 .text          0x0000000000000000        0x0 /opt/Espressif/esp-open-sdk/sdk/lib/liblwip.a(espconn_tcp.o)
 .data          0x0000000000000000        0x0 /opt/Espressif/esp-open-sdk/sdk/lib/liblwip.a(espconn_tcp.o)
 .xt.lit        0x0000000000000000       0xc0 /opt/Espressif/esp-open-sdk/sdk/lib/liblwip.a(espconn_tcp.o)
 .xt.prop       0x0000000000000000      0xcb4 /opt/Espressif/esp-open-sdk/sdk/lib/liblwip.a(espconn_tcp.o)
 .literal       0x0000000000000000        0x0 /opt/Espressif/esp-open-sdk/sdk/lib/liblwip.a(etharp.o)
 .irom0.literal
                0x0000000000000000        0x0 /opt/Espressif/esp-open-sdk/sdk/lib/liblwip.a(etharp.o)
 .data          0x0000000000000000        0x0 /opt/Espressif/esp-open-sdk/sdk/lib/liblwip.a(etharp.o)
 .xt.lit        0x0000000000000000       0x78 /opt/Espressif/esp-open-sdk/sdk/lib/liblwip.a(etharp.o)
 .xt.prop       0x0000000000000000      0x744 /opt/Espressif/esp-open-sdk/sdk/lib/liblwip.a(etharp.o)
 .irom0.literal
                0x0000000000000000        0x0 /opt/Espressif/esp-open-sdk/sdk/lib/liblwip.a(init.o)
 .text          0x0000000000000000        0x0 /opt/Espressif/esp-open-sdk/sdk/lib/liblwip.a(init.o)
 .data          0x0000000000000000        0x0 /opt/Espressif/esp-open-sdk/sdk/lib/liblwip.a(init.o)
 .bss           0x0000000000000000        0x0 /opt/Espressif/esp-open-sdk/sdk/lib/liblwip.a(init.o)
 .xt.lit        0x0000000000000000        0x8 /opt/Espressif/esp-open-sdk/sdk/lib/liblwip.a(init.o)
 .xt.prop       0x0000000000000000       0x24 /opt/Espressif/esp-open-sdk/sdk/lib/liblwip.a(init.o)
 .irom0.literal
                0x0000000000000000        0x0 /opt/Espressif/esp-open-sdk/sdk/lib/liblwip.a(ip_addr.o)
 .text          0x0000000000000000        0x0 /opt/Espressif/esp-open-sdk/sdk/lib/liblwip.a(ip_addr.o)
 .data          0x0000000000000000        0x0 /opt/Espressif/esp-open-sdk/sdk/lib/liblwip.a(ip_addr.o)
 .xt.lit        0x0000000000000000       0x20 /opt/Espressif/esp-open-sdk/sdk/lib/liblwip.a(ip_addr.o)
 .xt.prop       0x0000000000000000      0x33c /opt/Espressif/esp-open-sdk/sdk/lib/liblwip.a(ip_addr.o)
 .irom0.literal
                0x0000000000000000        0x0 /opt/Espressif/esp-open-sdk/sdk/lib/liblwip.a(ip.o)
 .text          0x0000000000000000        0x0 /opt/Espressif/esp-open-sdk/sdk/lib/liblwip.a(ip.o)
 .data          0x0000000000000000        0x0 /opt/Espressif/esp-open-sdk/sdk/lib/liblwip.a(ip.o)
 .xt.lit        0x0000000000000000       0x20 /opt/Espressif/esp-open-sdk/sdk/lib/liblwip.a(ip.o)
 .xt.prop       0x0000000000000000      0x480 /opt/Espressif/esp-open-sdk/sdk/lib/liblwip.a(ip.o)
 .text          0x0000000000000000        0x0 /opt/Espressif/esp-open-sdk/sdk/lib/liblwip.a(memp.o)
 .data          0x0000000000000000        0x2 /opt/Espressif/esp-open-sdk/sdk/lib/liblwip.a(memp.o)
 .bss           0x0000000000000000        0x0 /opt/Espressif/esp-open-sdk/sdk/lib/liblwip.a(memp.o)
 .xt.prop       0x0000000000000000       0x18 /opt/Espressif/esp-open-sdk/sdk/lib/liblwip.a(memp.o)
 .irom0.literal
                0x0000000000000000        0x0 /opt/Espressif/esp-open-sdk/sdk/lib/liblwip.a(netif.o)
 .text          0x0000000000000000        0x0 /opt/Espressif/esp-open-sdk/sdk/lib/liblwip.a(netif.o)
 .data          0x0000000000000000        0x0 /opt/Espressif/esp-open-sdk/sdk/lib/liblwip.a(netif.o)
 .xt.lit        0x0000000000000000       0x40 /opt/Espressif/esp-open-sdk/sdk/lib/liblwip.a(netif.o)
 .xt.prop       0x0000000000000000      0x354 /opt/Espressif/esp-open-sdk/sdk/lib/liblwip.a(netif.o)
 .irom0.literal
                0x0000000000000000        0x0 /opt/Espressif/esp-open-sdk/sdk/lib/liblwip.a(pbuf.o)
 .text          0x0000000000000000        0x0 /opt/Espressif/esp-open-sdk/sdk/lib/liblwip.a(pbuf.o)
 .data          0x0000000000000000        0x0 /opt/Espressif/esp-open-sdk/sdk/lib/liblwip.a(pbuf.o)
 .bss           0x0000000000000000        0x0 /opt/Espressif/esp-open-sdk/sdk/lib/liblwip.a(pbuf.o)
 .xt.lit        0x0000000000000000       0x40 /opt/Espressif/esp-open-sdk/sdk/lib/liblwip.a(pbuf.o)
 .xt.prop       0x0000000000000000      0x720 /opt/Espressif/esp-open-sdk/sdk/lib/liblwip.a(pbuf.o)
 .irom0.literal
                0x0000000000000000        0x0 /opt/Espressif/esp-open-sdk/sdk/lib/liblwip.a(raw.o)
 .text          0x0000000000000000        0x0 /opt/Espressif/esp-open-sdk/sdk/lib/liblwip.a(raw.o)
 .data          0x0000000000000000        0x0 /opt/Espressif/esp-open-sdk/sdk/lib/liblwip.a(raw.o)
 .xt.lit        0x0000000000000000       0x20 /opt/Espressif/esp-open-sdk/sdk/lib/liblwip.a(raw.o)
 .xt.prop       0x0000000000000000      0x2a0 /opt/Espressif/esp-open-sdk/sdk/lib/liblwip.a(raw.o)
 .irom0.literal
                0x0000000000000000        0x0 /opt/Espressif/esp-open-sdk/sdk/lib/liblwip.a(sntp.o)
 .literal       0x0000000000000000        0x0 /opt/Espressif/esp-open-sdk/sdk/lib/liblwip.a(sntp.o)
 .xt.lit        0x0000000000000000       0xc0 /opt/Espressif/esp-open-sdk/sdk/lib/liblwip.a(sntp.o)
 .xt.prop       0x0000000000000000      0x8dc /opt/Espressif/esp-open-sdk/sdk/lib/liblwip.a(sntp.o)
 .irom0.literal
                0x0000000000000000        0x0 /opt/Espressif/esp-open-sdk/sdk/lib/liblwip.a(tcp_in.o)
 .text          0x0000000000000000        0x0 /opt/Espressif/esp-open-sdk/sdk/lib/liblwip.a(tcp_in.o)
 .data          0x0000000000000000        0x0 /opt/Espressif/esp-open-sdk/sdk/lib/liblwip.a(tcp_in.o)
 .xt.lit        0x0000000000000000       0x30 /opt/Espressif/esp-open-sdk/sdk/lib/liblwip.a(tcp_in.o)
 .xt.prop       0x0000000000000000      0xb04 /opt/Espressif/esp-open-sdk/sdk/lib/liblwip.a(tcp_in.o)
 .irom0.literal
                0x0000000000000000        0x0 /opt/Espressif/esp-open-sdk/sdk/lib/liblwip.a(tcp.o)
 .literal       0x0000000000000000        0x0 /opt/Espressif/esp-open-sdk/sdk/lib/liblwip.a(tcp.o)
 .xt.lit        0x0000000000000000       0xb0 /opt/Espressif/esp-open-sdk/sdk/lib/liblwip.a(tcp.o)
 .xt.prop       0x0000000000000000      0xd20 /opt/Espressif/esp-open-sdk/sdk/lib/liblwip.a(tcp.o)
 .irom0.literal
                0x0000000000000000        0x0 /opt/Espressif/esp-open-sdk/sdk/lib/liblwip.a(tcp_out.o)
 .literal       0x0000000000000000        0x0 /opt/Espressif/esp-open-sdk/sdk/lib/liblwip.a(tcp_out.o)
 .data          0x0000000000000000        0x0 /opt/Espressif/esp-open-sdk/sdk/lib/liblwip.a(tcp_out.o)
 .bss           0x0000000000000000        0x0 /opt/Espressif/esp-open-sdk/sdk/lib/liblwip.a(tcp_out.o)
 .xt.lit        0x0000000000000000       0x68 /opt/Espressif/esp-open-sdk/sdk/lib/liblwip.a(tcp_out.o)
 .xt.prop       0x0000000000000000      0x8b8 /opt/Espressif/esp-open-sdk/sdk/lib/liblwip.a(tcp_out.o)
 .irom0.literal
                0x0000000000000000        0x0 /opt/Espressif/esp-open-sdk/sdk/lib/liblwip.a(timers.o)
 .literal       0x0000000000000000        0x0 /opt/Espressif/esp-open-sdk/sdk/lib/liblwip.a(timers.o)
 .data          0x0000000000000000        0x0 /opt/Espressif/esp-open-sdk/sdk/lib/liblwip.a(timers.o)
 .xt.lit        0x0000000000000000       0x68 /opt/Espressif/esp-open-sdk/sdk/lib/liblwip.a(timers.o)
 .xt.prop       0x0000000000000000      0x378 /opt/Espressif/esp-open-sdk/sdk/lib/liblwip.a(timers.o)
 .irom0.literal
                0x0000000000000000        0x0 /opt/Espressif/esp-open-sdk/sdk/lib/liblwip.a(udp.o)
 .text          0x0000000000000000        0x0 /opt/Espressif/esp-open-sdk/sdk/lib/liblwip.a(udp.o)
 .data          0x0000000000000000        0x0 /opt/Espressif/esp-open-sdk/sdk/lib/liblwip.a(udp.o)
 .xt.lit        0x0000000000000000       0x38 /opt/Espressif/esp-open-sdk/sdk/lib/liblwip.a(udp.o)
 .xt.prop       0x0000000000000000      0x5ac /opt/Espressif/esp-open-sdk/sdk/lib/liblwip.a(udp.o)
 .irom0.literal
                0x0000000000000000        0x0 /opt/Espressif/esp-open-sdk/sdk/lib/liblwip.a(espconn.o)
 .text          0x0000000000000000        0x0 /opt/Espressif/esp-open-sdk/sdk/lib/liblwip.a(espconn.o)
 .data          0x0000000000000000        0x0 /opt/Espressif/esp-open-sdk/sdk/lib/liblwip.a(espconn.o)
 .xt.lit        0x0000000000000000       0xb0 /opt/Espressif/esp-open-sdk/sdk/lib/liblwip.a(espconn.o)
 .xt.prop       0x0000000000000000      0xd08 /opt/Espressif/esp-open-sdk/sdk/lib/liblwip.a(espconn.o)
 .irom0.literal
                0x0000000000000000        0x0 /opt/Espressif/esp-open-sdk/sdk/lib/liblwip.a(espconn_udp.o)
 .text          0x0000000000000000        0x0 /opt/Espressif/esp-open-sdk/sdk/lib/liblwip.a(espconn_udp.o)
 .data          0x0000000000000000        0x0 /opt/Espressif/esp-open-sdk/sdk/lib/liblwip.a(espconn_udp.o)
 .bss           0x0000000000000000        0x0 /opt/Espressif/esp-open-sdk/sdk/lib/liblwip.a(espconn_udp.o)
 .xt.lit        0x0000000000000000       0x80 /opt/Espressif/esp-open-sdk/sdk/lib/liblwip.a(espconn_udp.o)
 .xt.prop       0x0000000000000000      0x39c /opt/Espressif/esp-open-sdk/sdk/lib/liblwip.a(espconn_udp.o)
 .irom0.literal
                0x0000000000000000        0x0 /opt/Espressif/esp-open-sdk/sdk/lib/liblwip.a(icmp.o)
 .text          0x0000000000000000        0x0 /opt/Espressif/esp-open-sdk/sdk/lib/liblwip.a(icmp.o)
 .data          0x0000000000000000        0x0 /opt/Espressif/esp-open-sdk/sdk/lib/liblwip.a(icmp.o)
 .bss           0x0000000000000000        0x0 /opt/Espressif/esp-open-sdk/sdk/lib/liblwip.a(icmp.o)
 .xt.lit        0x0000000000000000       0x10 /opt/Espressif/esp-open-sdk/sdk/lib/liblwip.a(icmp.o)
 .xt.prop       0x0000000000000000      0x114 /opt/Espressif/esp-open-sdk/sdk/lib/liblwip.a(icmp.o)
 .irom0.literal
                0x0000000000000000        0x0 /opt/Espressif/esp-open-sdk/sdk/lib/liblwip.a(igmp.o)
 .text          0x0000000000000000        0x0 /opt/Espressif/esp-open-sdk/sdk/lib/liblwip.a(igmp.o)
 .data          0x0000000000000000        0x0 /opt/Espressif/esp-open-sdk/sdk/lib/liblwip.a(igmp.o)
 .xt.lit        0x0000000000000000       0x70 /opt/Espressif/esp-open-sdk/sdk/lib/liblwip.a(igmp.o)
 .xt.prop       0x0000000000000000      0x63c /opt/Espressif/esp-open-sdk/sdk/lib/liblwip.a(igmp.o)
 .irom0.literal
                0x0000000000000000        0x0 /opt/Espressif/esp-open-sdk/sdk/lib/liblwip.a(inet_chksum.o)
 .text          0x0000000000000000        0x0 /opt/Espressif/esp-open-sdk/sdk/lib/liblwip.a(inet_chksum.o)
 .data          0x0000000000000000        0x0 /opt/Espressif/esp-open-sdk/sdk/lib/liblwip.a(inet_chksum.o)
 .bss           0x0000000000000000        0x0 /opt/Espressif/esp-open-sdk/sdk/lib/liblwip.a(inet_chksum.o)
 .xt.prop       0x0000000000000000      0x168 /opt/Espressif/esp-open-sdk/sdk/lib/liblwip.a(inet_chksum.o)
 .irom0.literal
                0x0000000000000000        0x0 /opt/Espressif/esp-open-sdk/sdk/lib/liblwip.a(mdns.o)
 .text          0x0000000000000000        0x0 /opt/Espressif/esp-open-sdk/sdk/lib/liblwip.a(mdns.o)
 .data          0x0000000000000000        0x0 /opt/Espressif/esp-open-sdk/sdk/lib/liblwip.a(mdns.o)
 .xt.lit        0x0000000000000000       0x80 /opt/Espressif/esp-open-sdk/sdk/lib/liblwip.a(mdns.o)
 .xt.prop       0x0000000000000000      0x9cc /opt/Espressif/esp-open-sdk/sdk/lib/liblwip.a(mdns.o)
 .irom0.literal
                0x0000000000000000        0x0 /opt/Espressif/esp-open-sdk/sdk/lib/libwpa.a(ap_config.o)
 .text          0x0000000000000000        0x0 /opt/Espressif/esp-open-sdk/sdk/lib/libwpa.a(ap_config.o)
 .data          0x0000000000000000        0x0 /opt/Espressif/esp-open-sdk/sdk/lib/libwpa.a(ap_config.o)
 .bss           0x0000000000000000        0x0 /opt/Espressif/esp-open-sdk/sdk/lib/libwpa.a(ap_config.o)
 .xt.lit        0x0000000000000000       0x40 /opt/Espressif/esp-open-sdk/sdk/lib/libwpa.a(ap_config.o)
 .xt.prop       0x0000000000000000      0x2e8 /opt/Espressif/esp-open-sdk/sdk/lib/libwpa.a(ap_config.o)
 .irom0.literal
                0x0000000000000000        0x0 /opt/Espressif/esp-open-sdk/sdk/lib/libwpa.a(common.o)
 .text          0x0000000000000000        0x0 /opt/Espressif/esp-open-sdk/sdk/lib/libwpa.a(common.o)
 .data          0x0000000000000000        0x0 /opt/Espressif/esp-open-sdk/sdk/lib/libwpa.a(common.o)
 .bss           0x0000000000000000        0x0 /opt/Espressif/esp-open-sdk/sdk/lib/libwpa.a(common.o)
 .xt.lit        0x0000000000000000       0x10 /opt/Espressif/esp-open-sdk/sdk/lib/libwpa.a(common.o)
 .xt.prop       0x0000000000000000      0x1c8 /opt/Espressif/esp-open-sdk/sdk/lib/libwpa.a(common.o)
 .irom0.literal
                0x0000000000000000        0x0 /opt/Espressif/esp-open-sdk/sdk/lib/libwpa.a(os_xtensa.o)
 .text          0x0000000000000000        0x0 /opt/Espressif/esp-open-sdk/sdk/lib/libwpa.a(os_xtensa.o)
 .data          0x0000000000000000        0x0 /opt/Espressif/esp-open-sdk/sdk/lib/libwpa.a(os_xtensa.o)
 .bss           0x0000000000000000        0x0 /opt/Espressif/esp-open-sdk/sdk/lib/libwpa.a(os_xtensa.o)
 .xt.lit        0x0000000000000000       0x10 /opt/Espressif/esp-open-sdk/sdk/lib/libwpa.a(os_xtensa.o)
 .xt.prop       0x0000000000000000       0xf0 /opt/Espressif/esp-open-sdk/sdk/lib/libwpa.a(os_xtensa.o)
 .literal       0x0000000000000000        0x0 /opt/Espressif/esp-open-sdk/sdk/lib/libwpa.a(wpa_auth.o)
 .irom0.literal
                0x0000000000000000        0x0 /opt/Espressif/esp-open-sdk/sdk/lib/libwpa.a(wpa_auth.o)
 .data          0x0000000000000000        0x0 /opt/Espressif/esp-open-sdk/sdk/lib/libwpa.a(wpa_auth.o)
 .bss           0x0000000000000000        0x0 /opt/Espressif/esp-open-sdk/sdk/lib/libwpa.a(wpa_auth.o)
 .xt.lit        0x0000000000000000      0x100 /opt/Espressif/esp-open-sdk/sdk/lib/libwpa.a(wpa_auth.o)
 .xt.prop       0x0000000000000000     0x15d8 /opt/Espressif/esp-open-sdk/sdk/lib/libwpa.a(wpa_auth.o)
 .irom0.literal
                0x0000000000000000        0x0 /opt/Espressif/esp-open-sdk/sdk/lib/libwpa.a(wpa_auth_ie.o)
 .text          0x0000000000000000        0x0 /opt/Espressif/esp-open-sdk/sdk/lib/libwpa.a(wpa_auth_ie.o)
 .data          0x0000000000000000        0x0 /opt/Espressif/esp-open-sdk/sdk/lib/libwpa.a(wpa_auth_ie.o)
 .bss           0x0000000000000000        0x0 /opt/Espressif/esp-open-sdk/sdk/lib/libwpa.a(wpa_auth_ie.o)
 .xt.lit        0x0000000000000000       0x38 /opt/Espressif/esp-open-sdk/sdk/lib/libwpa.a(wpa_auth_ie.o)
 .xt.prop       0x0000000000000000      0x480 /opt/Espressif/esp-open-sdk/sdk/lib/libwpa.a(wpa_auth_ie.o)
 .irom0.literal
                0x0000000000000000        0x0 /opt/Espressif/esp-open-sdk/sdk/lib/libwpa.a(wpa.o)
 .text          0x0000000000000000        0x0 /opt/Espressif/esp-open-sdk/sdk/lib/libwpa.a(wpa.o)
 .data          0x0000000000000000        0x0 /opt/Espressif/esp-open-sdk/sdk/lib/libwpa.a(wpa.o)
 .xt.lit        0x0000000000000000      0x110 /opt/Espressif/esp-open-sdk/sdk/lib/libwpa.a(wpa.o)
 .xt.prop       0x0000000000000000      0xd80 /opt/Espressif/esp-open-sdk/sdk/lib/libwpa.a(wpa.o)
 .irom0.literal
                0x0000000000000000        0x0 /opt/Espressif/esp-open-sdk/sdk/lib/libwpa.a(wpa_common.o)
 .text          0x0000000000000000        0x0 /opt/Espressif/esp-open-sdk/sdk/lib/libwpa.a(wpa_common.o)
 .data          0x0000000000000000        0x0 /opt/Espressif/esp-open-sdk/sdk/lib/libwpa.a(wpa_common.o)
 .bss           0x0000000000000000        0x0 /opt/Espressif/esp-open-sdk/sdk/lib/libwpa.a(wpa_common.o)
 .xt.lit        0x0000000000000000       0x58 /opt/Espressif/esp-open-sdk/sdk/lib/libwpa.a(wpa_common.o)
 .xt.prop       0x0000000000000000      0x798 /opt/Espressif/esp-open-sdk/sdk/lib/libwpa.a(wpa_common.o)
 .irom0.literal
                0x0000000000000000        0x0 /opt/Espressif/esp-open-sdk/sdk/lib/libwpa.a(wpa_debug.o)
 .text          0x0000000000000000        0x0 /opt/Espressif/esp-open-sdk/sdk/lib/libwpa.a(wpa_debug.o)
 .data          0x0000000000000000        0x0 /opt/Espressif/esp-open-sdk/sdk/lib/libwpa.a(wpa_debug.o)
 .bss           0x0000000000000000        0x0 /opt/Espressif/esp-open-sdk/sdk/lib/libwpa.a(wpa_debug.o)
 .xt.lit        0x0000000000000000        0x8 /opt/Espressif/esp-open-sdk/sdk/lib/libwpa.a(wpa_debug.o)
 .xt.prop       0x0000000000000000       0xc0 /opt/Espressif/esp-open-sdk/sdk/lib/libwpa.a(wpa_debug.o)
 .irom0.literal
                0x0000000000000000        0x0 /opt/Espressif/esp-open-sdk/sdk/lib/libwpa.a(wpa_ie.o)
 .text          0x0000000000000000        0x0 /opt/Espressif/esp-open-sdk/sdk/lib/libwpa.a(wpa_ie.o)
 .data          0x0000000000000000        0x0 /opt/Espressif/esp-open-sdk/sdk/lib/libwpa.a(wpa_ie.o)
 .bss           0x0000000000000000        0x0 /opt/Espressif/esp-open-sdk/sdk/lib/libwpa.a(wpa_ie.o)
 .xt.lit        0x0000000000000000       0x18 /opt/Espressif/esp-open-sdk/sdk/lib/libwpa.a(wpa_ie.o)
 .xt.prop       0x0000000000000000      0x378 /opt/Espressif/esp-open-sdk/sdk/lib/libwpa.a(wpa_ie.o)
 .irom0.literal
                0x0000000000000000        0x0 /opt/Espressif/esp-open-sdk/sdk/lib/libwpa.a(wpa_main.o)
 .text          0x0000000000000000        0x0 /opt/Espressif/esp-open-sdk/sdk/lib/libwpa.a(wpa_main.o)
 .data          0x0000000000000000        0x0 /opt/Espressif/esp-open-sdk/sdk/lib/libwpa.a(wpa_main.o)
 .bss           0x0000000000000000        0x0 /opt/Espressif/esp-open-sdk/sdk/lib/libwpa.a(wpa_main.o)
 .xt.lit        0x0000000000000000       0x48 /opt/Espressif/esp-open-sdk/sdk/lib/libwpa.a(wpa_main.o)
 .xt.prop       0x0000000000000000      0x330 /opt/Espressif/esp-open-sdk/sdk/lib/libwpa.a(wpa_main.o)
 .irom0.literal
                0x0000000000000000        0x0 /opt/Espressif/esp-open-sdk/sdk/lib/libwpa.a(wpas_glue.o)
 .text          0x0000000000000000        0x0 /opt/Espressif/esp-open-sdk/sdk/lib/libwpa.a(wpas_glue.o)
 .data          0x0000000000000000        0x0 /opt/Espressif/esp-open-sdk/sdk/lib/libwpa.a(wpas_glue.o)
 .bss           0x0000000000000000        0x0 /opt/Espressif/esp-open-sdk/sdk/lib/libwpa.a(wpas_glue.o)
 .xt.lit        0x0000000000000000       0x10 /opt/Espressif/esp-open-sdk/sdk/lib/libwpa.a(wpas_glue.o)
 .xt.prop       0x0000000000000000      0x12c /opt/Espressif/esp-open-sdk/sdk/lib/libwpa.a(wpas_glue.o)
 .irom0.literal
                0x0000000000000000        0x0 /opt/Espressif/esp-open-sdk/sdk/lib/libwpa.a(aes-wrap.o)
 .text          0x0000000000000000        0x0 /opt/Espressif/esp-open-sdk/sdk/lib/libwpa.a(aes-wrap.o)
 .data          0x0000000000000000        0x0 /opt/Espressif/esp-open-sdk/sdk/lib/libwpa.a(aes-wrap.o)
 .bss           0x0000000000000000        0x0 /opt/Espressif/esp-open-sdk/sdk/lib/libwpa.a(aes-wrap.o)
 .xt.lit        0x0000000000000000        0x8 /opt/Espressif/esp-open-sdk/sdk/lib/libwpa.a(aes-wrap.o)
 .xt.prop       0x0000000000000000       0x6c /opt/Espressif/esp-open-sdk/sdk/lib/libwpa.a(aes-wrap.o)
 .irom0.literal
                0x0000000000000000        0x0 /opt/Espressif/esp-open-sdk/sdk/lib/libwpa.a(aes-internal-enc.o)
 .text          0x0000000000000000        0x0 /opt/Espressif/esp-open-sdk/sdk/lib/libwpa.a(aes-internal-enc.o)
 .data          0x0000000000000000        0x0 /opt/Espressif/esp-open-sdk/sdk/lib/libwpa.a(aes-internal-enc.o)
 .bss           0x0000000000000000        0x0 /opt/Espressif/esp-open-sdk/sdk/lib/libwpa.a(aes-internal-enc.o)
 .xt.lit        0x0000000000000000       0x18 /opt/Espressif/esp-open-sdk/sdk/lib/libwpa.a(aes-internal-enc.o)
 .xt.prop       0x0000000000000000       0xd8 /opt/Espressif/esp-open-sdk/sdk/lib/libwpa.a(aes-internal-enc.o)
 .data          0x0000000000000000        0x0 /opt/Espressif/esp-open-sdk/xtensa-lx106-elf/lib/gcc/xtensa-lx106-elf/4.8.2/../../../../xtensa-lx106-elf/lib/libm.a(lib_a-s_floor.o)
 .bss           0x0000000000000000        0x0 /opt/Espressif/esp-open-sdk/xtensa-lx106-elf/lib/gcc/xtensa-lx106-elf/4.8.2/../../../../xtensa-lx106-elf/lib/libm.a(lib_a-s_floor.o)
 .xt.lit        0x0000000000000000        0x8 /opt/Espressif/esp-open-sdk/xtensa-lx106-elf/lib/gcc/xtensa-lx106-elf/4.8.2/../../../../xtensa-lx106-elf/lib/libm.a(lib_a-s_floor.o)
 .xt.prop       0x0000000000000000       0xd8 /opt/Espressif/esp-open-sdk/xtensa-lx106-elf/lib/gcc/xtensa-lx106-elf/4.8.2/../../../../xtensa-lx106-elf/lib/libm.a(lib_a-s_floor.o)
 .data          0x0000000000000000        0x0 /opt/Espressif/esp-open-sdk/xtensa-lx106-elf/lib/gcc/xtensa-lx106-elf/4.8.2/../../../../xtensa-lx106-elf/lib/libm.a(lib_a-s_frexp.o)
 .bss           0x0000000000000000        0x0 /opt/Espressif/esp-open-sdk/xtensa-lx106-elf/lib/gcc/xtensa-lx106-elf/4.8.2/../../../../xtensa-lx106-elf/lib/libm.a(lib_a-s_frexp.o)
 .xt.lit        0x0000000000000000        0x8 /opt/Espressif/esp-open-sdk/xtensa-lx106-elf/lib/gcc/xtensa-lx106-elf/4.8.2/../../../../xtensa-lx106-elf/lib/libm.a(lib_a-s_frexp.o)
 .xt.prop       0x0000000000000000       0x3c /opt/Espressif/esp-open-sdk/xtensa-lx106-elf/lib/gcc/xtensa-lx106-elf/4.8.2/../../../../xtensa-lx106-elf/lib/libm.a(lib_a-s_frexp.o)
 .data          0x0000000000000000        0x0 /opt/Espressif/esp-open-sdk/xtensa-lx106-elf/lib/gcc/xtensa-lx106-elf/4.8.2/../../../../xtensa-lx106-elf/lib/libm.a(lib_a-s_modf.o)
 .bss           0x0000000000000000        0x0 /opt/Espressif/esp-open-sdk/xtensa-lx106-elf/lib/gcc/xtensa-lx106-elf/4.8.2/../../../../xtensa-lx106-elf/lib/libm.a(lib_a-s_modf.o)
 .xt.lit        0x0000000000000000        0x8 /opt/Espressif/esp-open-sdk/xtensa-lx106-elf/lib/gcc/xtensa-lx106-elf/4.8.2/../../../../xtensa-lx106-elf/lib/libm.a(lib_a-s_modf.o)
 .xt.prop       0x0000000000000000       0xa8 /opt/Espressif/esp-open-sdk/xtensa-lx106-elf/lib/gcc/xtensa-lx106-elf/4.8.2/../../../../xtensa-lx106-elf/lib/libm.a(lib_a-s_modf.o)
 .data          0x0000000000000000        0x0 /opt/Espressif/esp-open-sdk/xtensa-lx106-elf/lib/gcc/xtensa-lx106-elf/4.8.2/libgcc.a(_ashrdi3.o)
 .bss           0x0000000000000000        0x0 /opt/Espressif/esp-open-sdk/xtensa-lx106-elf/lib/gcc/xtensa-lx106-elf/4.8.2/libgcc.a(_ashrdi3.o)
 .xt.prop       0x0000000000000000       0x3c /opt/Espressif/esp-open-sdk/xtensa-lx106-elf/lib/gcc/xtensa-lx106-elf/4.8.2/libgcc.a(_ashrdi3.o)
 .data          0x0000000000000000        0x0 /opt/Espressif/esp-open-sdk/xtensa-lx106-elf/lib/gcc/xtensa-lx106-elf/4.8.2/libgcc.a(_addsubsf3.o)
 .bss           0x0000000000000000        0x0 /opt/Espressif/esp-open-sdk/xtensa-lx106-elf/lib/gcc/xtensa-lx106-elf/4.8.2/libgcc.a(_addsubsf3.o)
 .xt.lit        0x0000000000000000        0x8 /opt/Espressif/esp-open-sdk/xtensa-lx106-elf/lib/gcc/xtensa-lx106-elf/4.8.2/libgcc.a(_addsubsf3.o)
 .xt.prop       0x0000000000000000      0x2e8 /opt/Espressif/esp-open-sdk/xtensa-lx106-elf/lib/gcc/xtensa-lx106-elf/4.8.2/libgcc.a(_addsubsf3.o)
 .data          0x0000000000000000        0x0 /opt/Espressif/esp-open-sdk/xtensa-lx106-elf/lib/gcc/xtensa-lx106-elf/4.8.2/libgcc.a(_mulsf3.o)
 .bss           0x0000000000000000        0x0 /opt/Espressif/esp-open-sdk/xtensa-lx106-elf/lib/gcc/xtensa-lx106-elf/4.8.2/libgcc.a(_mulsf3.o)
 .xt.lit        0x0000000000000000        0x8 /opt/Espressif/esp-open-sdk/xtensa-lx106-elf/lib/gcc/xtensa-lx106-elf/4.8.2/libgcc.a(_mulsf3.o)
 .xt.prop       0x0000000000000000      0x168 /opt/Espressif/esp-open-sdk/xtensa-lx106-elf/lib/gcc/xtensa-lx106-elf/4.8.2/libgcc.a(_mulsf3.o)
 .data          0x0000000000000000        0x0 /opt/Espressif/esp-open-sdk/xtensa-lx106-elf/lib/gcc/xtensa-lx106-elf/4.8.2/libgcc.a(_divsf3.o)
 .bss           0x0000000000000000        0x0 /opt/Espressif/esp-open-sdk/xtensa-lx106-elf/lib/gcc/xtensa-lx106-elf/4.8.2/libgcc.a(_divsf3.o)
 .xt.lit        0x0000000000000000        0x8 /opt/Espressif/esp-open-sdk/xtensa-lx106-elf/lib/gcc/xtensa-lx106-elf/4.8.2/libgcc.a(_divsf3.o)
 .xt.prop       0x0000000000000000      0x168 /opt/Espressif/esp-open-sdk/xtensa-lx106-elf/lib/gcc/xtensa-lx106-elf/4.8.2/libgcc.a(_divsf3.o)
 .data          0x0000000000000000        0x0 /opt/Espressif/esp-open-sdk/xtensa-lx106-elf/lib/gcc/xtensa-lx106-elf/4.8.2/libgcc.a(_fixsfsi.o)
 .bss           0x0000000000000000        0x0 /opt/Espressif/esp-open-sdk/xtensa-lx106-elf/lib/gcc/xtensa-lx106-elf/4.8.2/libgcc.a(_fixsfsi.o)
 .xt.lit        0x0000000000000000        0x8 /opt/Espressif/esp-open-sdk/xtensa-lx106-elf/lib/gcc/xtensa-lx106-elf/4.8.2/libgcc.a(_fixsfsi.o)
 .xt.prop       0x0000000000000000       0x6c /opt/Espressif/esp-open-sdk/xtensa-lx106-elf/lib/gcc/xtensa-lx106-elf/4.8.2/libgcc.a(_fixsfsi.o)
 .data          0x0000000000000000        0x0 /opt/Espressif/esp-open-sdk/xtensa-lx106-elf/lib/gcc/xtensa-lx106-elf/4.8.2/libgcc.a(_fixunssfsi.o)
 .bss           0x0000000000000000        0x0 /opt/Espressif/esp-open-sdk/xtensa-lx106-elf/lib/gcc/xtensa-lx106-elf/4.8.2/libgcc.a(_fixunssfsi.o)
 .xt.lit        0x0000000000000000        0x8 /opt/Espressif/esp-open-sdk/xtensa-lx106-elf/lib/gcc/xtensa-lx106-elf/4.8.2/libgcc.a(_fixunssfsi.o)
 .xt.prop       0x0000000000000000       0xa8 /opt/Espressif/esp-open-sdk/xtensa-lx106-elf/lib/gcc/xtensa-lx106-elf/4.8.2/libgcc.a(_fixunssfsi.o)
 .data          0x0000000000000000        0x0 /opt/Espressif/esp-open-sdk/xtensa-lx106-elf/lib/gcc/xtensa-lx106-elf/4.8.2/libgcc.a(_floatsisf.o)
 .bss           0x0000000000000000        0x0 /opt/Espressif/esp-open-sdk/xtensa-lx106-elf/lib/gcc/xtensa-lx106-elf/4.8.2/libgcc.a(_floatsisf.o)
 .xt.prop       0x0000000000000000       0x60 /opt/Espressif/esp-open-sdk/xtensa-lx106-elf/lib/gcc/xtensa-lx106-elf/4.8.2/libgcc.a(_floatsisf.o)
 .data          0x0000000000000000        0x0 /opt/Espressif/esp-open-sdk/xtensa-lx106-elf/lib/gcc/xtensa-lx106-elf/4.8.2/libgcc.a(_popcountsi2.o)
 .bss           0x0000000000000000        0x0 /opt/Espressif/esp-open-sdk/xtensa-lx106-elf/lib/gcc/xtensa-lx106-elf/4.8.2/libgcc.a(_popcountsi2.o)
 .xt.lit        0x0000000000000000        0x8 /opt/Espressif/esp-open-sdk/xtensa-lx106-elf/lib/gcc/xtensa-lx106-elf/4.8.2/libgcc.a(_popcountsi2.o)
 .xt.prop       0x0000000000000000       0x3c /opt/Espressif/esp-open-sdk/xtensa-lx106-elf/lib/gcc/xtensa-lx106-elf/4.8.2/libgcc.a(_popcountsi2.o)
 .data          0x0000000000000000        0x0 /opt/Espressif/esp-open-sdk/xtensa-lx106-elf/lib/gcc/xtensa-lx106-elf/4.8.2/libgcc.a(_divdi3.o)
 .bss           0x0000000000000000        0x0 /opt/Espressif/esp-open-sdk/xtensa-lx106-elf/lib/gcc/xtensa-lx106-elf/4.8.2/libgcc.a(_divdi3.o)
 .eh_frame      0x0000000000000000       0x38 /opt/Espressif/esp-open-sdk/xtensa-lx106-elf/lib/gcc/xtensa-lx106-elf/4.8.2/libgcc.a(_divdi3.o)
 .xt.lit        0x0000000000000000        0x8 /opt/Espressif/esp-open-sdk/xtensa-lx106-elf/lib/gcc/xtensa-lx106-elf/4.8.2/libgcc.a(_divdi3.o)
 .xt.prop       0x0000000000000000      0x204 /opt/Espressif/esp-open-sdk/xtensa-lx106-elf/lib/gcc/xtensa-lx106-elf/4.8.2/libgcc.a(_divdi3.o)
 .data          0x0000000000000000        0x0 /opt/Espressif/esp-open-sdk/xtensa-lx106-elf/lib/gcc/xtensa-lx106-elf/4.8.2/libgcc.a(_umoddi3.o)
 .bss           0x0000000000000000        0x0 /opt/Espressif/esp-open-sdk/xtensa-lx106-elf/lib/gcc/xtensa-lx106-elf/4.8.2/libgcc.a(_umoddi3.o)
 .eh_frame      0x0000000000000000       0x3c /opt/Espressif/esp-open-sdk/xtensa-lx106-elf/lib/gcc/xtensa-lx106-elf/4.8.2/libgcc.a(_umoddi3.o)
 .xt.lit        0x0000000000000000        0x8 /opt/Espressif/esp-open-sdk/xtensa-lx106-elf/lib/gcc/xtensa-lx106-elf/4.8.2/libgcc.a(_umoddi3.o)
 .xt.prop       0x0000000000000000      0x150 /opt/Espressif/esp-open-sdk/xtensa-lx106-elf/lib/gcc/xtensa-lx106-elf/4.8.2/libgcc.a(_umoddi3.o)
 .text          0x0000000000000000        0x0 /opt/Espressif/esp-open-sdk/xtensa-lx106-elf/lib/gcc/xtensa-lx106-elf/4.8.2/libgcc.a(_popcount_tab.o)
 .data          0x0000000000000000        0x0 /opt/Espressif/esp-open-sdk/xtensa-lx106-elf/lib/gcc/xtensa-lx106-elf/4.8.2/libgcc.a(_popcount_tab.o)
 .bss           0x0000000000000000        0x0 /opt/Espressif/esp-open-sdk/xtensa-lx106-elf/lib/gcc/xtensa-lx106-elf/4.8.2/libgcc.a(_popcount_tab.o)
 .xt.prop       0x0000000000000000        0xc /opt/Espressif/esp-open-sdk/xtensa-lx106-elf/lib/gcc/xtensa-lx106-elf/4.8.2/libgcc.a(_popcount_tab.o)
 .irom0.literal
                0x0000000000000000        0x0 /opt/Espressif/esp-open-sdk/sdk/lib/libnet80211.a(ieee80211_crypto_tkip.o)
 .text          0x0000000000000000        0x0 /opt/Espressif/esp-open-sdk/sdk/lib/libnet80211.a(ieee80211_crypto_tkip.o)
 .xt.lit        0x0000000000000000       0x10 /opt/Espressif/esp-open-sdk/sdk/lib/libnet80211.a(ieee80211_crypto_tkip.o)
 .xt.prop       0x0000000000000000      0x108 /opt/Espressif/esp-open-sdk/sdk/lib/libnet80211.a(ieee80211_crypto_tkip.o)
 .irom0.literal
                0x0000000000000000        0x0 /opt/Espressif/esp-open-sdk/sdk/lib/libnet80211.a(ieee80211_crypto_wep.o)
 .text          0x0000000000000000        0x0 /opt/Espressif/esp-open-sdk/sdk/lib/libnet80211.a(ieee80211_crypto_wep.o)
 .bss           0x0000000000000000        0x0 /opt/Espressif/esp-open-sdk/sdk/lib/libnet80211.a(ieee80211_crypto_wep.o)
 .xt.lit        0x0000000000000000        0x8 /opt/Espressif/esp-open-sdk/sdk/lib/libnet80211.a(ieee80211_crypto_wep.o)
 .xt.prop       0x0000000000000000       0x78 /opt/Espressif/esp-open-sdk/sdk/lib/libnet80211.a(ieee80211_crypto_wep.o)

Memory Configuration

Name             Origin             Length             Attributes
dport0_0_seg     0x000000003ff00000 0x0000000000000010
dram0_0_seg      0x000000003ffe8000 0x0000000000014000
iram1_0_seg      0x0000000040100000 0x0000000000006000
irom0_0_seg      0x0000000040211000 0x0000000000033500
*default*        0x0000000000000000 0xffffffffffffffff

Linker script and memory map

START GROUP
LOAD /opt/Espressif/esp-open-sdk/xtensa-lx106-elf/lib/gcc/xtensa-lx106-elf/4.8.2/libgcc.a
LOAD /opt/Espressif/esp-open-sdk/xtensa-lx106-elf/xtensa-lx106-elf/sysroot/usr/lib/libhal.a
LOAD /opt/Espressif/esp-open-sdk/sdk/lib/libphy.a
LOAD /opt/Espressif/esp-open-sdk/sdk/lib/libpp.a
LOAD /opt/Espressif/esp-open-sdk/sdk/lib/libnet80211.a
LOAD /opt/Espressif/esp-open-sdk/sdk/lib/libssl.a
LOAD /opt/Espressif/esp-open-sdk/sdk/lib/liblwip.a
LOAD /opt/Espressif/esp-open-sdk/sdk/lib/libwpa.a
LOAD /opt/Espressif/esp-open-sdk/sdk/lib/libmain.a
LOAD /opt/Espressif/esp-open-sdk/xtensa-lx106-elf/lib/gcc/xtensa-lx106-elf/4.8.2/../../../../xtensa-lx106-elf/lib/libm.a
LOAD build/app_app.a
END GROUP
                0x0000000040000000                PROVIDE (_memmap_vecbase_reset, 0x40000000)
                0x0000000000000110                _memmap_cacheattr_wb_base = 0x110
                0x0000000000000110                _memmap_cacheattr_wt_base = 0x110
                0x0000000000000220                _memmap_cacheattr_bp_base = 0x220
                0x00000000fffff00f                _memmap_cacheattr_unused_mask = 0xfffff00f
                0x000000002222211f                _memmap_cacheattr_wb_trapnull = 0x2222211f
                0x000000002222211f                _memmap_cacheattr_wba_trapnull = 0x2222211f
                0x000000002222211f                _memmap_cacheattr_wbna_trapnull = 0x2222211f
                0x000000002222211f                _memmap_cacheattr_wt_trapnull = 0x2222211f
                0x000000002222222f                _memmap_cacheattr_bp_trapnull = 0x2222222f
                0x00000000fffff11f                _memmap_cacheattr_wb_strict = 0xfffff11f
                0x00000000fffff11f                _memmap_cacheattr_wt_strict = 0xfffff11f
                0x00000000fffff22f                _memmap_cacheattr_bp_strict = 0xfffff22f
                0x0000000022222112                _memmap_cacheattr_wb_allvalid = 0x22222112
                0x0000000022222112                _memmap_cacheattr_wt_allvalid = 0x22222112
                0x0000000022222222                _memmap_cacheattr_bp_allvalid = 0x22222222
                0x000000002222211f                PROVIDE (_memmap_cacheattr_reset, _memmap_cacheattr_wb_trapnull)

.dport0.rodata  0x000000003ff00000        0x0
                0x000000003ff00000                _dport0_rodata_start = ABSOLUTE (.)
 *(.dport0.rodata)
 *(.dport.rodata)
                0x000000003ff00000                _dport0_rodata_end = ABSOLUTE (.)

.dport0.literal
                0x000000003ff00000        0x0
                0x000000003ff00000                _dport0_literal_start = ABSOLUTE (.)
 *(.dport0.literal)
 *(.dport.literal)
                0x000000003ff00000                _dport0_literal_end = ABSOLUTE (.)

.dport0.data    0x000000003ff00000        0x0
                0x000000003ff00000                _dport0_data_start = ABSOLUTE (.)
 *(.dport0.data)
 *(.dport.data)
                0x000000003ff00000                _dport0_data_end = ABSOLUTE (.)

.data           0x000000003ffe8000      0x62c
                0x000000003ffe8000                _data_start = ABSOLUTE (.)
 *(.data)
 .data          0x000000003ffe8000        0x4 /opt/Espressif/esp-open-sdk/sdk/lib/libmain.a(nmi-vector.o)
                0x000000003ffe8000                _Pri_3_HandlerAddress
 .data          0x000000003ffe8004        0x1 /opt/Espressif/esp-open-sdk/sdk/lib/libmain.a(app_main.o)
 *fill*         0x000000003ffe8005        0x3 
 .data          0x000000003ffe8008        0x5 /opt/Espressif/esp-open-sdk/sdk/lib/libmain.a(user_interface.o)
                0x000000003ffe8009                timer2_ms_flag
                0x000000003ffe800a                dhcps_flag
                0x000000003ffe800b                dhcpc_flag
                0x000000003ffe800c                reconnect_internal
 *fill*         0x000000003ffe800d        0x3 
 .data          0x000000003ffe8010        0x1 /opt/Espressif/esp-open-sdk/sdk/lib/libmain.a(eagle_lwip_if.o)
                0x000000003ffe8010                default_hostname
 *fill*         0x000000003ffe8011        0xf 
 .data          0x000000003ffe8020       0x53 /opt/Espressif/esp-open-sdk/sdk/lib/libphy.a(phy_chip_v6.o)
                0x000000003ffe8022                tx_rf_ana_gain
                0x000000003ffe8044                tx_pwctrl_atten_init_en
                0x000000003ffe8050                rx_gain_swp
                0x000000003ffe8070                test_rffreq_txcap
 *fill*         0x000000003ffe8073        0x1 
 .data          0x000000003ffe8074        0x4 /opt/Espressif/esp-open-sdk/sdk/lib/libphy.a(phy_sleep.o)
                0x000000003ffe8074                chip_version
 .data          0x000000003ffe8078        0x1 /opt/Espressif/esp-open-sdk/sdk/lib/libpp.a(pm.o)
 *fill*         0x000000003ffe8079        0x3 
 .data          0x000000003ffe807c        0x1 /opt/Espressif/esp-open-sdk/sdk/lib/libpp.a(pm_for_bcn_only_mode.o)
 *fill*         0x000000003ffe807d        0x3 
 .data          0x000000003ffe8080       0x1c /opt/Espressif/esp-open-sdk/sdk/lib/libpp.a(pp.o)
                0x000000003ffe8080                soft_wdt_interval
                0x000000003ffe8084                NoiseTimerInterval
                0x000000003ffe808c                sleep_start_wait_time
                0x000000003ffe8098                tcb
 *fill*         0x000000003ffe809c        0x4 
 .data          0x000000003ffe80a0       0x40 /opt/Espressif/esp-open-sdk/sdk/lib/libpp.a(rate_control.o)
 .data          0x000000003ffe80e0      0x22c /opt/Espressif/esp-open-sdk/sdk/lib/libpp.a(trc.o)
 .data          0x000000003ffe830c        0x8 /opt/Espressif/esp-open-sdk/sdk/lib/libpp.a(wdev.o)
 .data          0x000000003ffe8314        0x1 /opt/Espressif/esp-open-sdk/sdk/lib/libnet80211.a(ieee80211_hostap.o)
                0x000000003ffe8314                TmpSTAAPCloseAP
 *fill*         0x000000003ffe8315        0x3 
 .data          0x000000003ffe8318      0x1a8 /opt/Espressif/esp-open-sdk/sdk/lib/libnet80211.a(ieee80211_phy.o)
 .data          0x000000003ffe84c0        0x6 /opt/Espressif/esp-open-sdk/sdk/lib/libnet80211.a(ieee80211_proto.o)
                0x000000003ffe84c0                ieee80211_addr_bcast
 *fill*         0x000000003ffe84c6        0x2 
 .data          0x000000003ffe84c8       0x1c /opt/Espressif/esp-open-sdk/sdk/lib/libnet80211.a(ieee80211_action.o)
 .data          0x000000003ffe84e4       0x18 /opt/Espressif/esp-open-sdk/sdk/lib/libnet80211.a(ieee80211_crypto_ccmp.o)
                0x000000003ffe84e4                ccmp
 .data          0x000000003ffe84fc        0x4 /opt/Espressif/esp-open-sdk/sdk/lib/liblwip.a(dhcp.o)
 .data          0x000000003ffe8500        0x2 /opt/Espressif/esp-open-sdk/sdk/lib/liblwip.a(dhcpserver.o)
 *fill*         0x000000003ffe8502        0x2 
 .data          0x000000003ffe8504        0x1 /opt/Espressif/esp-open-sdk/sdk/lib/liblwip.a(sntp.o)
                0x000000003ffe8504                time_zone
 *fill*         0x000000003ffe8505        0x3 
 .data          0x000000003ffe8508        0x8 /opt/Espressif/esp-open-sdk/sdk/lib/liblwip.a(tcp.o)
 .data          0x000000003ffe8510       0x18 /opt/Espressif/esp-open-sdk/sdk/lib/libnet80211.a(ieee80211_crypto_tkip.o)
                0x000000003ffe8510                tkip
 .data          0x000000003ffe8528       0x18 /opt/Espressif/esp-open-sdk/sdk/lib/libnet80211.a(ieee80211_crypto_wep.o)
                0x000000003ffe8528                wep
 *(.data.*)
 .data.deg_inc  0x000000003ffe8540        0x8 build/app_app.a(user_main.o)
 .data.wintestdemo
                0x000000003ffe8548        0x4 build/app_app.a(user_main.o)
                0x000000003ffe8548                wintestdemo
 .data.wintest  0x000000003ffe854c        0x4 build/app_app.a(user_main.o)
                0x000000003ffe854c                wintest
 .data.windemo  0x000000003ffe8550        0x4 build/app_app.a(user_main.o)
                0x000000003ffe8550                windemo
 .data.winstats
                0x000000003ffe8554        0x4 build/app_app.a(user_main.o)
                0x000000003ffe8554                winstats
 .data.__Month  0x000000003ffe8558       0x34 build/app_app.a(time.o)
                0x000000003ffe8558                __Month
 .data.__WDay   0x000000003ffe858c       0x20 build/app_app.a(time.o)
                0x000000003ffe858c                __WDay
 .data.hspi_clock
                0x000000003ffe85ac        0x2 build/app_app.a(hspi.o)
                0x000000003ffe85ac                hspi_clock
 .data._cs_pin  0x000000003ffe85ae        0x1 build/app_app.a(hspi.o)
                0x000000003ffe85ae                _cs_pin
 *fill*         0x000000003ffe85af        0x1 
 .data.p8       0x000000003ffe85b0        0x4 build/app_app.a(util.o)
                0x000000003ffe85b0                p8
 .data.tft_clock
                0x000000003ffe85b4        0x2 build/app_app.a(ili9341.o)
                0x000000003ffe85b4                tft_clock
 *fill*         0x000000003ffe85b6        0x2 
 .data.tft      0x000000003ffe85b8        0x4 build/app_app.a(ili9341.o)
                0x000000003ffe85b8                tft
 .data.allfonts
                0x000000003ffe85bc       0x10 build/app_app.a(font.o)
                0x000000003ffe85bc                allfonts
 .data.Terminus_Bold_R_X16_Y32
                0x000000003ffe85cc       0x20 build/app_app.a(font.o)
                0x000000003ffe85cc                Terminus_Bold_R_X16_Y32
 .data.Terminus_Bold_R_X12_Y24
                0x000000003ffe85ec       0x20 build/app_app.a(font.o)
                0x000000003ffe85ec                Terminus_Bold_R_X12_Y24
 .data.Fixed_Bold_R_X7_Y13
                0x000000003ffe860c       0x20 build/app_app.a(font.o)
                0x000000003ffe860c                Fixed_Bold_R_X7_Y13
 *(.gnu.linkonce.d.*)
 *(.data1)
 *(.sdata)
 *(.sdata.*)
 *(.gnu.linkonce.s.*)
 *(.sdata2)
 *(.sdata2.*)
 *(.gnu.linkonce.s2.*)
 *(.jcr)
                0x000000003ffe862c                _data_end = ABSOLUTE (.)

.rodata         0x000000003ffe8630     0x11dc
                0x000000003ffe8630                _rodata_start = ABSOLUTE (.)
 *(.rodata)
 .rodata        0x000000003ffe8630      0x1b8 build/app_app.a(printf.o)
 .rodata        0x000000003ffe87e8       0x18 build/app_app.a(network.o)
 .rodata        0x000000003ffe8800        0x8 /opt/Espressif/esp-open-sdk/sdk/lib/libphy.a(phy_chip_v6.o)
 .rodata        0x000000003ffe8808        0x8 /opt/Espressif/esp-open-sdk/sdk/lib/libpp.a(pp.o)
 .rodata        0x000000003ffe8810        0x4 /opt/Espressif/esp-open-sdk/sdk/lib/libnet80211.a(ieee80211_output.o)
 *fill*         0x000000003ffe8814        0xc 
 .rodata        0x000000003ffe8820       0x70 /opt/Espressif/esp-open-sdk/sdk/lib/libnet80211.a(ieee80211_proto.o)
 .rodata        0x000000003ffe8890        0x8 /opt/Espressif/esp-open-sdk/sdk/lib/libnet80211.a(wl_cnx.o)
 .rodata        0x000000003ffe8898        0x8 /opt/Espressif/esp-open-sdk/sdk/lib/liblwip.a(dhcpserver.o)
 .rodata        0x000000003ffe88a0        0x6 /opt/Espressif/esp-open-sdk/sdk/lib/liblwip.a(etharp.o)
                0x000000003ffe88a0                ethbroadcast
 *fill*         0x000000003ffe88a6        0x2 
 .rodata        0x000000003ffe88a8        0x4 /opt/Espressif/esp-open-sdk/sdk/lib/liblwip.a(ip_addr.o)
                0x000000003ffe88a8                ip_addr_broadcast
 *fill*         0x000000003ffe88ac        0x4 
 .rodata        0x000000003ffe88b0       0x14 /opt/Espressif/esp-open-sdk/sdk/lib/liblwip.a(memp.o)
                0x000000003ffe88b0                memp_sizes
 *fill*         0x000000003ffe88c4        0xc 
 .rodata        0x000000003ffe88d0       0xc0 /opt/Espressif/esp-open-sdk/sdk/lib/liblwip.a(sntp.o)
 .rodata        0x000000003ffe8990       0x2d /opt/Espressif/esp-open-sdk/sdk/lib/liblwip.a(tcp.o)
                0x000000003ffe8990                tcp_pcb_lists
                0x000000003ffe89a0                tcp_persist_backoff
                0x000000003ffe89b0                tcp_backoff
 *fill*         0x000000003ffe89bd        0x3 
 .rodata        0x000000003ffe89c0        0xc /opt/Espressif/esp-open-sdk/sdk/lib/libwpa.a(wpa_common.o)
 .rodata        0x000000003ffe89cc      0x100 /opt/Espressif/esp-open-sdk/xtensa-lx106-elf/lib/gcc/xtensa-lx106-elf/4.8.2/libgcc.a(_popcount_tab.o)
                0x000000003ffe89cc                __popcount_tab
 *(.rodata.*)
 .rodata.str1.4
                0x000000003ffe8acc       0x6b /opt/Espressif/esp-open-sdk/sdk/lib/libmain.a(app_main.o)
 *fill*         0x000000003ffe8b37        0x1 
 .rodata.str1.4
                0x000000003ffe8b38       0x14 /opt/Espressif/esp-open-sdk/sdk/lib/libmain.a(ets_timer.o)
 .rodata.str1.4
                0x000000003ffe8b4c       0x28 /opt/Espressif/esp-open-sdk/sdk/lib/libmain.a(mem_manager.o)
 .rodata.str1.4
                0x000000003ffe8b74       0x1b /opt/Espressif/esp-open-sdk/sdk/lib/libmain.a(user_interface.o)
 *fill*         0x000000003ffe8b8f        0x1 
 .rodata.str1.4
                0x000000003ffe8b90      0x1b9 build/app_app.a(user_main.o)
                                        0x1bd (size before relaxing)
 *fill*         0x000000003ffe8d49        0x3 
 .rodata.cube_edges
                0x000000003ffe8d4c       0x34 build/app_app.a(user_main.o)
 .rodata.cube_points
                0x000000003ffe8d80       0x36 build/app_app.a(user_main.o)
 *fill*         0x000000003ffe8db6        0x2 
 .rodata.str1.4
                0x000000003ffe8db8       0xd4 build/app_app.a(time.o)
 .rodata.__days
                0x000000003ffe8e8c       0x18 build/app_app.a(time.o)
 .rodata.__days_sum
                0x000000003ffe8ea4       0x1a build/app_app.a(time.o)
 *fill*         0x000000003ffe8ebe        0x2 
 .rodata.str1.4
                0x000000003ffe8ec0       0x70 build/app_app.a(timer_hal.o)
 .rodata.str1.4
                0x000000003ffe8f30       0x1f build/app_app.a(hspi.o)
 *fill*         0x000000003ffe8f4f        0x1 
 .rodata.str1.4
                0x000000003ffe8f50      0x250 build/app_app.a(cal_dex.o)
                                        0x254 (size before relaxing)
 .rodata.str1.4
                0x000000003ffe91a0      0x43b build/app_app.a(network.o)
                                        0x457 (size before relaxing)
 *fill*         0x000000003ffe95db        0x1 
 .rodata.str1.4
                0x000000003ffe95dc       0x57 build/app_app.a(timer.o)
 *fill*         0x000000003ffe9633        0x1 
 .rodata.v_atangrad
                0x000000003ffe9634       0x78 build/app_app.a(cordic.o)
 .rodata.str1.4
                0x000000003ffe96ac        0x7 /opt/Espressif/esp-open-sdk/sdk/lib/libpp.a(lmac.o)
                                          0xf (size before relaxing)
 *fill*         0x000000003ffe96b3        0x1 
 .rodata.str1.4
                0x000000003ffe96b4       0x17 /opt/Espressif/esp-open-sdk/sdk/lib/libpp.a(pm.o)
                                         0x1f (size before relaxing)
 *fill*         0x000000003ffe96cb        0x1 
 .rodata.str1.4
                0x000000003ffe96cc       0x17 /opt/Espressif/esp-open-sdk/sdk/lib/libpp.a(pm_for_bcn_only_mode.o)
                                         0x27 (size before relaxing)
 *fill*         0x000000003ffe96e3        0x1 
 .rodata.str1.4
                0x000000003ffe96e4        0x5 /opt/Espressif/esp-open-sdk/sdk/lib/libpp.a(pp.o)
                                          0xd (size before relaxing)
 *fill*         0x000000003ffe96e9        0x3 
 .rodata.str1.4
                0x000000003ffe96ec        0x7 /opt/Espressif/esp-open-sdk/sdk/lib/libpp.a(wdev.o)
                                          0xf (size before relaxing)
 .rodata.str1.4
                0x0000000000000000        0x7 /opt/Espressif/esp-open-sdk/sdk/lib/libnet80211.a(ieee80211.o)
 .rodata.str1.4
                0x0000000000000000        0x7 /opt/Espressif/esp-open-sdk/sdk/lib/libnet80211.a(ieee80211_output.o)
 *fill*         0x000000003ffe96f3        0x1 
 .rodata.str1.4
                0x000000003ffe96f4        0x4 /opt/Espressif/esp-open-sdk/sdk/lib/libnet80211.a(ieee80211_scan.o)
 .rodata.str1.4
                0x000000003ffe96f8        0x4 /opt/Espressif/esp-open-sdk/sdk/lib/libnet80211.a(ieee80211_action_vendor.o)
 .rodata.str1.4
                0x0000000000000000        0x4 /opt/Espressif/esp-open-sdk/sdk/lib/libnet80211.a(ieee80211_ie_vendor.o)
 .rodata.str1.4
                0x000000003ffe96fc        0xf /opt/Espressif/esp-open-sdk/sdk/lib/liblwip.a(dns.o)
 .rodata.str1.4
                0x0000000000000000        0xf /opt/Espressif/esp-open-sdk/sdk/lib/liblwip.a(espconn_tcp.o)
                                          0x1 (size before relaxing)
 *fill*         0x000000003ffe970b        0x1 
 .rodata.str1.4
                0x000000003ffe970c       0x20 /opt/Espressif/esp-open-sdk/sdk/lib/liblwip.a(sntp.o)
 .rodata.str1.4
                0x000000003ffe972c       0x88 /opt/Espressif/esp-open-sdk/sdk/lib/liblwip.a(mdns.o)
 .rodata.str1.4
                0x000000003ffe97b4       0x3c /opt/Espressif/esp-open-sdk/sdk/lib/libwpa.a(wpa_auth.o)
                                         0x43 (size before relaxing)
 .rodata.str1.4
                0x0000000000000000       0x17 /opt/Espressif/esp-open-sdk/sdk/lib/libwpa.a(wpa.o)
 .rodata.str1.4
                0x000000003ffe97f0        0x9 /opt/Espressif/esp-open-sdk/sdk/lib/libwpa.a(wpa_common.o)
 *fill*         0x000000003ffe97f9        0x3 
 .rodata.str1.4
                0x000000003ffe97fc        0x8 /opt/Espressif/esp-open-sdk/sdk/lib/libwpa.a(wpa_debug.o)
                                          0xd (size before relaxing)
 *(.gnu.linkonce.r.*)
 *(.rodata1)
                0x000000003ffe9804                __XT_EXCEPTION_TABLE__ = ABSOLUTE (.)
 *(.xt_except_table)
 *(.gcc_except_table)
 *(.gnu.linkonce.e.*)
 *(.gnu.version_r)
 *(.eh_frame)
 *crtbegin.o(.ctors)
 *(EXCLUDE_FILE(*crtend.o) .ctors)
 *(SORT(.ctors.*))
 *(.ctors)
 *crtbegin.o(.dtors)
 *(EXCLUDE_FILE(*crtend.o) .dtors)
 *(SORT(.dtors.*))
 *(.dtors)
                0x000000003ffe9804                __XT_EXCEPTION_DESCS__ = ABSOLUTE (.)
 *(.xt_except_desc)
 *(.gnu.linkonce.h.*)
                0x000000003ffe9804                __XT_EXCEPTION_DESCS_END__ = ABSOLUTE (.)
 *(.xt_except_desc_end)
 *(.dynamic)
 *(.gnu.version_d)
                0x000000003ffe9804                . = ALIGN (0x4)
                0x000000003ffe9804                _bss_table_start = ABSOLUTE (.)
                0x000000003ffe9804        0x4 LONG 0x3ffe9818 _bss_start
                0x000000003ffe9808        0x4 LONG 0x3fff2e68 _bss_end
                0x000000003ffe980c                _bss_table_end = ABSOLUTE (.)
                0x000000003ffe980c                _rodata_end = ABSOLUTE (.)

.sdk.version    0x000000003ffe9810        0x6
 .sdk.version   0x000000003ffe9810        0x6 /opt/Espressif/esp-open-sdk/sdk/lib/libmain.a(app_main.o)
                0x000000003ffe9810                SDK_VERSION

.bss            0x000000003ffe9818     0x9650
                0x000000003ffe9818                . = ALIGN (0x8)
                0x000000003ffe9818                _bss_start = ABSOLUTE (.)
 *(.dynsbss)
 *(.sbss)
 *(.sbss.*)
 *(.gnu.linkonce.sb.*)
 *(.scommon)
 *(.sbss2)
 *(.sbss2.*)
 *(.gnu.linkonce.sb2.*)
 *(.dynbss)
 *(.bss)
 *fill*         0x000000003ffe9818        0x8 
 .bss           0x000000003ffe9820      0x1c0 /opt/Espressif/esp-open-sdk/sdk/lib/libmain.a(nmi-vector.o)
 .bss           0x000000003ffe99e0       0x41 /opt/Espressif/esp-open-sdk/sdk/lib/libmain.a(app_main.o)
                0x000000003ffe99e4                info
                0x000000003ffe9a08                lwip_timer_interval
                0x000000003ffe9a0c                check_timeouts_timer
                0x000000003ffe9a20                user_init_flag
 *fill*         0x000000003ffe9a21        0xf 
 .bss           0x000000003ffe9a30       0x30 /opt/Espressif/esp-open-sdk/sdk/lib/libmain.a(ets_timer.o)
                0x000000003ffe9a30                timer_list
                0x000000003ffe9a34                debug_timer
                0x000000003ffe9a38                debug_timerfn
 .bss           0x000000003ffe9a60       0x18 /opt/Espressif/esp-open-sdk/sdk/lib/libmain.a(mem_manager.o)
 .bss           0x000000003ffe9a78        0x4 /opt/Espressif/esp-open-sdk/sdk/lib/libmain.a(spi_flash.o)
                0x000000003ffe9a78                flash_read
 *fill*         0x000000003ffe9a7c        0x4 
 .bss           0x000000003ffe9a80      0x151 /opt/Espressif/esp-open-sdk/sdk/lib/libmain.a(user_interface.o)
                0x000000003ffe9b77                deep_sleep_flag
                0x000000003ffe9b78                cpu_overclock
                0x000000003ffe9b7c                event_cb
                0x000000003ffe9b80                status_led_output_level
                0x000000003ffe9b84                done_cb
                0x000000003ffe9b88                rst_if
                0x000000003ffe9ba4                default_interface
                0x000000003ffe9ba5                OpmodChgIsOnGoing
                0x000000003ffe9ba8                bcn_ie
                0x000000003ffe9bb0                promiscuous_cb
 *fill*         0x000000003ffe9bd1        0x3 
 .bss           0x000000003ffe9bd4        0xc /opt/Espressif/esp-open-sdk/sdk/lib/libmain.a(eagle_lwip_if.o)
                0x000000003ffe9bd4                hostname
 .bss           0x000000003ffe9be0        0x4 /opt/Espressif/esp-open-sdk/sdk/lib/libphy.a(phy.o)
 *fill*         0x000000003ffe9be4        0xc 
 .bss           0x000000003ffe9bf0      0x3ab /opt/Espressif/esp-open-sdk/sdk/lib/libphy.a(phy_chip_v6.o)
                0x000000003ffe9bf0                g_phyFuns
                0x000000003ffe9bf4                rxiq_compute_num
                0x000000003ffe9bf8                rxdc_init_flag
                0x000000003ffe9bfc                check_result
                0x000000003ffe9c00                chip6_sleep_params
                0x000000003ffe9de4                chip6_phy_init_ctrl
                0x000000003ffe9e58                phy_freq_offset
                0x000000003ffe9e5a                do_pwctrl_flag
                0x000000003ffe9e5b                pwctrl_debug
                0x000000003ffe9e5c                txbk_dpdby_flag
                0x000000003ffe9e5e                sw_scan_mode
                0x000000003ffe9e70                periodic_cal_dc_num
                0x000000003ffe9e74                periodic_cal_flag
                0x000000003ffe9e75                bbpll_cal_flag
                0x000000003ffe9e76                phy_in_most_power
                0x000000003ffe9e77                deep_sleep_en
                0x000000003ffe9e78                rtc_mem_check_fail
                0x000000003ffe9e79                rtc_recovery_en
                0x000000003ffe9e7a                phy_in_vdd33_offset
                0x000000003ffe9e7b                phy_set_most_tpw_disbg
                0x000000003ffe9e7c                phy_set_most_tpw_index
                0x000000003ffe9e80                adc_rand_noise
                0x000000003ffe9e84                dpd_bypass_original
                0x000000003ffe9e88                noise_array
                0x000000003ffe9f90                tx_pwctrl_atten_init
 *fill*         0x000000003ffe9f9b        0x1 
 .bss           0x000000003ffe9f9c        0x6 /opt/Espressif/esp-open-sdk/sdk/lib/libphy.a(phy_chip_v6_cal.o)
                0x000000003ffe9f9c                loop_pwctrl_pwdet_error_accum_high_power
                0x000000003ffe9f9e                tx_pwctrl_pk_num
                0x000000003ffe9f9f                loop_pwctrl_correct_atten_high_power
                0x000000003ffe9fa0                tx_pwctrl_set_chan_flag
                0x000000003ffe9fa1                rxiq_cover_fail_num
 *fill*         0x000000003ffe9fa2        0x2 
 .bss           0x000000003ffe9fa4        0x7 /opt/Espressif/esp-open-sdk/sdk/lib/libphy.a(phy_sleep.o)
                0x000000003ffe9fa4                periodic_cal_sat
                0x000000003ffe9fa6                lslp_mem_opt_8266
                0x000000003ffe9fa8                software_slp_reject
                0x000000003ffe9fa9                SDIO_slp_reject
                0x000000003ffe9faa                hardware_reject
 *fill*         0x000000003ffe9fab        0x5 
 .bss           0x000000003ffe9fb0       0x30 /opt/Espressif/esp-open-sdk/sdk/lib/libpp.a(if_hwctrl.o)
                0x000000003ffe9fb0                interface_mask
                0x000000003ffe9fc0                if_ctrl
 .bss           0x000000003ffe9fe0      0x150 /opt/Espressif/esp-open-sdk/sdk/lib/libpp.a(lmac.o)
                0x000000003ffe9fe4                lmacConfMib
 .bss           0x000000003ffea130      0x11a /opt/Espressif/esp-open-sdk/sdk/lib/libpp.a(pm.o)
                0x000000003ffea130                pmc
 *fill*         0x000000003ffea24a        0x2 
 .bss           0x000000003ffea24c       0x30 /opt/Espressif/esp-open-sdk/sdk/lib/libpp.a(pm_for_bcn_only_mode.o)
 *fill*         0x000000003ffea27c        0x4 
 .bss           0x000000003ffea280      0x2e2 /opt/Espressif/esp-open-sdk/sdk/lib/libpp.a(pp.o)
                0x000000003ffea298                pend_flag_noise_check
                0x000000003ffea2a0                pend_flag_periodic_cal
                0x000000003ffea2b8                idle_timer_reopen_flag
                0x000000003ffea2b9                dbg_stop_sw_wdt
                0x000000003ffea2ba                dbg_stop_hw_wdt
                0x000000003ffea2d0                HighestFreqOffsetInOneChk
 *fill*         0x000000003ffea562        0xe 
 .bss           0x000000003ffea570      0x100 /opt/Espressif/esp-open-sdk/sdk/lib/libpp.a(rate_control.o)
 .bss           0x000000003ffea670      0x448 /opt/Espressif/esp-open-sdk/sdk/lib/libpp.a(trc.o)
 *fill*         0x000000003ffeaab8        0x8 
 .bss           0x000000003ffeaac0     0x4e88 /opt/Espressif/esp-open-sdk/sdk/lib/libpp.a(wdev.o)
                0x000000003ffeaac0                wDevCtrl
                0x000000003ffeac68                WdevTimOffSet
 *fill*         0x000000003ffef948        0x8 
 .bss           0x000000003ffef950     0x1294 /opt/Espressif/esp-open-sdk/sdk/lib/libpp.a(esf_buf.o)
 .bss           0x000000003fff0be4      0x584 /opt/Espressif/esp-open-sdk/sdk/lib/libnet80211.a(ieee80211.o)
                0x000000003fff0be4                g_ic
 .bss           0x000000003fff1168       0x40 /opt/Espressif/esp-open-sdk/sdk/lib/libnet80211.a(ieee80211_hostap.o)
                0x000000003fff1168                BcnEb_update
                0x000000003fff118c                PendFreeBcnEb
                0x000000003fff1190                ApFreqCalTimer
 .bss           0x000000003fff11a8       0xd0 /opt/Espressif/esp-open-sdk/sdk/lib/libnet80211.a(ieee80211_scan.o)
                0x000000003fff11a8                gScanStruct
                0x000000003fff125c                FreqCalCntForScan
                0x000000003fff125e                TestStaFreqCalValInput
                0x000000003fff1260                auth_type
                0x000000003fff1262                scannum
 .bss           0x000000003fff1278       0x3c /opt/Espressif/esp-open-sdk/sdk/lib/libnet80211.a(wl_chm.o)
 *fill*         0x000000003fff12b4        0x4 
 .bss           0x000000003fff12b8      0x418 /opt/Espressif/esp-open-sdk/sdk/lib/libnet80211.a(wl_cnx.o)
                0x000000003fff16b8                sta_con_timer
                0x000000003fff16cc                g_cnx_probe_rc_list_cb
 .bss           0x000000003fff16d0        0x8 /opt/Espressif/esp-open-sdk/sdk/lib/libnet80211.a(ieee80211_action_vendor.o)
 *fill*         0x000000003fff16d8        0x8 
 .bss           0x000000003fff16e0       0x38 /opt/Espressif/esp-open-sdk/sdk/lib/liblwip.a(dhcp.o)
                0x000000003fff16e0                dhcp_rx_options_given
                0x000000003fff16f0                dhcp_rx_options_val
 .bss           0x000000003fff1718      0x24c /opt/Espressif/esp-open-sdk/sdk/lib/liblwip.a(dhcpserver.o)
                0x000000003fff1728                s
 *fill*         0x000000003fff1964        0xc 
 .bss           0x000000003fff1970      0x690 /opt/Espressif/esp-open-sdk/sdk/lib/liblwip.a(dns.o)
 .bss           0x000000003fff2000       0x78 /opt/Espressif/esp-open-sdk/sdk/lib/liblwip.a(espconn_tcp.o)
                0x000000003fff2000                espconn_TaskQueue
 *fill*         0x000000003fff2078        0x8 
 .bss           0x000000003fff2080      0x100 /opt/Espressif/esp-open-sdk/sdk/lib/liblwip.a(etharp.o)
                0x000000003fff2084                ethzero
 .bss           0x000000003fff2180       0x20 /opt/Espressif/esp-open-sdk/sdk/lib/liblwip.a(ip_addr.o)
                0x000000003fff2180                ip_addr_any
 .bss           0x000000003fff21a0       0x12 /opt/Espressif/esp-open-sdk/sdk/lib/liblwip.a(ip.o)
                0x000000003fff21a0                current_iphdr_dest
                0x000000003fff21a4                current_iphdr_src
                0x000000003fff21a8                current_netif
                0x000000003fff21ac                current_header
 *fill*         0x000000003fff21b2        0x2 
 .bss           0x000000003fff21b4        0x9 /opt/Espressif/esp-open-sdk/sdk/lib/liblwip.a(netif.o)
                0x000000003fff21b4                netif_list
                0x000000003fff21b8                netif_default
 *fill*         0x000000003fff21bd        0x3 
 .bss           0x000000003fff21c0        0x4 /opt/Espressif/esp-open-sdk/sdk/lib/liblwip.a(raw.o)
 *fill*         0x000000003fff21c4        0xc 
 .bss           0x000000003fff21d0      0x118 /opt/Espressif/esp-open-sdk/sdk/lib/liblwip.a(sntp.o)
                0x000000003fff21d0                res_buf
                0x000000003fff21f4                __tzyear
                0x000000003fff21f8                __tznorth
                0x000000003fff21fc                realtime_stamp
                0x000000003fff2220                sntp__tzrule
                0x000000003fff2260                reult
 .bss           0x000000003fff22e8       0x34 /opt/Espressif/esp-open-sdk/sdk/lib/liblwip.a(tcp_in.o)
                0x000000003fff2318                tcp_input_pcb
 .bss           0x000000003fff231c       0x1c /opt/Espressif/esp-open-sdk/sdk/lib/liblwip.a(tcp.o)
                0x000000003fff2320                tcp_active_pcbs
                0x000000003fff2324                tcp_tmp_pcb
                0x000000003fff2328                tcp_tw_pcbs
                0x000000003fff232c                tcp_bound_pcbs
                0x000000003fff2330                tcp_listen_pcbs
                0x000000003fff2334                tcp_ticks
 .bss           0x000000003fff2338        0xc /opt/Espressif/esp-open-sdk/sdk/lib/liblwip.a(timers.o)
 .bss           0x000000003fff2344        0x4 /opt/Espressif/esp-open-sdk/sdk/lib/liblwip.a(udp.o)
                0x000000003fff2344                udp_pcbs
 *fill*         0x000000003fff2348        0x8 
 .bss           0x000000003fff2350      0x104 /opt/Espressif/esp-open-sdk/sdk/lib/liblwip.a(espconn.o)
                0x000000003fff2350                plink_active
                0x000000003fff2354                pserver_list
                0x000000003fff2360                premot
                0x000000003fff2420                pktinfo
 .bss           0x000000003fff2454        0xc /opt/Espressif/esp-open-sdk/sdk/lib/liblwip.a(igmp.o)
 .bss           0x000000003fff2460      0x421 /opt/Espressif/esp-open-sdk/sdk/lib/liblwip.a(mdns.o)
                0x000000003fff2464                PUCK_SERVICE
                0x000000003fff246c                PUCK_PORT
                0x000000003fff2478                mdns_timer
 *fill*         0x000000003fff2881        0xf 
 .bss           0x000000003fff2890      0x27a /opt/Espressif/esp-open-sdk/sdk/lib/libwpa.a(wpa.o)
 *fill*         0x000000003fff2b0a        0x6 
 .bss           0x000000003fff2b10        0x8 /opt/Espressif/esp-open-sdk/sdk/lib/libnet80211.a(ieee80211_crypto_tkip.o)
 *(.bss.*)
 .bss.signal_loop
                0x000000003fff2b18        0x4 build/app_app.a(user_main.o)
                0x000000003fff2b18                signal_loop
 .bss.ntp_init  0x000000003fff2b1c        0x4 build/app_app.a(user_main.o)
                0x000000003fff2b1c                ntp_init
 .bss.UserTimerHandler
                0x000000003fff2b20       0x14 build/app_app.a(user_main.o)
 *fill*         0x000000003fff2b34        0x4 
 .bss.voltage   0x000000003fff2b38        0x8 build/app_app.a(user_main.o)
                0x000000003fff2b38                voltage
 .bss.adc_count
                0x000000003fff2b40        0x4 build/app_app.a(user_main.o)
 .bss.adc_sum   0x000000003fff2b44        0x4 build/app_app.a(user_main.o)
 .bss.V         0x000000003fff2b48       0x18 build/app_app.a(user_main.o)
 .bss.count     0x000000003fff2b60        0x4 build/app_app.a(user_main.o)
 *fill*         0x000000003fff2b64        0x4 
 .bss.dscale_max
                0x000000003fff2b68        0x8 build/app_app.a(user_main.o)
 .bss.dscale    0x000000003fff2b70        0x8 build/app_app.a(user_main.o)
 .bss.dscale_inc
                0x000000003fff2b78        0x8 build/app_app.a(user_main.o)
 .bss.degree    0x000000003fff2b80        0x8 build/app_app.a(user_main.o)
 .bss.t$3391    0x000000003fff2b88       0x28 build/app_app.a(time.o)
 .bss.t$3380    0x000000003fff2bb0       0x28 build/app_app.a(time.o)
 .bss.__ctime_buf
                0x000000003fff2bd8       0x20 build/app_app.a(time.o)
 .bss.task_1ms  0x000000003fff2bf8       0x14 build/app_app.a(timer_hal.o)
 .bss.timers_configured
                0x000000003fff2c0c        0x4 build/app_app.a(timer_hal.o)
 .bss.timers_enabled
                0x000000003fff2c10        0x4 build/app_app.a(timer_hal.o)
 .bss.uart0_gets_size
                0x000000003fff2c14        0x4 build/app_app.a(uart.o)
                0x000000003fff2c14                uart0_gets_size
 .bss.uart0_gets_ready
                0x000000003fff2c18        0x1 build/app_app.a(uart.o)
                0x000000003fff2c18                uart0_gets_ready
 *fill*         0x000000003fff2c19        0x3 
 .bss._addr     0x000000003fff2c1c        0x4 build/app_app.a(util.o)
                0x000000003fff2c1c                _addr
 .bss.orighandler
                0x000000003fff2c20        0x4 build/app_app.a(cal_dex.o)
 .bss.macaddr   0x000000003fff2c24        0x6 build/app_app.a(network.o)
 *fill*         0x000000003fff2c2a        0x2 
 .bss.info      0x000000003fff2c2c        0xc build/app_app.a(network.o)
 .bss.StationConfig
                0x000000003fff2c38       0x67 build/app_app.a(network.o)
 *fill*         0x000000003fff2c9f        0x1 
 .bss.network_init
                0x000000003fff2ca0        0x4 build/app_app.a(network.o)
                0x000000003fff2ca0                network_init
 .bss.__clock_elapsed
                0x000000003fff2ca4        0x8 build/app_app.a(timer.o)
 .bss._ts_to_str
                0x000000003fff2cac       0x20 build/app_app.a(timer.o)
 *(.gnu.linkonce.b.*)
 *(COMMON)
 COMMON         0x000000003fff2ccc       0xdc build/app_app.a(user_main.o)
                0x000000003fff2ccc                xpos
                0x000000003fff2cd0                NormalTaskQueue
                0x000000003fff2d10                _wintest
                0x000000003fff2d26                ip_xpos
                0x000000003fff2d28                IdleTaskQueue
                0x000000003fff2d30                _windemo
                0x000000003fff2d48                _winstats
                0x000000003fff2d60                HighTaskQueue
                0x000000003fff2d68                ip_ypos
                0x000000003fff2d6c                _wintestdemo
                0x000000003fff2d82                ypos
                0x000000003fff2d84                UserTaskQueue
                0x000000003fff2da4                master
 COMMON         0x000000003fff2da8        0x8 build/app_app.a(time.o)
                0x000000003fff2da8                __tzone
 COMMON         0x000000003fff2db0       0x48 build/app_app.a(timer_hal.o)
                0x000000003fff2db0                __clock
                0x000000003fff2db8                timer_irq
 COMMON         0x000000003fff2df8        0x8 build/app_app.a(uart.o)
                0x000000003fff2df8                uart0_gets_line
                0x000000003fff2dfc                uart0_gets_receive_queue
 COMMON         0x000000003fff2e00        0x4 build/app_app.a(util.o)
                0x000000003fff2e00                _data
 COMMON         0x000000003fff2e04       0x18 build/app_app.a(ili9341.o)
                0x000000003fff2e04                tftwin
                0x000000003fff2e1a                tft_ID
 COMMON         0x000000003fff2e1c       0x40 build/app_app.a(network.o)
                0x000000003fff2e1c                ip_msg
 COMMON         0x000000003fff2e5c        0xc build/app_app.a(cordic.o)
                0x000000003fff2e5c                Y
                0x000000003fff2e60                Z
                0x000000003fff2e64                X
                0x000000003fff2e68                . = ALIGN (0x8)
                0x000000003fff2e68                _bss_end = ABSOLUTE (.)
                0x000000003fff2e68                _heap_start = ABSOLUTE (.)

.irom0.text     0x0000000040211000    0x33070
                0x0000000040211000                _irom0_text_start = ABSOLUTE (.)
 *(.irom0.literal .irom.literal .irom.text.literal .irom0.text .irom.text)
 .irom0.text    0x0000000040211000      0x669 /opt/Espressif/esp-open-sdk/sdk/lib/libmain.a(app_main.o)
                                        0x795 (size before relaxing)
                0x00000000402111e4                wdt_init
                0x0000000040211270                user_uart_wait_tx_fifo_empty
 *fill*         0x0000000040211669        0x3 
 .irom0.text    0x000000004021166c      0x15e /opt/Espressif/esp-open-sdk/sdk/lib/libmain.a(ets_timer.o)
                                        0x192 (size before relaxing)
                0x0000000040211674                ets_timer_done
                0x00000000402116b8                ets_timer_handler_isr
                0x0000000040211768                ets_timer_init
 *fill*         0x00000000402117ca        0x2 
 .irom0.text    0x00000000402117cc       0x4e /opt/Espressif/esp-open-sdk/sdk/lib/libmain.a(mem_manager.o)
                                         0x52 (size before relaxing)
                0x00000000402117d0                xPortGetFreeHeapSize
                0x00000000402117d8                vPortInitialiseBlocks
 *fill*         0x000000004021181a        0x2 
 .irom0.text    0x000000004021181c     0x28d1 /opt/Espressif/esp-open-sdk/sdk/lib/libmain.a(user_interface.o)
                                       0x30cd (size before relaxing)
                0x0000000040211820                system_set_os_print
                0x0000000040211830                system_get_os_print
                0x00000000402119fc                system_pp_recycle_rx_pkt
                0x0000000040211a10                system_adc_read
                0x0000000040211a28                system_get_vdd33
                0x0000000040211a44                system_restart
                0x0000000040211a9c                system_restore
                0x0000000040211af8                system_get_flash_size_map
                0x0000000040211b18                system_get_boot_version
                0x0000000040211b50                system_get_test_result
                0x0000000040211b78                system_get_userbin_addr
                0x0000000040211c10                system_get_boot_mode
                0x0000000040211c40                system_restart_enhance
                0x0000000040211d70                system_upgrade_userbin_set
                0x0000000040211dbc                system_upgrade_userbin_check
                0x0000000040211dfc                system_upgrade_flag_set
                0x0000000040211e10                system_upgrade_flag_check
                0x0000000040211e38                system_upgrade_reboot
                0x0000000040211f48                system_deep_sleep
                0x0000000040211fa8                system_deep_sleep_set_option
                0x0000000040211fc4                system_phy_temperature_alert
                0x0000000040211fd8                system_phy_set_max_tpw
                0x0000000040211fec                system_phy_set_tpw_via_vdd33
                0x0000000040212000                system_phy_set_rfoption
                0x0000000040212018                system_update_cpu_freq
                0x0000000040212074                system_get_cpu_freq
                0x000000004021208c                system_overclock
                0x00000000402120b8                system_restoreclock
                0x00000000402120e8                system_timer_reinit
                0x0000000040212104                system_relative_time
                0x0000000040212124                system_station_got_ip_set
                0x000000004021222c                system_print_meminfo
                0x000000004021228c                system_get_free_heap_size
                0x00000000402122a4                system_get_chip_id
                0x00000000402122c8                system_rtc_clock_cali_proc
                0x00000000402122dc                system_get_rtc_time
                0x00000000402122f0                system_mktime
                0x00000000402123c0                system_init_done_cb
                0x00000000402123c8                system_get_rst_info
                0x00000000402123d0                wifi_softap_dhcps_start
                0x0000000040212418                wifi_softap_dhcps_stop
                0x0000000040212458                wifi_softap_dhcps_status
                0x0000000040212460                wifi_station_dhcpc_start
                0x00000000402124b8                wifi_station_dhcpc_stop
                0x00000000402124f8                wifi_station_dhcpc_status
                0x0000000040212564                wifi_get_opmode
                0x0000000040212578                wifi_get_opmode_default
                0x00000000402125f4                wifi_get_broadcast_if
                0x0000000040212630                wifi_set_broadcast_if
                0x0000000040212740                wifi_set_opmode
                0x0000000040212754                wifi_set_opmode_current
                0x0000000040212768                system_get_checksum
                0x0000000040212830                system_param_save_with_protect
                0x00000000402128d8                system_save_sys_param
                0x0000000040212904                system_param_load
                0x0000000040212a30                wifi_station_get_config
                0x0000000040212a44                wifi_station_get_config_default
                0x0000000040212a64                wifi_station_get_ap_info
                0x0000000040212b1c                wifi_station_ap_number_set
                0x0000000040212dc0                wifi_station_set_config
                0x0000000040212dd4                wifi_station_set_config_current
                0x0000000040212de8                wifi_station_get_current_ap_id
                0x0000000040212dfc                wifi_station_ap_check
                0x0000000040212e34                wifi_station_ap_change
                0x0000000040212f1c                wifi_station_scan
                0x0000000040212f68                wifi_station_get_auto_connect
                0x0000000040212f7c                wifi_station_set_auto_connect
                0x0000000040212fd0                wifi_station_connect
                0x0000000040213064                wifi_station_disconnect
                0x0000000040213110                wifi_station_get_connect_status
                0x0000000040213140                wifi_station_set_reconnect_policy
                0x0000000040213158                wifi_station_get_reconnect_policy
                0x0000000040213160                wifi_station_get_rssi
                0x00000000402131a8                wifi_station_set_default_hostname
                0x00000000402131f0                wifi_station_get_hostname
                0x0000000040213218                wifi_station_set_hostname
                0x00000000402132a4                wifi_softap_cacl_mac
                0x0000000040213314                wifi_softap_set_default_ssid
                0x00000000402134bc                wifi_softap_get_config
                0x00000000402134d0                wifi_softap_get_config_default
                0x0000000040213740                wifi_softap_set_config
                0x0000000040213754                wifi_softap_set_config_current
                0x0000000040213768                wifi_softap_set_station_info
                0x00000000402137d4                wifi_softap_get_station_info
                0x0000000040213878                wifi_softap_free_station_info
                0x00000000402138ac                wifi_softap_get_station_num
                0x0000000040213900                wifi_softap_deauth
                0x00000000402139b0                wifi_softap_get_beacon_only_mode
                0x00000000402139c4                wifi_softap_set_beacon_only_mode
                0x0000000040213a2c                wifi_set_user_ie
                0x0000000040213a9c                wifi_get_user_ie
                0x0000000040213aac                wifi_get_phy_mode
                0x0000000040213ab4                wifi_set_phy_mode
                0x0000000040213b7c                wifi_set_sleep_type
                0x0000000040213b98                wifi_get_sleep_type
                0x0000000040213bb0                wifi_get_channel
                0x0000000040213bc8                wifi_set_channel
                0x0000000040213c0c                wifi_promiscuous_set_mac
                0x0000000040213c68                wifi_promiscuous_enable
                0x0000000040213d44                wifi_set_promiscuous_rx_cb
                0x0000000040213d54                wifi_get_ip_info
                0x0000000040213dd4                wifi_set_ip_info
                0x0000000040213e48                wifi_get_macaddr
                0x0000000040213ea8                wifi_set_macaddr
                0x0000000040213f94                wifi_status_led_install
                0x0000000040213fc8                wifi_status_led_uninstall
                0x0000000040213fec                wifi_set_status_led_output_level
                0x0000000040214000                wifi_set_event_handler_cb
                0x0000000040214010                system_os_task
                0x0000000040214054                system_uart_swap
                0x00000000402140b4                system_uart_de_swap
                0x00000000402140e8                system_get_sdk_version
 *fill*         0x00000000402140ed        0x3 
 .irom0.text    0x00000000402140f0      0x5cf /opt/Espressif/esp-open-sdk/sdk/lib/libmain.a(eagle_lib.o)
                                        0x5df (size before relaxing)
                0x00000000402140f4                divide
                0x0000000040214130                skip_atoi
                0x00000000402142b0                ets_vsnprintf
                0x0000000040214610                ets_vsprintf
                0x0000000040214634                ets_sprintf
                0x000000004021465c                ets_strcat
                0x000000004021467c                ets_strrchr
                0x00000000402146a8                ets_strchr
 *fill*         0x00000000402146bf        0x1 
 .irom0.text    0x00000000402146c0      0x2c6 /opt/Espressif/esp-open-sdk/sdk/lib/libmain.a(eagle_lwip_if.o)
                                        0x366 (size before relaxing)
                0x0000000040214770                eagle_lwip_if_alloc
                0x0000000040214908                eagle_lwip_if_free
                0x0000000040214964                eagle_lwip_getif
 *fill*         0x0000000040214986        0x2 
 .irom0.text    0x0000000040214988      0x479 build/app_app.a(user_main.o)
                                        0x5fd (size before relaxing)
                0x00000000402149d8                user_tests
                0x0000000040214b28                user_init
 *fill*         0x0000000040214e01        0x3 
 .irom0.text    0x0000000040214e04       0x6b build/app_app.a(debug.o)
                                         0x77 (size before relaxing)
                0x0000000040214e04                uart0_printf
 *fill*         0x0000000040214e6f        0x1 
 .irom0.text    0x0000000040214e70       0x76 build/app_app.a(pr.o)
                                         0x7e (size before relaxing)
                0x0000000040214e74                tft_printf
 *fill*         0x0000000040214ee6        0x2 
 .irom0.text    0x0000000040214ee8      0xf29 build/app_app.a(printf.o)
                                        0xffd (size before relaxing)
                0x000000004021507c                strtol
                0x000000004021517c                t_vsnprintf
                0x0000000040215de8                t_snprintf
 *fill*         0x0000000040215e11        0x3 
 .irom0.text    0x0000000040215e14      0x5f9 build/app_app.a(time.o)
                                        0x6dd (size before relaxing)
                0x0000000040215e18                tm_wday_to_ascii
                0x0000000040215e30                tm_mon_to_ascii
                0x0000000040215e60                time_to_tm
                0x0000000040215fc4                timegm
                0x000000004021606c                asctime_r
                0x00000000402160bc                asctime
                0x00000000402160d8                ctime_r
                0x0000000040216110                ctime
                0x0000000040216144                ctime_gm
                0x0000000040216164                gmtime_r
                0x0000000040216188                gmtime
                0x00000000402161a8                localtime_r
                0x00000000402161d4                localtime
                0x0000000040216200                mktime
                0x0000000040216220                gettimezone
                0x0000000040216230                settimezone
                0x0000000040216240                gettimeofday
                0x0000000040216280                time
                0x00000000402162a0                settimeofday
                0x00000000402162dc                clock_set
                0x0000000040216314                setdate_r
 *fill*         0x000000004021640d        0x3 
 .irom0.text    0x0000000040216410      0x1e5 build/app_app.a(timer_hal.o)
                                        0x269 (size before relaxing)
                0x0000000040216414                clock_clear
                0x0000000040216448                disable_timers
                0x000000004021646c                enable_timers
                0x00000000402164a8                clock_init
                0x0000000040216508                init_timers
                0x0000000040216584                clock_getres
                0x0000000040216590                clock_gettime
                0x00000000402165bc                clock_settime
 *fill*         0x00000000402165f5        0x3 
 .irom0.text    0x00000000402165f8      0x598 build/app_app.a(uart.o)
                                        0x634 (size before relaxing)
                0x00000000402165fc                tx_fifo_used
                0x0000000040216614                tx_fifo_free
                0x0000000040216634                tx_fifo_empty
                0x0000000040216654                rx_fifo_used
                0x0000000040216664                rx_fifo_free
                0x0000000040216674                rx_fifo_empty
                0x000000004021668c                tx_fifo_putc
                0x00000000402166bc                rx_fifo_getc
                0x00000000402166e0                tx_fifo_write
                0x000000004021674c                rx_fifo_read
                0x0000000040216790                uart_putc
                0x0000000040216804                uart0_putc
                0x0000000040216818                uart1_putc
                0x000000004021682c                uart_getc
                0x0000000040216858                uart0_getc
                0x0000000040216884                uart1_getc
                0x00000000402168c4                uart0_gets_init
                0x000000004021691c                uart0_gets
                0x000000004021699c                uart_config
                0x0000000040216aec                uart_init
                0x0000000040216b50                uart_reattach
                0x0000000040216b68                UART_SetPrintPort
 .irom0.text    0x0000000040216b90      0x2d0 build/app_app.a(util.o)
                                        0x2f4 (size before relaxing)
                0x0000000040216b90                reset
                0x0000000040216ba4                wdt_reset
                0x0000000040216bb4                free
                0x0000000040216bc8                calloc
                0x0000000040216be0                malloc
                0x0000000040216bf4                skipspaces
                0x0000000040216c34                nextspace
                0x0000000040216c58                skipchars
                0x0000000040216c8c                trim_tail
                0x0000000040216cd8                strnalloc
                0x0000000040216d18                stralloc
                0x0000000040216d54                get_token
                0x0000000040216dcc                token
                0x0000000040216e2c                hexd
 .irom0.text    0x0000000040216e60      0x396 build/app_app.a(ili9341.o)
                                        0x3e2 (size before relaxing)
                0x0000000040216e74                tft_readRegister
                0x0000000040216ef0                tft_readId
                0x0000000040216f38                tft_setRotation
                0x0000000040216fc0                tft_init
                0x00000000402170a4                tft_invertDisplay
                0x00000000402170e0                tft_window_init
                0x0000000040217114                tft_setTextColor
                0x000000004021711c                tft_setpos
                0x0000000040217124                tft_set_font
                0x000000004021712c                tft_font_fixed
                0x000000004021713c                tft_font_var
                0x0000000040217150                tft_cleareol
                0x00000000402171a4                tft_clearline
 *fill*         0x00000000402171f6        0x2 
 .irom0.text    0x00000000402171f8      0x377 build/app_app.a(network.o)
                                        0x4c3 (size before relaxing)
                0x000000004021723c                wifi_event_cb
                0x0000000040217408                setup_networking
 *fill*         0x000000004021756f        0x1 
 .irom0.text    0x0000000040217570      0x1d7 build/app_app.a(timer.o)
                                        0x247 (size before relaxing)
                0x0000000040217578                set_timers
                0x00000000402175d4                kill_timer
                0x00000000402175f4                delete_all_timers
                0x0000000040217628                subtract_timespec
                0x0000000040217654                ts_to_str
                0x000000004021767c                display_ts
                0x00000000402176ac                clock_elapsed_begin
                0x00000000402176cc                clock_elapsed_end
 *fill*         0x0000000040217747        0x1 
 .irom0.text    0x0000000040217748      0xeed build/app_app.a(ili9341_adafruit.o)
                                        0xfe9 (size before relaxing)
                0x000000004021774c                tft_configRegister
                0x00000000402179cc                tft_drawBitmap
                0x0000000040217a00                tft_drawCircle
                0x0000000040217c20                tft_drawCircleHelper
                0x0000000040217e4c                tft_fillCircleHelper
                0x0000000040217ff0                tft_fillCircle
                0x0000000040218060                tft_drawRect
                0x00000000402180f4                tft_drawRoundRect
                0x0000000040218250                tft_fillRoundRect
                0x0000000040218320                tft_drawTriangle
                0x00000000402183a8                tft_fillTriangle
 *fill*         0x0000000040218635        0x3 
 .irom0.text    0x0000000040218638      0x551 build/app_app.a(cordic.o)
                                        0x65d (size before relaxing)
                0x0000000040218644                deg2rad
                0x0000000040218668                angle_quad
                0x00000000402186e4                cordic_quad
                0x0000000040218798                cordic_deg
                0x00000000402187c4                cordic_rad
                0x0000000040218800                scale_point
                0x0000000040218854                shift_point
                0x00000000402188a4                rotate
                0x0000000040218acc                PerspectiveProjection
 *fill*         0x0000000040218b89        0x3 
 .irom0.text    0x0000000040218b8c       0xfa /opt/Espressif/esp-open-sdk/sdk/lib/libphy.a(phy.o)
                                        0x11e (size before relaxing)
                0x0000000040218b90                rf_init
                0x0000000040218bac                bb_init
                0x0000000040218bc4                phy_init
                0x0000000040218bf4                RFChannelSel
                0x0000000040218c10                phy_delete_channel
                0x0000000040218c28                phy_enable_agc
                0x0000000040218c40                phy_disable_agc
                0x0000000040218c58                phy_initialize_bb
                0x0000000040218c70                phy_set_sense
 *fill*         0x0000000040218c86        0x2 
 .irom0.text    0x0000000040218c88     0x18d0 /opt/Espressif/esp-open-sdk/sdk/lib/libphy.a(phy_chip_v6_ana.o)
                                       0x1b00 (size before relaxing)
                0x0000000040218c8c                ram_pbus_set_rxgain
                0x0000000040218d64                ram_pbus_debugmode
                0x0000000040218e18                ram_pbus_xpd_tx_on
                0x0000000040218e84                set_rf_freq_offset
                0x0000000040218ef4                chip_v6_rxmax_ext_ana
                0x0000000040219044                ram_chip_v6_rx_init
                0x0000000040219078                tsen_meas
                0x0000000040219128                readvdd33
                0x00000000402192bc                txpwr_offset
                0x000000004021937c                set_txcap_reg
                0x00000000402193fc                ram_ana_inf_gating_en
                0x000000004021955c                ram_restart_cal
                0x00000000402195c8                wait_rfpll_cal_end
                0x000000004021965c                ram_rfpll_set_freq
                0x0000000040219768                ram_set_channel_freq
                0x0000000040219aa0                chip_60_set_channel
                0x0000000040219c68                chip_v6_set_chan_offset
                0x0000000040219ca0                chip_v6_set_chan
                0x0000000040219d18                chip_v6_set_chan_wakeup
                0x0000000040219d98                chip_v6_rf_init
                0x0000000040219fa4                low_power_set
                0x000000004021a004                test_tout
                0x000000004021a248                check_data_flag
                0x000000004021a26c                phy_get_check_flag
                0x000000004021a3dc                phy_get_vdd33
 .irom0.text    0x000000004021a558     0x393c /opt/Espressif/esp-open-sdk/sdk/lib/libphy.a(phy_chip_v6.o)
                                       0x3f50 (size before relaxing)
                0x000000004021a558                ram_tx_mac_enable
                0x000000004021a55c                rtc_mem_backup
                0x000000004021a58c                rtc_mem_recovery
                0x000000004021a5bc                set_cal_rxdc
                0x000000004021a670                set_rx_gain_cal_iq
                0x000000004021a9c8                gen_rx_gain_table
                0x000000004021ab08                pbus_set_rxbbgain
                0x000000004021ab88                set_rx_gain_testchip_50
                0x000000004021ae98                ram_get_corr_power
                0x000000004021af88                check_data_func
                0x000000004021afa8                do_noisefloor_lsleep_v50
                0x000000004021afdc                do_noisefloor
                0x000000004021b04c                start_dig_rx
                0x000000004021b090                stop_dig_rx
                0x000000004021b0bc                chip_v6_set_chanfreq
                0x000000004021b0f0                tx_cap_init
                0x000000004021b2b0                target_power_add_backoff
                0x000000004021b300                tx_pwctrl_init_cal
                0x000000004021b468                tx_atten_set_interp
                0x000000004021b6e4                tx_pwctrl_init
                0x000000004021b7d8                ram_get_noisefloor
                0x000000004021b7f4                get_noisefloor_sat
                0x000000004021b824                ram_set_noise_floor
                0x000000004021b880                ram_start_noisefloor
                0x000000004021b8cc                read_hw_noisefloor
                0x000000004021b8f8                noise_check_loop
                0x000000004021ba54                noise_init
                0x000000004021bc50                target_power_backoff
                0x000000004021bca4                sdt_on_noise_start
                0x000000004021bd28                chip_v6_set_chan_rx_cmp
                0x000000004021beb0                chip_v6_set_chan_misc
                0x000000004021bf2c                phy_dig_spur_set
                0x000000004021c28c                phy_dig_spur_prot
                0x000000004021c4c4                chip_v6_rxmax_ext_dig
                0x000000004021c510                chip_v6_rxmax_ext
                0x000000004021c5c8                phy_bb_rx_cfg
                0x000000004021c9c8                uart_wait_idle
                0x000000004021ca00                phy_pbus_soc_cfg
                0x000000004021cac4                phy_gpio_cfg
                0x000000004021ce0c                tx_cont_en
                0x000000004021ceb4                tx_cont_dis
                0x000000004021cf08                tx_cont_cfg
                0x000000004021cf2c                chip_v6_initialize_bb
                0x000000004021d098                periodic_cal
                0x000000004021d1a4                bbpll_cal
                0x000000004021d23c                periodic_cal_top
                0x000000004021d29c                register_chipv6_phy_init_param
                0x000000004021d53c                change_bbpll160_sleep
                0x000000004021d62c                change_bbpll160
                0x000000004021d664                set_crystal_uart
                0x000000004021d6dc                ant_switch_init
                0x000000004021d788                reduce_current_init
                0x000000004021d7f0                rtc_mem_check
                0x000000004021d828                phy_afterwake_set_rfoption
                0x000000004021d854                deep_sleep_set_option
                0x000000004021d8d0                register_chipv6_phy
                0x000000004021db90                set_dpd_bypass
                0x000000004021dbe8                set_rf_gain_stage10
                0x000000004021dc18                get_vdd33_offset
                0x000000004021dc8c                get_phy_target_power
                0x000000004021dd3c                set_most_pwr_reg
                0x000000004021de10                phy_set_most_tpw
                0x000000004021de34                phy_vdd33_set_tpw
                0x000000004021de4c                get_adc_rand
                0x000000004021de80                phy_get_rand
 .irom0.text    0x000000004021de94     0x2148 /opt/Espressif/esp-open-sdk/sdk/lib/libphy.a(phy_chip_v6_cal.o)
                                       0x2388 (size before relaxing)
                0x000000004021de94                txbbgain2dcoindex
                0x000000004021deb4                dcoindex2txbbgain
                0x000000004021ded8                init_cal_dcoffset
                0x000000004021df9c                set_rfanagain_dc_reg
                0x000000004021e038                set_txdc_pbus
                0x000000004021e0a4                get_rf_gain_qdb
                0x000000004021e0cc                correct_rf_ana_gain
                0x000000004021e1d4                get_sar_dout
                0x000000004021e26c                cal_rf_ana_gain
                0x000000004021e344                meas_tone_pwr_db
                0x000000004021e3b4                tx_pwr_backoff
                0x000000004021e500                get_fcc_1m2m_pwr_offset
                0x000000004021e53c                ram_set_txbb_atten
                0x000000004021e5d0                txiq_get_mis_pwr
                0x000000004021e674                txiq_cover
                0x000000004021e88c                ram_rfcal_txiq
                0x000000004021eafc                rc_cal
                0x000000004021ecbc                get_target_power_offset
                0x000000004021edc4                get_pwctrl_correct
                0x000000004021ee1c                tx_pwctrl_cal
                0x000000004021f15c                tx_pwctrl_bg_init
                0x000000004021f1d8                tx_pwctrl_background
                0x000000004021f290                read_sar_dout
                0x000000004021f2f4                ram_get_fm_sar_dout
                0x000000004021f398                ram_cal_tos_v60
                0x000000004021f578                ram_get_bb_atten
                0x000000004021f5a8                ram_rfcal_txcap
                0x000000004021f76c                ram_rfcal_pwrctrl
                0x000000004021f998                ram_rxiq_get_mis
                0x000000004021fb68                ram_rxiq_cover_mg_mp
                0x000000004021fd0c                ram_rfcal_rxiq
                0x000000004021ff18                dpd_scale_set
                0x000000004021ff60                dpd_mem_write
 .irom0.text    0x000000004021ffdc      0x271 /opt/Espressif/esp-open-sdk/sdk/lib/libphy.a(phy_chip_v6_unused.o)
                                        0x2fd (size before relaxing)
                0x000000004021ffdc                chip_v6_set_sense
                0x000000004021ffe0                chip_v6_get_sense
                0x000000004021ffe4                chip_v6_unset_chanfreq
                0x000000004021fff0                data_collect
                0x00000000402200c4                operation_test
                0x000000004022013c                slop_wdt_feed
                0x0000000040220150                slop_test
                0x0000000040220204                wd_reset_cnt
 *fill*         0x000000004022024d        0x3 
 .irom0.text    0x0000000040220250      0xd12 /opt/Espressif/esp-open-sdk/sdk/lib/libphy.a(phy_sleep.o)
                                        0xf2e (size before relaxing)
                0x0000000040220250                pm_usec2rtc
                0x0000000040220284                pm_rtc2usec
                0x0000000040220294                pm_set_sleep_cycles
                0x00000000402202bc                pm_sleep_opt
                0x00000000402203c0                pm_wakeup_opt
                0x00000000402203f8                get_chip_version
                0x0000000040220438                pm_sleep_opt_bb_off
                0x0000000040220478                pm_sleep_opt_bb_on
                0x00000000402204c4                pm_set_pll_xtal_wait_time
                0x000000004022050c                pm_prepare_to_sleep
                0x0000000040220530                pm_sdio_nidle
                0x00000000402205a4                chg_lslp_mem_opt_8266
                0x00000000402205d4                pm_goto_sleep
                0x0000000040220720                pm_wait4wakeup
                0x0000000040220758                pm_open_rf
                0x000000004022079c                pm_sleep_set_mac
                0x0000000040220820                pm_set_wakeup_mac
                0x00000000402208bc                pm_check_mac_idle
                0x0000000040220914                pm_set_sleep_btco
                0x00000000402209b4                pm_set_wakeup_btco
                0x0000000040220ac8                pm_set_sleep_mode
                0x0000000040220b98                pm_unmask_bt
                0x0000000040220bfc                pm_wakeup_init
                0x0000000040220e04                sleep_opt_8266
                0x0000000040220e24                sleep_opt_bb_on_8266
                0x0000000040220e60                sleep_reset_analog_rtcreg_8266
 *fill*         0x0000000040220f62        0x2 
 .irom0.text    0x0000000040220f64      0x401 /opt/Espressif/esp-open-sdk/sdk/lib/libpp.a(if_hwctrl.o)
                                        0x4f9 (size before relaxing)
                0x0000000040220f68                ic_get_addr
                0x0000000040220f74                ic_set_opmode
                0x0000000040220f8c                ic_enable_interface
                0x0000000040220fdc                ic_interface_enabled
                0x0000000040220ff0                ic_disable_interface
                0x0000000040221038                ic_is_pure_sta
                0x0000000040221054                ic_get_ptk_alg
                0x0000000040221064                ic_get_gtk_alg
                0x0000000040221074                ic_set_ptk_alg
                0x0000000040221084                ic_set_gtk_alg
                0x0000000040221094                ic_interface_is_p2p
                0x0000000040221120                ic_set_vif
                0x00000000402211bc                ic_set_sta
                0x0000000040221274                ic_bss_info_update
                0x00000000402212d0                ic_set_key
                0x000000004022132c                ic_remove_key
                0x0000000040221340                ic_get_rssi
 *fill*         0x0000000040221365        0x3 
 .irom0.text    0x0000000040221368       0xfc /opt/Espressif/esp-open-sdk/sdk/lib/libpp.a(lmac.o)
                                        0x114 (size before relaxing)
                0x000000004022136c                lmacInitAc
                0x00000000402213a0                lmacInit
                0x0000000040221448                lmacSetRetryLimit
 .irom0.text    0x0000000040221464     0x19b9 /opt/Espressif/esp-open-sdk/sdk/lib/libpp.a(pm.o)
                                       0x1f35 (size before relaxing)
                0x000000004022146c                pm_rtc_clock_cali_proc
                0x00000000402214a4                pm_get_ck170_period
                0x00000000402214c8                pm_set_sleep_time
                0x0000000040221784                pm_rf_is_closed
                0x00000000402217bc                pm_set_sleep_type_from_upper
                0x00000000402218b0                pm_get_sleep_type
                0x0000000040221a84                uart_tx_flush
                0x0000000040221a88                pm_suspend
                0x0000000040221cc4                pm_shutdown
                0x0000000040221da0                pm_reset_idle_sleep
                0x0000000040221de0                pm_idle_sleep
                0x0000000040221dec                pm_open
                0x0000000040221ed0                pm_onBcnRx
                0x0000000040222264                StopLightSleepSetFunc
                0x000000004022226c                LightSleepWakedCbSetFunc
                0x0000000040222844                pm_enable_gpio_wakeup
                0x000000004022287c                pm_attach
                0x000000004022296c                pm_send_nullfunc
                0x0000000040222b10                pm_is_waked
                0x0000000040222b28                pm_is_open
                0x0000000040222b40                pm_scan_lock
                0x0000000040222b68                pm_try_scan_unlock
                0x0000000040222b80                pm_force_scan_unlock
                0x0000000040222c3c                pm_scan_unlocked
                0x0000000040222c50                pm_allow_tx
                0x0000000040222c6c                pm_assoc_parse
                0x0000000040222c84                pm_set_addr
                0x0000000040222ca4                pm_sleep_for
                0x0000000040222cd8                pm_post
                0x0000000040222ddc                pm_get_idle_wait_time
 *fill*         0x0000000040222e1d        0x3 
 .irom0.text    0x0000000040222e20      0x9a5 /opt/Espressif/esp-open-sdk/sdk/lib/libpp.a(pm_for_bcn_only_mode.o)
                                        0xcbd (size before relaxing)
                0x0000000040222e3c                fpm_set_type_from_upper
                0x0000000040222f00                fpm_get_slp_type
                0x0000000040222f08                fpm_rf_is_closed
                0x0000000040222f1c                fpm_is_open
                0x0000000040222f28                fpm_allow_tx
                0x0000000040222f4c                fpm_close
                0x0000000040222fc8                fpm_open
                0x0000000040223030                fpm_attach
                0x00000000402232cc                fpm_do_wakeup
                0x000000004022374c                fpm_do_sleep
 *fill*         0x00000000402237c5        0x3 
 .irom0.text    0x00000000402237c8     0x1346 /opt/Espressif/esp-open-sdk/sdk/lib/libpp.a(pp.o)
                                       0x170a (size before relaxing)
                0x00000000402237cc                PPWdtReset
                0x00000000402237f4                pp_soft_wdt_init
                0x0000000040223818                pp_soft_wdt_stop
                0x0000000040223818                system_soft_wdt_stop
                0x0000000040223844                pp_soft_wdt_restart
                0x0000000040223844                system_soft_wdt_restart
                0x0000000040223870                RxNodeNum
                0x0000000040223894                TxNodeNum
                0x00000000402238b8                pp_disable_noise_timer
                0x00000000402238d8                pp_enable_noise_timer
                0x00000000402239e8                pp_noise_test
                0x00000000402239f8                reset_noise_timer
                0x0000000040223a30                pp_disable_idle_timer
                0x0000000040223a54                pp_enable_idle_timer
                0x0000000040223a7c                pp_try_enable_idle_timer
                0x0000000040223ab4                ppPeocessRxPktHdr
                0x0000000040223d8c                ppTxPkt
                0x0000000040223e98                ppProcessWaitQ
                0x0000000040223ea8                ppRegisterTxCallback
                0x0000000040223edc                ppRecycleRxPkt
                0x0000000040223f38                ppCheckTxIdle
                0x00000000402241a4                pp_tx_idle_timeout
                0x000000004022465c                ppGetTxQFirstAvail_Locked
                0x000000004022473c                pp_attach
 *fill*         0x0000000040224b0e        0x2 
 .irom0.text    0x0000000040224b10      0x296 /opt/Espressif/esp-open-sdk/sdk/lib/libpp.a(rate_control.o)
                                        0x2a2 (size before relaxing)
                0x0000000040224d5c                RC_SetBasicRate
 *fill*         0x0000000040224da6        0x2 
 .irom0.text    0x0000000040224da8      0x3d5 /opt/Espressif/esp-open-sdk/sdk/lib/libpp.a(trc.o)
                                        0x431 (size before relaxing)
                0x0000000040224dd0                rcUpdatePhyMode
                0x0000000040224eac                rcAttach
                0x0000000040224ef8                rcGetTrc
                0x0000000040224f00                trc_onDisconnect
                0x0000000040224f04                trc_onScanStart
                0x0000000040224f18                trc_onScanDone
                0x0000000040224f34                rc_enable_trc
                0x0000000040224ffc                rc_get_mask
                0x0000000040225010                rc_disable_trc
                0x0000000040225064                rc_disable_trc_by_interface
                0x0000000040225080                rc_get_sta_trc
                0x00000000402250c0                rc_get_trc
                0x0000000040225130                rc_get_trc_by_index
                0x0000000040225150                rc_only_sta_trc
 *fill*         0x000000004022517d        0x3 
 .irom0.text    0x0000000040225180      0xaf7 /opt/Espressif/esp-open-sdk/sdk/lib/libpp.a(wdev.o)
                                        0xc4f (size before relaxing)
                0x000000004022518c                wDev_Option_Init
                0x0000000040225280                wDev_Enable_Beacon_Tsf
                0x000000004022529c                wDev_Disable_Beacon_Tsf
                0x00000000402252b8                wDev_Set_Beacon_Int
                0x00000000402252c0                wDev_Reset_TBTT
                0x00000000402252f0                wDev_Get_Next_TBTT
                0x0000000040225568                wDev_Initialize
                0x00000000402255d8                wDevForceAck6M
                0x00000000402255f4                wDev_SetMacAddress
                0x0000000040225694                wDev_SetRxPolicy
                0x00000000402256e8                wDev_SetBssid
                0x00000000402257c0                wDev_ClearBssid
                0x00000000402257f8                wDev_Insert_KeyEntry
                0x00000000402258ec                wDev_remove_KeyEntry
                0x0000000040225928                wDev_remove_KeyEntry_all_cnx
                0x0000000040225978                wDev_Crypto_Conf
                0x0000000040225a14                wDev_Crypto_Disable
                0x0000000040225a4c                wDevEnableRx
                0x0000000040225a78                wdev_go_sniffer
                0x0000000040225b54                wdev_set_sniffer_addr
                0x0000000040225ba8                wdev_exit_sniffer
 *fill*         0x0000000040225c77        0x1 
 .irom0.text    0x0000000040225c78      0x3bf /opt/Espressif/esp-open-sdk/sdk/lib/libpp.a(esf_buf.o)
                                        0x483 (size before relaxing)
                0x0000000040225c7c                esf_buf_alloc
                0x0000000040225e10                esf_buf_recycle
                0x0000000040225f30                esf_buf_setup
 *fill*         0x0000000040226037        0x1 
 .irom0.text    0x0000000040226038      0x3a9 /opt/Espressif/esp-open-sdk/sdk/lib/libnet80211.a(ieee80211.o)
                                        0x45d (size before relaxing)
                0x00000000402260c8                ieee80211_ifattach
                0x0000000040226118                ieee80211_mhz2ieee
                0x0000000040226174                ieee80211_chan2ieee
                0x0000000040226190                ieee80211_ieee2mhz
                0x00000000402261d0                ieee80211_find_channel
                0x00000000402261fc                ieee80211_find_channel_byieee
                0x000000004022624c                wifi_mode_set
 *fill*         0x00000000402263e1        0x3 
 .irom0.text    0x00000000402263e4       0xc7 /opt/Espressif/esp-open-sdk/sdk/lib/libnet80211.a(ieee80211_crypto.o)
                                         0xcf (size before relaxing)
                0x00000000402263e4                ieee80211_crypto_attach
                0x00000000402263e8                ieee80211_crypto_available
                0x00000000402263ec                ieee80211_crypto_setkey
                0x00000000402263f0                ieee80211_crypto_encap
                0x0000000040226440                ieee80211_crypto_decap
 *fill*         0x00000000402264ab        0x1 
 .irom0.text    0x00000000402264ac       0x4c /opt/Espressif/esp-open-sdk/sdk/lib/libnet80211.a(ieee80211_ets.o)
                                         0x50 (size before relaxing)
                0x00000000402264b0                ieee80211_getmgtframe
 .irom0.text    0x00000000402264f8     0x12e2 /opt/Espressif/esp-open-sdk/sdk/lib/libnet80211.a(ieee80211_hostap.o)
                                       0x1722 (size before relaxing)
                0x00000000402269a0                ieee80211_hostap_attach
                0x0000000040226a7c                hostap_handle_timer
                0x0000000040226b10                hostap_input
                0x0000000040227504                wifi_softap_start
                0x000000004022765c                wifi_softap_stop
 *fill*         0x00000000402277da        0x2 
 .irom0.text    0x00000000402277dc      0xa4a /opt/Espressif/esp-open-sdk/sdk/lib/libnet80211.a(ieee80211_ht.o)
                                        0xb16 (size before relaxing)
                0x00000000402277ec                ieee80211_ht_attach
                0x000000004022783c                ieee80211_ht_node_init
                0x0000000040227878                ieee80211_ht_node_cleanup
                0x00000000402278b0                ieee80211_parse_htcap
                0x0000000040227984                ieee80211_ht_updateparams
                0x0000000040227a8c                ieee80211_setup_htrates
                0x0000000040227b58                ieee80211_setup_basic_htrates
                0x0000000040227e90                ieee80211_add_htcap
                0x0000000040227eac                ieee80211_add_htcap_vendor
                0x0000000040227fd0                ieee80211_add_htinfo
                0x0000000040227fec                ieee80211_add_htinfo_vendor
 *fill*         0x0000000040228226        0x2 
 .irom0.text    0x0000000040228228      0x958 /opt/Espressif/esp-open-sdk/sdk/lib/libnet80211.a(ieee80211_input.o)
                                        0x9d0 (size before relaxing)
                0x0000000040228228                ieee80211_deliver_data
                0x000000004022827c                ieee80211_decap
                0x0000000040228380                ieee80211_setup_rates
                0x00000000402283ec                ieee80211_alloc_challenge
                0x0000000040228424                ieee80211_parse_beacon
                0x00000000402288cc                ieee80211_parse_wpa
                0x00000000402289e0                ieee80211_parse_rsn
                0x0000000040228ae0                ieee80211_parse_action
                0x0000000040228b7c                ieee80211_setup_rateset
 .irom0.text    0x0000000040228b80     0x16a9 /opt/Espressif/esp-open-sdk/sdk/lib/libnet80211.a(ieee80211_output.o)
                                       0x1951 (size before relaxing)
                0x0000000040228b84                ieee80211_output_pbuf
                0x0000000040228de0                ieee80211_send_setup
                0x0000000040228f14                ieee80211_mgmt_output
                0x0000000040228ff8                ieee80211_tx_mgt_cb
                0x0000000040228ffc                ieee80211_send_nulldata
                0x0000000040229458                ieee80211_add_rates
                0x0000000040229490                ieee80211_add_xrates
                0x0000000040229554                ieee80211_send_probereq
                0x0000000040229700                ieee80211_getcapinfo
                0x0000000040229758                ieee80211_send_mgmt
                0x0000000040229c78                ieee80211_alloc_proberesp
                0x0000000040229dd4                ieee80211_send_proberesp
                0x000000004022a0f0                ieee80211_beacon_alloc
 *fill*         0x000000004022a229        0x3 
 .irom0.text    0x000000004022a22c      0x147 /opt/Espressif/esp-open-sdk/sdk/lib/libnet80211.a(ieee80211_phy.o)
                                        0x16f (size before relaxing)
                0x000000004022a230                ieee80211_get_11g_ratetable
                0x000000004022a23c                ieee80211_get_ratetable
                0x000000004022a254                ieee80211_phy_init
                0x000000004022a288                ieee80211_phy_type_get
                0x000000004022a298                ieee80211_setup_ratetable
                0x000000004022a2cc                ieee80211_compute_duration
                0x000000004022a34c                ieee80211_dot11Rate_rix
 *fill*         0x000000004022a373        0x1 
 .irom0.text    0x000000004022a374      0x1b6 /opt/Espressif/esp-open-sdk/sdk/lib/libnet80211.a(ieee80211_power.o)
                                        0x1f2 (size before relaxing)
                0x000000004022a374                ieee80211_psq_init
                0x000000004022a394                ieee80211_psq_cleanup
                0x000000004022a39c                ieee80211_set_tim
                0x000000004022a3dc                ieee80211_pwrsave
                0x000000004022a444                pwrsave_flushq
                0x000000004022a4f4                ieee80211_node_pwrsave
 *fill*         0x000000004022a52a        0x2 
 .irom0.text    0x000000004022a52c      0x15b /opt/Espressif/esp-open-sdk/sdk/lib/libnet80211.a(ieee80211_proto.o)
                                        0x177 (size before relaxing)
                0x000000004022a530                ieee80211_proto_attach
                0x000000004022a558                ieee80211_set_shortslottime
                0x000000004022a574                ieee80211_iserp_rateset
                0x000000004022a608                ieee80211_setbasicrates
                0x000000004022a61c                ieee80211_addbasicrates
                0x000000004022a630                ieee80211_wme_initparams
                0x000000004022a634                ieee80211_wme_updateparams
                0x000000004022a638                ieee80211_mlme_connect_bss
 *fill*         0x000000004022a687        0x1 
 .irom0.text    0x000000004022a688      0xdb8 /opt/Espressif/esp-open-sdk/sdk/lib/libnet80211.a(ieee80211_scan.o)
                                       0x10c0 (size before relaxing)
                0x000000004022a694                ieee80211_scan_attach
                0x000000004022a724                scan_start
                0x000000004022a894                scan_pm_channel_op_cb
                0x000000004022aa34                scan_cancel
                0x000000004022ab6c                scan_add_bssid
                0x000000004022ab90                scan_remove_bssid
                0x000000004022ab9c                scan_hidden_ssid
                0x000000004022aba4                scan_add_probe_ssid
                0x000000004022abe4                scan_remove_probe_ssid
                0x000000004022ad20                scan_clear_channles
                0x000000004022ad94                scan_set_desChan
                0x000000004022ada0                scan_get_type
                0x000000004022ada8                cannel_scan_connect_state
                0x000000004022adc0                scan_connect_state
                0x000000004022ae08                scan_check_hidden
                0x000000004022ae30                scan_profile_check
                0x000000004022b150                scan_parse_beacon
 .irom0.text    0x000000004022b440      0xc56 /opt/Espressif/esp-open-sdk/sdk/lib/libnet80211.a(ieee80211_sta.o)
                                        0xe41 (size before relaxing)
                0x000000004022b46c                sta_status_set
                0x000000004022b4b4                ieee80211_sta_new_state
                0x000000004022b78c                sta_input
                0x000000004022bb08                ieee80211_parse_wmeparams
                0x000000004022bfec                wifi_station_start
                0x000000004022c05c                wifi_station_stop
 *fill*         0x000000004022c096        0x2 
 .irom0.text    0x000000004022c098      0x29e /opt/Espressif/esp-open-sdk/sdk/lib/libnet80211.a(wl_chm.o)
                                        0x31e (size before relaxing)
                0x000000004022c0a4                chm_init
                0x000000004022c108                chm_acquire_lock
                0x000000004022c14c                chm_release_lock
                0x000000004022c160                chm_start_op
                0x000000004022c204                chm_end_op
                0x000000004022c24c                chm_cancel_op
                0x000000004022c280                chm_return_home_channel
                0x000000004022c2b0                chm_set_current_channel
                0x000000004022c2e0                chm_freq2index
                0x000000004022c308                chm_check_same_channel
 *fill*         0x000000004022c336        0x2 
 .irom0.text    0x000000004022c338     0x14d3 /opt/Espressif/esp-open-sdk/sdk/lib/libnet80211.a(wl_cnx.o)
                                       0x1907 (size before relaxing)
                0x000000004022c344                cnx_attach
                0x000000004022c384                cnx_sta_connect_led_timer_cb
                0x000000004022c3dc                cnx_sta_connect_cmd
                0x000000004022c498                cnx_sta_scan_cmd
                0x000000004022c6d8                cnx_connect_timeout
                0x000000004022c740                cnx_start_handoff_cb
                0x000000004022cb88                cnx_bss_alloc
                0x000000004022cc2c                cnx_rc_search
                0x000000004022ccf4                cnx_add_rc
                0x000000004022cdf0                cnx_remove_rc
                0x000000004022cf50                cnx_rc_update_rssi
                0x000000004022cfd8                cnx_rc_update_state_metric
                0x000000004022d044                cnx_rc_update_age
                0x000000004022d068                cnx_update_bss
                0x000000004022d09c                cnx_update_bss_more
                0x000000004022d23c                cnx_sta_leave
                0x000000004022d380                cnx_sta_associated
                0x000000004022d418                cnx_node_alloc
                0x000000004022d484                cnx_node_remove
                0x000000004022d4fc                cnx_node_search
                0x000000004022d578                cnx_node_leave
                0x000000004022d65c                cnx_node_join
 *fill*         0x000000004022d80b        0x1 
 .irom0.text    0x000000004022d80c      0x16f /opt/Espressif/esp-open-sdk/sdk/lib/libnet80211.a(ieee80211_action.o)
                                        0x193 (size before relaxing)
                0x000000004022d81c                ieee80211_send_action_register
                0x000000004022d850                ieee80211_send_action_unregister
                0x000000004022d864                ieee80211_send_action
                0x000000004022d8d0                ieee80211_recv_action_register
                0x000000004022d904                ieee80211_recv_action_unregister
                0x000000004022d918                ieee80211_recv_action
 *fill*         0x000000004022d97b        0x1 
 .irom0.text    0x000000004022d97c      0x451 /opt/Espressif/esp-open-sdk/sdk/lib/libnet80211.a(ieee80211_action_vendor.o)
                                        0x4c9 (size before relaxing)
                0x000000004022d980                get_iav_key
                0x000000004022d9a0                register_ieee80211_action_vendor_get_key_cb
                0x000000004022d9b4                unregister_ieee80211_action_vendor_get_key_cb
                0x000000004022d9c4                ieee80211_add_action_vendor_spec_esp
                0x000000004022da0c                ieee80211_alloc_action_vendor_spec
                0x000000004022daf8                ieee80211_send_action_vendor_spec
                0x000000004022dca4                ieee80211_recv_action_vendor_spec
                0x000000004022dd74                ieee80211_action_vendor_spec_attach
                0x000000004022ddb0                register_ieee80211_action_vendor_spec_cb
                0x000000004022ddc4                unregister_ieee80211_action_vendor_spec_cb
 *fill*         0x000000004022ddcd        0x3 
 .irom0.text    0x000000004022ddd0      0x131 /opt/Espressif/esp-open-sdk/sdk/lib/libnet80211.a(ieee80211_crypto_ccmp.o)
                                        0x135 (size before relaxing)
 *fill*         0x000000004022df01        0x3 
 .irom0.text    0x000000004022df04      0x1fd /opt/Espressif/esp-open-sdk/sdk/lib/libnet80211.a(ieee80211_ie_vendor.o)
                                        0x225 (size before relaxing)
                0x000000004022df08                ieee80211_add_ie_vendor_esp_head
                0x000000004022df40                ieee80211_add_ie_vendor_esp_mesh_assoc
                0x000000004022dfcc                ieee80211_add_ie_vendor_esp_mesh_group
                0x000000004022dffc                ieee80211_add_ie_vendor_esp_simple_pair
                0x000000004022e04c                ieee80211_add_ie_vendor_esp_freq_annon
                0x000000004022e084                ieee80211_add_ie_vendor_esp_now
                0x000000004022e0bc                ieee80211_add_ie_vendor_esp_manufacturer
 *fill*         0x000000004022e101        0x3 
 .irom0.text    0x000000004022e104     0x12c2 /opt/Espressif/esp-open-sdk/sdk/lib/liblwip.a(dhcp.o)
                                       0x149e (size before relaxing)
                0x000000004022e348                dhcp_coarse_tmr
                0x000000004022e390                dhcp_fine_tmr
                0x000000004022e5b8                dhcp_set_struct
                0x000000004022e5dc                dhcp_cleanup
                0x000000004022e600                dhcp_start
                0x000000004022e6b0                dhcp_inform
                0x000000004022e75c                dhcp_network_changed
                0x000000004022e7a4                dhcp_arp_reply
                0x000000004022ea30                dhcp_renew
                0x000000004022eca4                dhcp_release
                0x000000004022ed64                dhcp_stop
 *fill*         0x000000004022f3c6        0x2 
 .irom0.text    0x000000004022f3c8      0xa0b /opt/Espressif/esp-open-sdk/sdk/lib/liblwip.a(dhcpserver.o)
                                        0xb7f (size before relaxing)
                0x000000004022f3c8                node_insert_to_list
                0x000000004022f3e4                node_remove_from_list
                0x000000004022fb2c                dhcps_start
                0x000000004022fba4                dhcps_stop
                0x000000004022fc0c                wifi_softap_set_dhcps_lease
                0x000000004022fd24                dhcps_coarse_tmr
                0x000000004022fd90                wifi_softap_set_dhcps_offer_option
 *fill*         0x000000004022fdd3        0x1 
 .irom0.text    0x000000004022fdd4      0x5ab /opt/Espressif/esp-open-sdk/sdk/lib/liblwip.a(dns.o)
                                        0x667 (size before relaxing)
                0x000000004022fde0                dns_init
                0x000000004022fe34                dns_setserver
                0x000000004022fe50                dns_getserver
                0x000000004022fe64                dns_tmr
                0x0000000040230328                dns_gethostbyname
 *fill*         0x000000004023037f        0x1 
 .irom0.text    0x0000000040230380      0xe60 /opt/Espressif/esp-open-sdk/sdk/lib/liblwip.a(espconn_tcp.o)
                                       0x10f4 (size before relaxing)
                0x0000000040230410                espconn_kill_oldest_pcb
                0x000000004023047c                espconn_kill_pcb
                0x00000000402304f4                espconn_find_current_pcb
                0x00000000402307c8                espconn_tcp_sent
                0x0000000040230880                espconn_tcp_disconnect
                0x0000000040230900                espconn_recv_hold
                0x0000000040230944                espconn_recv_unhold
                0x0000000040230a40                espconn_tcp_write
                0x0000000040230c68                espconn_tcp_client
                0x00000000402310a0                espconn_tcp_server
                0x000000004023113c                espconn_tcp_delete
                0x00000000402311c4                espconn_init
 .irom0.text    0x00000000402311e0      0x8bb /opt/Espressif/esp-open-sdk/sdk/lib/liblwip.a(etharp.o)
                                        0x99b (size before relaxing)
                0x0000000040231214                etharp_tmr
                0x0000000040231434                etharp_cleanup_netif
                0x0000000040231470                etharp_find_addr
                0x00000000402316c8                etharp_output
                0x00000000402317dc                etharp_query
                0x0000000040231a00                etharp_request
                0x0000000040231a24                ethernet_input
 *fill*         0x0000000040231a9b        0x1 
 .irom0.text    0x0000000040231a9c       0x30 /opt/Espressif/esp-open-sdk/sdk/lib/liblwip.a(init.o)
                                         0x50 (size before relaxing)
                0x0000000040231aa0                lwip_init
 .irom0.text    0x0000000040231acc      0x37a /opt/Espressif/esp-open-sdk/sdk/lib/liblwip.a(ip_addr.o)
                                        0x3a2 (size before relaxing)
                0x0000000040231acc                ip4_addr_isbroadcast
                0x0000000040231af8                ip4_addr_netmask_valid
                0x0000000040231b38                ipaddr_addr
                0x0000000040231b54                ipaddr_aton
                0x0000000040231d70                ipaddr_ntoa
                0x0000000040231d84                ipaddr_ntoa_r
 *fill*         0x0000000040231e46        0x2 
 .irom0.text    0x0000000040231e48      0x581 /opt/Espressif/esp-open-sdk/sdk/lib/liblwip.a(ip.o)
                                        0x62d (size before relaxing)
                0x0000000040231e48                ip_route
                0x0000000040231ec4                ip_router
                0x0000000040231f40                ip_input
                0x0000000040232198                ip_output_if
                0x00000000402321b4                ip_output_if_opt
                0x0000000040232390                ip_output
 *fill*         0x00000000402323c9        0x3 
 .irom0.text    0x00000000402323cc      0x27d /opt/Espressif/esp-open-sdk/sdk/lib/liblwip.a(netif.o)
                                        0x2bd (size before relaxing)
                0x00000000402323cc                netif_init
                0x00000000402323d4                netif_add
                0x000000004023243c                netif_set_addr
                0x0000000040232464                netif_remove
                0x00000000402324c0                netif_find
                0x00000000402324fc                netif_set_ipaddr
                0x0000000040232564                netif_set_gw
                0x0000000040232574                netif_set_netmask
                0x0000000040232584                netif_set_default
                0x000000004023258c                netif_set_up
                0x00000000402325c8                netif_set_down
                0x00000000402325ec                netif_set_link_up
                0x0000000040232638                netif_set_link_down
 *fill*         0x0000000040232649        0x3 
 .irom0.text    0x000000004023264c      0x612 /opt/Espressif/esp-open-sdk/sdk/lib/liblwip.a(pbuf.o)
                                        0x65a (size before relaxing)
                0x000000004023264c                pbuf_alloc
                0x000000004023279c                pbuf_realloc
                0x00000000402327e4                pbuf_header
                0x0000000040232850                pbuf_free
                0x00000000402328c8                pbuf_clen
                0x00000000402328e0                pbuf_ref
                0x00000000402328ec                pbuf_cat
                0x0000000040232918                pbuf_chain
                0x0000000040232934                pbuf_dechain
                0x0000000040232970                pbuf_copy
                0x0000000040232a14                pbuf_copy_partial
                0x0000000040232a94                pbuf_take
                0x0000000040232af4                pbuf_coalesce
                0x0000000040232b28                pbuf_get_at
                0x0000000040232b50                pbuf_memcmp
                0x0000000040232bbc                pbuf_memfind
                0x0000000040232c14                pbuf_strstr
 *fill*         0x0000000040232c5e        0x2 
 .irom0.text    0x0000000040232c60      0x1df /opt/Espressif/esp-open-sdk/sdk/lib/liblwip.a(raw.o)
                                        0x233 (size before relaxing)
                0x0000000040232c68                raw_input
                0x0000000040232cf0                raw_bind
                0x0000000040232d00                raw_connect
                0x0000000040232d10                raw_recv
                0x0000000040232d18                raw_sendto
                0x0000000040232db4                raw_send
                0x0000000040232dc8                raw_remove
                0x0000000040232dfc                raw_new
 *fill*         0x0000000040232e3f        0x1 
 .irom0.text    0x0000000040232e40      0x879 /opt/Espressif/esp-open-sdk/sdk/lib/liblwip.a(sntp.o)
                                        0xa35 (size before relaxing)
                0x0000000040232e58                sntp_mktm_r
                0x0000000040233104                sntp_localtime_r
                0x0000000040233118                sntp_localtime
                0x0000000040233134                sntp__tzcalc_limits
                0x00000000402332e0                sntp_asctime_r
                0x000000004023332c                sntp_asctime
                0x0000000040233344                sntp_get_timezone
                0x0000000040233354                sntp_set_timezone
                0x0000000040233360                sntp_time_inc
                0x00000000402335f0                sntp_init
                0x0000000040233628                sntp_stop
                0x0000000040233668                sntp_setserver
                0x0000000040233684                sntp_getserver
                0x0000000040233698                sntp_setservername
                0x00000000402336a8                sntp_getservername
 *fill*         0x00000000402336b9        0x3 
 .irom0.text    0x00000000402336bc     0x1074 /opt/Espressif/esp-open-sdk/sdk/lib/liblwip.a(tcp_in.o)
                                       0x1240 (size before relaxing)
                0x00000000402336c0                tcp_input
 .irom0.text    0x0000000040234730      0xa27 /opt/Espressif/esp-open-sdk/sdk/lib/liblwip.a(tcp.o)
                                        0xb2b (size before relaxing)
                0x0000000040234734                tcp_tmr
                0x0000000040234758                tcp_close
                0x000000004023477c                tcp_shutdown
                0x00000000402347d8                tcp_abandon
                0x000000004023486c                tcp_abort
                0x0000000040234884                tcp_bind
                0x0000000040234900                tcp_listen_with_backlog
                0x00000000402349b0                tcp_update_rcv_ann_wnd
                0x00000000402349f4                tcp_recved
                0x0000000040234a50                tcp_connect
                0x0000000040234b5c                tcp_slowtmr
                0x0000000040234dcc                tcp_fasttmr
                0x0000000040234e48                tcp_segs_free
                0x0000000040234e64                tcp_seg_free
                0x0000000040234e8c                tcp_setprio
                0x0000000040234e94                tcp_recv_null
                0x0000000040234f4c                tcp_alloc
                0x0000000040235024                tcp_new
                0x0000000040235038                tcp_arg
                0x000000004023503c                tcp_recv
                0x0000000040235044                tcp_sent
                0x000000004023504c                tcp_err
                0x0000000040235054                tcp_accept
                0x0000000040235058                tcp_poll
                0x0000000040235060                tcp_pcb_purge
                0x00000000402350a8                tcp_pcb_remove
                0x0000000040235110                tcp_next_iss
                0x0000000040235124                tcp_eff_send_mss
 *fill*         0x0000000040235157        0x1 
 .irom0.text    0x0000000040235158      0xe83 /opt/Espressif/esp-open-sdk/sdk/lib/liblwip.a(tcp_out.o)
                                        0xf83 (size before relaxing)
                0x0000000040235250                tcp_send_fin
                0x000000004023542c                tcp_write
                0x0000000040235768                tcp_enqueue_flags
                0x000000004023584c                tcp_send_empty_ack
                0x00000000402358e0                tcp_output
                0x0000000040235be4                tcp_rst
                0x0000000040235d24                tcp_rexmit_rto
                0x0000000040235d60                tcp_rexmit
                0x0000000040235e0c                tcp_rexmit_fast
                0x0000000040235e64                tcp_keepalive
                0x0000000040235ee4                tcp_zero_window_probe
 *fill*         0x0000000040235fdb        0x1 
 .irom0.text    0x0000000040235fdc      0x2a7 /opt/Espressif/esp-open-sdk/sdk/lib/liblwip.a(timers.o)
                                        0x32b (size before relaxing)
                0x000000004023601c                tcp_timer_needed
                0x00000000402360a4                sys_timeouts_init
                0x0000000040236100                sys_timeout
                0x0000000040236174                sys_untimeout
                0x00000000402361c0                sys_check_timeouts
                0x0000000040236274                sys_restart_timeouts
 *fill*         0x0000000040236283        0x1 
 .irom0.text    0x0000000040236284      0x559 /opt/Espressif/esp-open-sdk/sdk/lib/liblwip.a(udp.o)
                                        0x60d (size before relaxing)
                0x0000000040236288                udp_input
                0x00000000402364d8                udp_send
                0x00000000402364ec                udp_sendto
                0x0000000040236538                udp_sendto_if
                0x0000000040236680                udp_bind
                0x00000000402366fc                udp_connect
                0x0000000040236758                udp_disconnect
                0x0000000040236770                udp_recv
                0x0000000040236778                udp_remove
                0x00000000402367ac                udp_new
 *fill*         0x00000000402367dd        0x3 
 .irom0.text    0x00000000402367e0      0x922 /opt/Espressif/esp-open-sdk/sdk/lib/liblwip.a(espconn.o)
                                        0xa0a (size before relaxing)
                0x00000000402367e0                espconn_copy_partial
                0x0000000040236870                espconn_list_creat
                0x0000000040236890                espconn_list_delete
                0x00000000402368b8                espconn_pbuf_create
                0x00000000402368d4                espconn_pbuf_delete
                0x00000000402368f8                espconn_find_connection
                0x00000000402369c0                espconn_connect
                0x0000000040236aa4                espconn_create
                0x0000000040236ae8                espconn_sent
                0x0000000040236b88                espconn_tcp_get_wnd
                0x0000000040236bac                espconn_tcp_set_wnd
                0x0000000040236bc8                espconn_tcp_get_mss
                0x0000000040236bd0                espconn_tcp_get_max_con
                0x0000000040236be0                espconn_tcp_set_max_con
                0x0000000040236bf8                espconn_tcp_get_max_con_allow
                0x0000000040236c20                espconn_tcp_set_max_con_allow
                0x0000000040236c50                espconn_regist_sentcb
                0x0000000040236c5c                espconn_regist_write_finish
                0x0000000040236c74                espconn_regist_connectcb
                0x0000000040236c84                espconn_regist_recvcb
                0x0000000040236c90                espconn_regist_reconcb
                0x0000000040236ca0                espconn_regist_disconcb
                0x0000000040236cb4                espconn_get_connection_info
                0x0000000040236d7c                espconn_accept
                0x0000000040236dc0                espconn_regist_time
                0x0000000040236e00                espconn_disconnect
                0x0000000040236e30                espconn_get_packet_info
                0x0000000040236ec0                espconn_set_opt
                0x0000000040236f18                espconn_clear_opt
                0x0000000040236f78                espconn_set_keepalive
                0x0000000040236fe4                espconn_get_keepalive
                0x0000000040237054                espconn_delete
                0x000000004023709c                espconn_port
                0x00000000402370d4                espconn_gethostbyname
                0x00000000402370f0                espconn_dns_setserver
 *fill*         0x0000000040237102        0x2 
 .irom0.text    0x0000000040237104      0x432 /opt/Espressif/esp-open-sdk/sdk/lib/liblwip.a(espconn_udp.o)
                                        0x53e (size before relaxing)
                0x0000000040237144                espconn_udp_sent
                0x000000004023739c                espconn_udp_disconnect
                0x00000000402373d4                espconn_udp_server
                0x0000000040237438                espconn_igmp_leave
                0x0000000040237454                espconn_igmp_join
                0x0000000040237470                espconn_mdns_enable
                0x0000000040237484                espconn_mdns_disable
                0x0000000040237498                espconn_mdns_set_hostname
                0x00000000402374ac                espconn_mdns_get_hostname
                0x00000000402374c0                espconn_mdns_set_servername
                0x00000000402374d4                espconn_mdns_get_servername
                0x00000000402374e8                espconn_mdns_server_register
                0x00000000402374fc                espconn_mdns_server_unregister
                0x0000000040237510                espconn_mdns_close
                0x0000000040237524                espconn_mdns_init
 *fill*         0x0000000040237536        0x2 
 .irom0.text    0x0000000040237538      0x26e /opt/Espressif/esp-open-sdk/sdk/lib/liblwip.a(icmp.o)
                                        0x312 (size before relaxing)
                0x000000004023753c                icmp_input
                0x00000000402376e8                icmp_dest_unreach
 *fill*         0x00000000402377a6        0x2 
 .irom0.text    0x00000000402377a8      0x5ca /opt/Espressif/esp-open-sdk/sdk/lib/liblwip.a(igmp.o)
                                        0x656 (size before relaxing)
                0x00000000402377b4                igmp_init
                0x00000000402377c4                igmp_start
                0x0000000040237800                igmp_stop
                0x0000000040237860                igmp_report_groups
                0x0000000040237890                igmp_lookfor_group
                0x0000000040237948                igmp_input
                0x0000000040237a90                igmp_joingroup
                0x0000000040237b38                igmp_leavegroup
                0x0000000040237bdc                igmp_tmr
 *fill*         0x0000000040237d72        0x2 
 .irom0.text    0x0000000040237d74      0xc39 /opt/Espressif/esp-open-sdk/sdk/lib/liblwip.a(mdns.o)
                                        0xec5 (size before relaxing)
                0x0000000040237d78                getPcb
                0x00000000402386a4                mdns_close
                0x00000000402386c0                mdns_set_name
                0x00000000402386dc                mdns_enable
                0x0000000040238700                mdns_disable
                0x0000000040238724                mdns_get_hostname
                0x0000000040238738                mdns_set_hostname
                0x00000000402387a4                mdns_set_servername
                0x00000000402387d0                mdns_get_servername
                0x00000000402387e4                mdns_server_unregister
                0x0000000040238828                mdns_server_register
                0x0000000040238878                mdns_reg
                0x00000000402388cc                mdns_init
 *fill*         0x00000000402389ad        0x3 
 .irom0.text    0x00000000402389b0      0x27e /opt/Espressif/esp-open-sdk/sdk/lib/libwpa.a(ap_config.o)
                                        0x2be (size before relaxing)
                0x00000000402389b0                hostapd_config_defaults_bss
                0x00000000402389f8                hostapd_config_defaults
                0x0000000040238a64                hostapd_mac_comp
                0x0000000040238a78                hostapd_mac_comp_empty
                0x0000000040238ad8                hostapd_setup_wpa_psk
                0x0000000040238b08                hostapd_wep_key_cmp
                0x0000000040238b58                hostapd_maclist_found
                0x0000000040238bc0                hostapd_rate_found
                0x0000000040238bdc                hostapd_get_psk
 *fill*         0x0000000040238c2e        0x2 
 .irom0.text    0x0000000040238c30      0x250 /opt/Espressif/esp-open-sdk/sdk/lib/libwpa.a(common.o)
                                        0x28c (size before relaxing)
                0x0000000040238c30                inc_byte_array
                0x0000000040238c84                hex2byte
                0x0000000040238cb8                hexstr2bin
                0x0000000040238d04                wpa_get_ntp_timestamp
                0x0000000040238d98                wpa_config_parse_string
 .irom0.text    0x0000000040238e80       0xc4 /opt/Espressif/esp-open-sdk/sdk/lib/libwpa.a(os_xtensa.o)
                                         0xd4 (size before relaxing)
                0x0000000040238e80                ets_strdup
                0x0000000040238ec0                os_get_time
                0x0000000040238ec4                r_rand
                0x0000000040238ed8                os_random
                0x0000000040238ee8                os_get_random
 .irom0.text    0x0000000040238f44     0x1b92 /opt/Espressif/esp-open-sdk/sdk/lib/libwpa.a(wpa_auth.o)
                                       0x1dfe (size before relaxing)
                0x000000004023907c                wpa_auth_for_each_sta
                0x00000000402391e4                wpa_init
                0x0000000040239258                wpa_auth_sta_init
                0x0000000040239298                wpa_auth_sta_associated
                0x0000000040239304                wpa_auth_sta_no_wpa
                0x0000000040239350                wpa_auth_sta_deinit
                0x0000000040239420                wpa_receive
                0x0000000040239874                __wpa_send_eapol
                0x0000000040239d60                wpa_remove_ptk
                0x0000000040239dac                wpa_auth_sm_event
 *fill*         0x000000004023aad6        0x2 
 .irom0.text    0x000000004023aad8      0x562 /opt/Espressif/esp-open-sdk/sdk/lib/libwpa.a(wpa_auth_ie.o)
                                        0x5ce (size before relaxing)
                0x000000004023ab9c                wpa_write_rsn_ie
                0x000000004023aca4                wpa_auth_gen_wpa_ie
                0x000000004023ad28                wpa_add_kde
                0x000000004023ad94                wpa_validate_wpa_ie
                0x000000004023af90                wpa_parse_kde_ies
                0x000000004023b02c                wpa_auth_uses_mfp
 *fill*         0x000000004023b03a        0x2 
 .irom0.text    0x000000004023b03c     0x148c /opt/Espressif/esp-open-sdk/sdk/lib/libwpa.a(wpa.o)
                                       0x16a4 (size before relaxing)
                0x000000004023bfa4                wpa_sm_rx_eapol
                0x000000004023c11c                wpa_register
                0x000000004023c148                wpa_set_profile
                0x000000004023c158                wpa_set_pmk
                0x000000004023c184                wpa_set_bss
                0x000000004023c374                pp_michael_mic_failure
                0x000000004023c418                eapol_txcb
                0x000000004023c4a0                wpa_sm_set_state
 .irom0.text    0x000000004023c4c8      0x756 /opt/Espressif/esp-open-sdk/sdk/lib/libwpa.a(wpa_common.o)
                                        0x7e2 (size before relaxing)
                0x000000004023c610                wpa_parse_wpa_ie_rsn
                0x000000004023c7a4                wpa_parse_wpa_ie_wpa
                0x000000004023c934                wpa_eapol_key_mic
                0x000000004023c974                wpa_compare_rsn_ie
                0x000000004023c99c                wpa_pmk_to_ptk
                0x000000004023ca8c                rsn_pmkid
                0x000000004023cad4                wpa_cipher_key_len
                0x000000004023caf8                wpa_cipher_to_alg
                0x000000004023cb20                wpa_cipher_to_suite
                0x000000004023cb74                rsn_cipher_put_suites
                0x000000004023cbd4                wpa_cipher_put_suites
 *fill*         0x000000004023cc1e        0x2 
 .irom0.text    0x000000004023cc20       0xa8 /opt/Espressif/esp-open-sdk/sdk/lib/libwpa.a(wpa_debug.o)
                                         0xac (size before relaxing)
                0x000000004023cc98                wpa_snprintf_hex_uppercase
                0x000000004023ccac                wpa_snprintf_hex
                0x000000004023ccc0                eloop_cancel_timeout
                0x000000004023ccc4                eloop_register_timeout
 .irom0.text    0x000000004023ccc8      0x325 /opt/Espressif/esp-open-sdk/sdk/lib/libwpa.a(wpa_ie.o)
                                        0x341 (size before relaxing)
                0x000000004023ccc8                wpa_parse_wpa_ie
                0x000000004023cdbc                wpa_supplicant_parse_ies
                0x000000004023cfbc                wpa_gen_wpa_ie
 *fill*         0x000000004023cfed        0x3 
 .irom0.text    0x000000004023cff0      0x3f8 /opt/Espressif/esp-open-sdk/sdk/lib/libwpa.a(wpa_main.o)
                                        0x4f8 (size before relaxing)
                0x000000004023cff0                ppInstallKey
                0x000000004023d170                wpa_config_profile
                0x000000004023d1a4                wpa_config_bss
                0x000000004023d1d4                wpa_config_assoc_ie
                0x000000004023d1e8                dhcp_bind_check
                0x000000004023d21c                eagle_auth_done
                0x000000004023d388                wpa_neg_complete
                0x000000004023d3b0                wpa_attach
 .irom0.text    0x000000004023d3e8       0xd6 /opt/Espressif/esp-open-sdk/sdk/lib/libwpa.a(wpas_glue.o)
                                         0xe2 (size before relaxing)
                0x000000004023d458                wpa_sm_alloc_eapol
                0x000000004023d498                wpa_sm_deauthenticate
                0x000000004023d4b4                wpa_sm_mlme_setprotection
                0x000000004023d4b8                wpa_sm_get_beacon_ie
                0x000000004023d4bc                wpa_sm_disassociate
 *fill*         0x000000004023d4be        0x2 
 .irom0.text    0x000000004023d4c0       0xdf /opt/Espressif/esp-open-sdk/sdk/lib/libwpa.a(aes-wrap.o)
                                        0x103 (size before relaxing)
                0x000000004023d4c0                aes_wrap
 *fill*         0x000000004023d59f        0x1 
 .irom0.text    0x000000004023d5a0      0x485 /opt/Espressif/esp-open-sdk/sdk/lib/libwpa.a(aes-internal-enc.o)
                                        0x49d (size before relaxing)
                0x000000004023d5a4                rijndaelEncrypt
                0x000000004023d9c0                aes_encrypt_init
                0x000000004023d9f0                aes_encrypt
                0x000000004023da00                aes_encrypt_deinit
 *fill*         0x000000004023da25        0x3 
 .irom0.text    0x000000004023da28      0x15b /opt/Espressif/esp-open-sdk/sdk/lib/libnet80211.a(ieee80211_crypto_tkip.o)
                                        0x167 (size before relaxing)
 *fill*         0x000000004023db83        0x1 
 .irom0.text    0x000000004023db84       0x7c /opt/Espressif/esp-open-sdk/sdk/lib/libnet80211.a(ieee80211_crypto_wep.o)
                                         0x80 (size before relaxing)
 *fill*         0x000000004023dc00        0x0 
 .irom.text     0x000000004023dc00      0x154 /opt/Espressif/esp-open-sdk/sdk/lib/libmain.a(app_main.o)
 *fill*         0x000000004023dd54        0x0 
 *fill*         0x000000004023dd54        0x0 
 *fill*         0x000000004023dd54        0xc 
 .irom.text     0x000000004023dd60      0x2b5 /opt/Espressif/esp-open-sdk/sdk/lib/libmain.a(user_interface.o)
 *fill*         0x000000004023e015        0x0 
 *fill*         0x000000004023e015        0x0 
 *fill*         0x000000004023e015        0xb 
 .irom.text     0x000000004023e020       0x53 /opt/Espressif/esp-open-sdk/sdk/lib/libmain.a(eagle_lwip_if.o)
 *fill*         0x000000004023e073        0x0 
 *fill*         0x000000004023e073        0x0 
 *fill*         0x000000004023e073        0x0 
 *fill*         0x000000004023e073        0x0 
 *fill*         0x000000004023e073        0x0 
 *fill*         0x000000004023e073        0x0 
 *fill*         0x000000004023e073        0x0 
 *fill*         0x000000004023e073        0x0 
 *fill*         0x000000004023e073        0x0 
 *fill*         0x000000004023e073        0x0 
 *fill*         0x000000004023e073        0x1 
 .irom0.text    0x000000004023e074     0x1a20 build/app_app.a(font.o)
                0x000000004023e074                Terminus_Bold_R_X16_Y32_bitmap
                0x000000004023e9fc                Terminus_Bold_R_X16_Y32_specs
                0x000000004023ecf4                Terminus_Bold_R_X12_Y24_bitmap
                0x000000004023f27c                Terminus_Bold_R_X12_Y24_specs
                0x000000004023f574                Fixed_Bold_R_X7_Y13_bitmap
                0x000000004023f79c                Fixed_Bold_R_X7_Y13_specs
 *fill*         0x000000004023fa94        0x0 
 *fill*         0x000000004023fa94        0x0 
 *fill*         0x000000004023fa94        0xc 
 .irom.text     0x000000004023faa0       0x85 /opt/Espressif/esp-open-sdk/sdk/lib/libphy.a(phy_chip_v6_ana.o)
 *fill*         0x000000004023fb25        0x0 
 *fill*         0x000000004023fb25        0xb 
 .irom.text     0x000000004023fb30      0x170 /opt/Espressif/esp-open-sdk/sdk/lib/libphy.a(phy_chip_v6.o)
 *fill*         0x000000004023fca0        0x0 
 .irom.text     0x000000004023fca0      0x194 /opt/Espressif/esp-open-sdk/sdk/lib/libphy.a(phy_chip_v6_cal.o)
 *fill*         0x000000004023fe34        0xc 
 .irom.text     0x000000004023fe40       0x3d /opt/Espressif/esp-open-sdk/sdk/lib/libphy.a(phy_chip_v6_unused.o)
 *fill*         0x000000004023fe7d        0x0 
 *fill*         0x000000004023fe7d        0x0 
 *fill*         0x000000004023fe7d        0x3 
 .irom.text     0x000000004023fe80       0x50 /opt/Espressif/esp-open-sdk/sdk/lib/libpp.a(if_hwctrl.o)
 *fill*         0x000000004023fed0        0x0 
 .irom.text     0x000000004023fed0       0x2f /opt/Espressif/esp-open-sdk/sdk/lib/libpp.a(lmac.o)
 *fill*         0x000000004023feff        0x0 
 *fill*         0x000000004023feff        0x1 
 .irom.text     0x000000004023ff00      0x1ab /opt/Espressif/esp-open-sdk/sdk/lib/libpp.a(pm.o)
 *fill*         0x00000000402400ab        0x0 
 *fill*         0x00000000402400ab        0x5 
 .irom.text     0x00000000402400b0      0x15f /opt/Espressif/esp-open-sdk/sdk/lib/libpp.a(pm_for_bcn_only_mode.o)
 *fill*         0x000000004024020f        0x0 
 *fill*         0x000000004024020f        0x1 
 .irom.text     0x0000000040240210       0x3a /opt/Espressif/esp-open-sdk/sdk/lib/libpp.a(pp.o)
 *fill*         0x000000004024024a        0x0 
 *fill*         0x000000004024024a        0x0 
 *fill*         0x000000004024024a        0x6 
 .irom.text     0x0000000040240250       0x38 /opt/Espressif/esp-open-sdk/sdk/lib/libpp.a(trc.o)
 *fill*         0x0000000040240288        0x0 
 *fill*         0x0000000040240288        0x0 
 *fill*         0x0000000040240288        0x8 
 .irom.text     0x0000000040240290       0x72 /opt/Espressif/esp-open-sdk/sdk/lib/libnet80211.a(ieee80211.o)
 *fill*         0x0000000040240302        0x0 
 *fill*         0x0000000040240302        0x0 
 *fill*         0x0000000040240302        0xe 
 .irom.text     0x0000000040240310        0x9 /opt/Espressif/esp-open-sdk/sdk/lib/libnet80211.a(ieee80211_hostap.o)
 *fill*         0x0000000040240319        0x0 
 *fill*         0x0000000040240319        0x7 
 .irom.text     0x0000000040240320       0x19 /opt/Espressif/esp-open-sdk/sdk/lib/libnet80211.a(ieee80211_ht.o)
 *fill*         0x0000000040240339        0x0 
 *fill*         0x0000000040240339        0x7 
 .irom.text     0x0000000040240340       0x1d /opt/Espressif/esp-open-sdk/sdk/lib/libnet80211.a(ieee80211_output.o)
 *fill*         0x000000004024035d        0x0 
 *fill*         0x000000004024035d        0x0 
 *fill*         0x000000004024035d        0x0 
 *fill*         0x000000004024035d        0x0 
 *fill*         0x000000004024035d        0x3 
 .irom.text     0x0000000040240360       0x44 /opt/Espressif/esp-open-sdk/sdk/lib/libnet80211.a(ieee80211_scan.o)
 *fill*         0x00000000402403a4        0x0 
 *fill*         0x00000000402403a4        0x0 
 *fill*         0x00000000402403a4        0xc 
 .irom.text     0x00000000402403b0      0x107 /opt/Espressif/esp-open-sdk/sdk/lib/libnet80211.a(wl_cnx.o)
 *fill*         0x00000000402404b7        0x0 
 *fill*         0x00000000402404b7        0x0 
 *fill*         0x00000000402404b7        0x9 
 .irom.text     0x00000000402404c0       0x83 /opt/Espressif/esp-open-sdk/sdk/lib/libnet80211.a(ieee80211_action_vendor.o)
 *fill*         0x0000000040240543        0x0 
 *fill*         0x0000000040240543        0x0 
 *fill*         0x0000000040240543        0x0 
 *fill*         0x0000000040240543        0x0 
 *fill*         0x0000000040240543        0xd 
 .irom.text     0x0000000040240550       0x45 /opt/Espressif/esp-open-sdk/sdk/lib/liblwip.a(dhcpserver.o)
 *fill*         0x0000000040240595        0x0 
 *fill*         0x0000000040240595        0x0 
 *fill*         0x0000000040240595        0xb 
 .irom.text     0x00000000402405a0       0x9b /opt/Espressif/esp-open-sdk/sdk/lib/liblwip.a(espconn_tcp.o)
 *fill*         0x000000004024063b        0x0 
 *fill*         0x000000004024063b        0x0 
 *fill*         0x000000004024063b        0x0 
 *fill*         0x000000004024063b        0x5 
 .irom.text     0x0000000040240640       0x11 /opt/Espressif/esp-open-sdk/sdk/lib/liblwip.a(ip.o)
 *fill*         0x0000000040240651        0x0 
 *fill*         0x0000000040240651        0x0 
 *fill*         0x0000000040240651        0x0 
 *fill*         0x0000000040240651        0x0 
 *fill*         0x0000000040240651        0xf 
 .irom.text     0x0000000040240660       0x24 /opt/Espressif/esp-open-sdk/sdk/lib/liblwip.a(sntp.o)
 *fill*         0x0000000040240684        0x0 
 *fill*         0x0000000040240684        0x0 
 *fill*         0x0000000040240684        0x0 
 *fill*         0x0000000040240684        0x0 
 *fill*         0x0000000040240684        0x0 
 *fill*         0x0000000040240684        0x0 
 *fill*         0x0000000040240684        0x0 
 *fill*         0x0000000040240684        0x0 
 .irom0.text    0x0000000040240684      0x298 /opt/Espressif/esp-open-sdk/sdk/lib/liblwip.a(inet_chksum.o)
                0x00000000402406fc                inet_chksum_pseudo
                0x00000000402407bc                inet_chksum_pseudo_partial
                0x0000000040240898                inet_chksum
                0x00000000402408b0                inet_chksum_pbuf
 *fill*         0x000000004024091c        0x4 
 .irom.text     0x0000000040240920      0x102 /opt/Espressif/esp-open-sdk/sdk/lib/liblwip.a(mdns.o)
 *fill*         0x0000000040240a22        0x0 
 *fill*         0x0000000040240a22        0x0 
 *fill*         0x0000000040240a22        0x0 
 *fill*         0x0000000040240a22        0x0 
 *fill*         0x0000000040240a22        0x0 
 *fill*         0x0000000040240a22        0x0 
 *fill*         0x0000000040240a22        0xe 
 .irom.text     0x0000000040240a30       0x57 /opt/Espressif/esp-open-sdk/sdk/lib/libwpa.a(wpa_main.o)
 *fill*         0x0000000040240a87        0x0 
 *fill*         0x0000000040240a87        0x0 
 *fill*         0x0000000040240a87        0x0 
 *fill*         0x0000000040240a87        0x0 
 *fill*         0x0000000040240a87        0x0 
 *libpp.a:(.literal .text .literal.* .text.*)
 *fill*         0x0000000040240a87        0x1 
 .text          0x0000000040240a88     0x141a /opt/Espressif/esp-open-sdk/sdk/lib/libpp.a(lmac.o)
                                       0x177a (size before relaxing)
                0x0000000040240a88                lmacIsActive
                0x0000000040240a98                lmacIsIdle
                0x0000000040240ec8                lmacSetAcParam
                0x0000000040240f1c                lmacProcessTXStartData
                0x00000000402410c0                lmacProcessTxSuccess
                0x00000000402411fc                GetAccess
                0x0000000040241208                lmacDiscardAgedMSDU
                0x000000004024121c                lmacRecycleMPDU
                0x00000000402416e0                lmacProcessCollisions
                0x0000000040241740                lmacProcessCollision
                0x00000000402417c4                lmacMSDUAged
                0x0000000040241b28                lmacProcessCtsTimeout
                0x0000000040241b70                lmacProcessAckTimeout
                0x0000000040241bc4                lmacProcessRtsStart
                0x0000000040241bd0                lmacProcessTxRtsError
                0x0000000040241c6c                lmacProcessTxError
                0x0000000040241cf0                lmacTxFrame
                0x0000000040241e8c                lmacRxDone
 *fill*         0x0000000040241ea2        0x2 
 .text          0x0000000040241ea4      0x875 /opt/Espressif/esp-open-sdk/sdk/lib/libpp.a(pp.o)
                                        0x979 (size before relaxing)
                0x0000000040241ed4                pp_soft_wdt_feed
                0x0000000040241f54                ppProcessTxQ
                0x0000000040241fc8                ppFetchTxQFirstAvail
                0x0000000040242008                ppDequeueTxQ
                0x0000000040242030                ppRollBackTxQ
                0x0000000040242054                ppRecordBarRRC
                0x0000000040242064                ppTxqUpdateBitmap
                0x0000000040242084                ppEnqueueTxDone
                0x00000000402420b8                ppEnqueueRxq
                0x00000000402425a0                ppDiscardMPDU
                0x00000000402425c0                pp_post
                0x0000000040242604                pp_post2
                0x000000004024262c                ppCalTxop
                0x00000000402426ac                ppCalFrameTimes
 *fill*         0x0000000040242719        0x3 
 .text          0x000000004024271c       0xf1 /opt/Espressif/esp-open-sdk/sdk/lib/libpp.a(rate_control.o)
                                        0x109 (size before relaxing)
                0x0000000040242738                RC_GetAckRate
                0x0000000040242744                RC_GetRtsRate
                0x0000000040242754                RC_GetAckTime
                0x0000000040242768                RC_GetCtsTime
                0x00000000402427a0                RC_GetBlockAckTime
 *fill*         0x000000004024280d        0x3 
 .text          0x0000000040242810      0x805 /opt/Espressif/esp-open-sdk/sdk/lib/libpp.a(trc.o)
                                        0x839 (size before relaxing)
                0x0000000040242984                rcUpdateTxDone
                0x0000000040242a18                rcUpdateRxDone
                0x0000000040242a74                rcUpdateDataRxDone
                0x0000000040242a88                rcGetSched
                0x0000000040242b30                rcGetRate
                0x0000000040242f48                rcReachRetryLimit
                0x0000000040242f60                trc_NeedRTS
 *fill*         0x0000000040243015        0x3 
 .text          0x0000000040243018     0x100d /opt/Espressif/esp-open-sdk/sdk/lib/libpp.a(wdev.o)
                                       0x130d (size before relaxing)
                0x00000000402433e8                wDev_MacTim1SetFunc
                0x0000000040243408                wDev_MacTim1Arm
                0x000000004024348c                wDev_ProcessFiq
                0x00000000402437a0                wDev_EnableTransmit
                0x00000000402437d8                wDev_DisableTransmit
                0x00000000402437f8                Tx_Copy2Queue
                0x0000000040243840                wDev_ProcessCollision
                0x0000000040243864                wDev_GetTxqCollisions
                0x0000000040243874                wDev_ClearTxqCollisions
                0x000000004024388c                wDev_SetWaitingQueue
                0x00000000402438d4                wDev_ClearWaitingQueue
                0x00000000402438f8                wDev_SetFrameAckType
                0x0000000040243950                wDev_AppendRxBlocks
                0x0000000040243a94                wDev_AppendRxAmpduLensBlocks
                0x0000000040243b68                wDev_GetBAInfo
                0x0000000040243b98                wDevDisableRx
 *fill*         0x0000000040244025        0x3 
 .text          0x0000000040244028       0x48 /opt/Espressif/esp-open-sdk/sdk/lib/libpp.a(esf_buf.o)
                                         0x5c (size before relaxing)
                0x0000000040244028                esf_rx_buf_alloc
 *fill*         0x0000000040244070        0x0 
 *fill*         0x0000000040244070        0x0 
 *fill*         0x0000000040244070        0x0 
 *fill*         0x0000000040244070        0x0 
 *fill*         0x0000000040244070        0x0 
                0x0000000040244070                _irom0_text_end = ABSOLUTE (.)

.text           0x0000000040100000     0x5458
                0x0000000040100000                _stext = .
                0x0000000040100000                _text_start = ABSOLUTE (.)
 *(.UserEnter.text)
 .UserEnter.text
                0x0000000040100000        0xd /opt/Espressif/esp-open-sdk/sdk/lib/libmain.a(vector.o)
                                         0x14 (size before relaxing)
                0x0000000040100004                call_user_start
                0x0000000040100010                . = ALIGN (0x10)
 *fill*         0x000000004010000d        0x3 
 *(.DebugExceptionVector.text)
 .DebugExceptionVector.text
                0x0000000040100010        0x6 /opt/Espressif/esp-open-sdk/sdk/lib/libmain.a(debug-vector.o)
                0x0000000040100010                _DebugExceptionVector
                0x0000000040100020                . = ALIGN (0x10)
 *fill*         0x0000000040100016        0xa 
 *(.NMIExceptionVector.text)
 .NMIExceptionVector.text
                0x0000000040100020        0x6 /opt/Espressif/esp-open-sdk/sdk/lib/libmain.a(nmi-vector.o)
                                          0xd (size before relaxing)
                0x0000000040100020                _NMIExceptionVector
                0x0000000040100030                . = ALIGN (0x10)
 *fill*         0x0000000040100026        0xa 
 *(.KernelExceptionVector.text)
 .KernelExceptionVector.text
                0x0000000040100030        0x6 /opt/Espressif/esp-open-sdk/sdk/lib/libmain.a(kernel-vector.o)
                0x0000000040100030                _KernelExceptionVector
                0x0000000040100036        0x4 LONG 0x0
                0x000000004010003a        0x4 LONG 0x0
                0x000000004010003e        0x4 LONG 0x0
                0x0000000040100042        0x4 LONG 0x0
                0x0000000040100050                . = ALIGN (0x10)
 *fill*         0x0000000040100046        0xa 
 *(.UserExceptionVector.text)
 .UserExceptionVector.text
                0x0000000040100050        0x6 /opt/Espressif/esp-open-sdk/sdk/lib/libmain.a(user-vector.o)
                                          0xd (size before relaxing)
                0x0000000040100050                _UserExceptionVector
                0x0000000040100056        0x4 LONG 0x0
                0x000000004010005a        0x4 LONG 0x0
                0x000000004010005e        0x4 LONG 0x0
                0x0000000040100062        0x4 LONG 0x0
                0x0000000040100070                . = ALIGN (0x10)
 *fill*         0x0000000040100066        0xa 
 *(.DoubleExceptionVector.text)
 .DoubleExceptionVector.text
                0x0000000040100070        0x6 /opt/Espressif/esp-open-sdk/sdk/lib/libmain.a(double-vector.o)
                0x0000000040100070                _DoubleExceptionVector
                0x0000000040100076        0x4 LONG 0x0
                0x000000004010007a        0x4 LONG 0x0
                0x000000004010007e        0x4 LONG 0x0
                0x0000000040100082        0x4 LONG 0x0
                0x0000000040100090                . = ALIGN (0x10)
 *fill*         0x0000000040100086        0xa 
 *(.entry.text)
 *(.init.literal)
 *(.init)
 *(.literal .text .literal.* .text.* .stub .gnu.warning .gnu.linkonce.literal.* .gnu.linkonce.t.*.literal .gnu.linkonce.t.*)
 .text          0x0000000040100090       0xc7 /opt/Espressif/esp-open-sdk/sdk/lib/libmain.a(nmi-vector.o)
                                         0xcb (size before relaxing)
                0x000000004010009c                _NMILevelVector
 *fill*         0x0000000040100157        0x1 
 .text          0x0000000040100158       0x1e /opt/Espressif/esp-open-sdk/sdk/lib/libmain.a(user-vector.o)
                0x000000004010015c                _UserExceptionVector_1
 *fill*         0x0000000040100176        0x2 
 .text          0x0000000040100178      0x505 /opt/Espressif/esp-open-sdk/sdk/lib/libmain.a(app_main.o)
                                        0x56d (size before relaxing)
                0x0000000040100180                Cache_Read_Enable_New
                0x00000000401001bc                NmiTimSetFunc
                0x00000000401001e0                NMI_Handler
                0x0000000040100238                call_user_start_local
 *fill*         0x000000004010067d        0x3 
 .text          0x0000000040100680      0x229 /opt/Espressif/esp-open-sdk/sdk/lib/libmain.a(ets_timer.o)
                                        0x251 (size before relaxing)
                0x00000000401006ec                ets_timer_setfn
                0x0000000040100768                ets_timer_disarm
                0x00000000401007e8                ets_timer_arm_new
 *fill*         0x00000000401008a9        0x3 
 .text          0x00000000401008ac      0x1b7 /opt/Espressif/esp-open-sdk/sdk/lib/libmain.a(mem_manager.o)
                                        0x1df (size before relaxing)
                0x00000000401008ac                xPortWantedSizeAlign
                0x00000000401008d0                pvPortMalloc
                0x0000000040100970                vPortFree
                0x00000000401009ac                pvPortCalloc
                0x00000000401009d4                pvPortZalloc
                0x00000000401009e8                pvPortRealloc
 *fill*         0x0000000040100a63        0x1 
 .text          0x0000000040100a64      0x1a3 /opt/Espressif/esp-open-sdk/sdk/lib/libmain.a(spi_flash.o)
                                        0x1e7 (size before relaxing)
                0x0000000040100a74                spi_flash_get_id
                0x0000000040100ad0                spi_flash_read_status
                0x0000000040100b00                spi_flash_write_status
                0x0000000040100b30                spi_flash_erase_sector
                0x0000000040100b5c                spi_flash_write
                0x0000000040100bac                spi_flash_read
 *fill*         0x0000000040100c07        0x1 
 .text          0x0000000040100c08      0x516 /opt/Espressif/esp-open-sdk/sdk/lib/libmain.a(user_interface.o)
                                        0x596 (size before relaxing)
                0x0000000040100c20                os_printf_plus
                0x0000000040100d48                system_restart_local
                0x0000000040101024                system_get_time
                0x000000004010103c                system_os_post
                0x0000000040101070                system_rtc_mem_write
                0x00000000401010c8                system_rtc_mem_read
 *fill*         0x000000004010111e        0x2 
 .text.ntp_setup
                0x0000000040101120      0x11b build/app_app.a(user_main.o)
                                        0x147 (size before relaxing)
                0x0000000040101160                ntp_setup
 *fill*         0x000000004010123b        0x1 
 .text.user_task
                0x000000004010123c      0x3ba build/app_app.a(user_main.o)
                                        0x45a (size before relaxing)
 *fill*         0x00000000401015f6        0x2 
 .text.execute_timers
                0x00000000401015f8       0x3b build/app_app.a(timer_hal.o)
                0x0000000040101600                execute_timers
 *fill*         0x0000000040101633        0x1 
 .text.clock_task
                0x0000000040101634       0x3a build/app_app.a(timer_hal.o)
                                         0x3e (size before relaxing)
 *fill*         0x000000004010166e        0x2 
 .text.hspi_writeFIFO$part$0
                0x0000000040101670       0x7e build/app_app.a(hspi.o)
 *fill*         0x00000000401016ee        0x2 
 .text.hspi_readFIFO$part$1
                0x00000000401016f0       0x7a build/app_app.a(hspi.o)
                                         0x82 (size before relaxing)
 *fill*         0x000000004010176a        0x2 
 .text.hspi_cs_enable
                0x000000004010176c       0x4f build/app_app.a(hspi.o)
                                         0x53 (size before relaxing)
                0x0000000040101778                hspi_cs_enable
 *fill*         0x00000000401017bb        0x1 
 .text.hspi_cs_disable
                0x00000000401017bc       0x4c build/app_app.a(hspi.o)
                                         0x58 (size before relaxing)
                0x00000000401017c0                hspi_cs_disable
 .text.hspi_init
                0x0000000040101808       0xd2 build/app_app.a(hspi.o)
                                         0xd6 (size before relaxing)
                0x000000004010182c                hspi_init
 *fill*         0x00000000401018da        0x2 
 .text.hspi_waitReady
                0x00000000401018dc       0x14 build/app_app.a(hspi.o)
                                         0x18 (size before relaxing)
                0x00000000401018e0                hspi_waitReady
 .text.hspi_TX  0x00000000401018f0       0x77 build/app_app.a(hspi.o)
                                         0x87 (size before relaxing)
                0x00000000401018f8                hspi_TX
 *fill*         0x0000000040101967        0x1 
 .text.hspi_TXRX
                0x0000000040101968       0x7d build/app_app.a(hspi.o)
                                         0x95 (size before relaxing)
                0x000000004010196c                hspi_TXRX
 *fill*         0x00000000401019e5        0x3 
 .text.hspi_RX  0x00000000401019e8       0x8b build/app_app.a(hspi.o)
                                         0xab (size before relaxing)
                0x00000000401019ec                hspi_RX
 *fill*         0x0000000040101a73        0x1 
 .text.uart0_gets_add
                0x0000000040101a74       0xa9 build/app_app.a(uart.o)
                                         0xc1 (size before relaxing)
                0x0000000040101a84                uart0_gets_add
 *fill*         0x0000000040101b1d        0x3 
 .text.uart_callback
                0x0000000040101b20       0x86 build/app_app.a(uart.o)
                                         0x96 (size before relaxing)
                0x0000000040101b34                uart_callback
 *fill*         0x0000000040101ba6        0x2 
 .text.cpy_flash
                0x0000000040101ba8       0x4b build/app_app.a(util.o)
                0x0000000040101bb4                cpy_flash
 *fill*         0x0000000040101bf3        0x1 
 .text.bittestv
                0x0000000040101bf4       0x3b build/app_app.a(util.o)
                                         0x47 (size before relaxing)
                0x0000000040101bf4                bittestv
 *fill*         0x0000000040101c2f        0x1 
 .text.cal_dex_handler
                0x0000000040101c30       0x2b build/app_app.a(cal_dex.o)
 *fill*         0x0000000040101c5b        0x1 
 .text.cal_dex_dump_hex
                0x0000000040101c5c       0x61 build/app_app.a(cal_dex.o)
                                         0x6d (size before relaxing)
                0x0000000040101c68                cal_dex_dump_hex
 *fill*         0x0000000040101cbd        0x3 
 .text.cal_dex_dump_stack
                0x0000000040101cc0       0x6f build/app_app.a(cal_dex.o)
                                         0x7b (size before relaxing)
                0x0000000040101cd4                cal_dex_dump_stack
 *fill*         0x0000000040101d2f        0x1 
 .text.cal_dex_dump
                0x0000000040101d30      0x1a7 build/app_app.a(cal_dex.o)
                                        0x203 (size before relaxing)
                0x0000000040101d80                cal_dex_dump
 *fill*         0x0000000040101ed7        0x1 
 .text.__wrap__xtos_set_exception_handler
                0x0000000040101ed8       0x70 build/app_app.a(cal_dex.o)
                                         0x88 (size before relaxing)
                0x0000000040101ee0                __wrap__xtos_set_exception_handler
 .text.tft_spi_init
                0x0000000040101f48       0x2d build/app_app.a(ili9341.o)
                                         0x41 (size before relaxing)
                0x0000000040101f4c                tft_spi_init
 *fill*         0x0000000040101f75        0x3 
 .text.tft_spi_begin
                0x0000000040101f78       0x21 build/app_app.a(ili9341.o)
                                         0x39 (size before relaxing)
                0x0000000040101f78                tft_spi_begin
 *fill*         0x0000000040101f99        0x3 
 .text.tft_spi_TX
                0x0000000040101f9c       0x51 build/app_app.a(ili9341.o)
                                         0x61 (size before relaxing)
                0x0000000040101f9c                tft_spi_TX
 *fill*         0x0000000040101fed        0x3 
 .text.tft_spi_TXRX
                0x0000000040101ff0       0x51 build/app_app.a(ili9341.o)
                                         0x61 (size before relaxing)
                0x0000000040101ff0                tft_spi_TXRX
 *fill*         0x0000000040102041        0x3 
 .text.tft_spi_RX
                0x0000000040102044       0x51 build/app_app.a(ili9341.o)
                                         0x61 (size before relaxing)
                0x0000000040102044                tft_spi_RX
 *fill*         0x0000000040102095        0x3 
 .text.tft_Cmd_Data_TX
                0x0000000040102098       0x43 build/app_app.a(ili9341.o)
                                         0x67 (size before relaxing)
                0x0000000040102098                tft_Cmd_Data_TX
 *fill*         0x00000000401020db        0x1 
 .text.tft_abs_window
                0x00000000401020dc      0x117 build/app_app.a(ili9341.o)
                                        0x123 (size before relaxing)
                0x00000000401020e0                tft_abs_window
 *fill*         0x00000000401021f3        0x1 
 .text.tft_bit_blit
                0x00000000401021f4      0x138 build/app_app.a(ili9341.o)
                                        0x16c (size before relaxing)
                0x00000000401021f8                tft_bit_blit
 .text.tft_fillRectWH
                0x000000004010232c       0xfe build/app_app.a(ili9341.o)
                                        0x12a (size before relaxing)
                0x000000004010232c                tft_fillRectWH
 *fill*         0x000000004010242a        0x2 
 .text.tft_fillWin
                0x000000004010242c       0x1f build/app_app.a(ili9341.o)
                                         0x23 (size before relaxing)
                0x000000004010242c                tft_fillWin
 *fill*         0x000000004010244b        0x1 
 .text.tft_fillRectXY
                0x000000004010244c       0x5b build/app_app.a(ili9341.o)
                                         0x5f (size before relaxing)
                0x000000004010244c                tft_fillRectXY
 *fill*         0x00000000401024a7        0x1 
 .text.tft_drawPixel
                0x00000000401024a8       0x69 build/app_app.a(ili9341.o)
                                         0x75 (size before relaxing)
                0x00000000401024a8                tft_drawPixel
 *fill*         0x0000000040102511        0x3 
 .text.tft_writeRect
                0x0000000040102514       0xf0 build/app_app.a(ili9341.o)
                                        0x124 (size before relaxing)
                0x0000000040102514                tft_writeRect
 .text.tft_readRect
                0x0000000040102604      0x116 build/app_app.a(ili9341.o)
                                        0x162 (size before relaxing)
                0x0000000040102604                tft_readRect
 *fill*         0x000000004010271a        0x2 
 .text.tft_Vscroll
                0x000000004010271c       0xa3 build/app_app.a(ili9341.o)
                                         0xb7 (size before relaxing)
                0x000000004010271c                tft_Vscroll
 *fill*         0x00000000401027bf        0x1 
 .text.tft_drawFastVLine
                0x00000000401027c0       0x29 build/app_app.a(ili9341.o)
                                         0x2d (size before relaxing)
                0x00000000401027c0                tft_drawFastVLine
 *fill*         0x00000000401027e9        0x3 
 .text.tft_drawFastHLine
                0x00000000401027ec       0x29 build/app_app.a(ili9341.o)
                                         0x2d (size before relaxing)
                0x00000000401027ec                tft_drawFastHLine
 *fill*         0x0000000040102815        0x3 
 .text.tft_drawLine
                0x0000000040102818      0x147 build/app_app.a(ili9341.o)
                                        0x157 (size before relaxing)
                0x0000000040102818                tft_drawLine
 *fill*         0x000000004010295f        0x1 
 .text.tft_putch
                0x0000000040102960      0x148 build/app_app.a(ili9341.o)
                                        0x178 (size before relaxing)
                0x0000000040102964                tft_putch
 .text.wire_draw
                0x0000000040102aa8      0x294 build/app_app.a(wire.o)
                                        0x398 (size before relaxing)
                0x0000000040102ac0                wire_draw
 .text.queue_new
                0x0000000040102d3c       0x5a build/app_app.a(queue.o)
                                         0x5e (size before relaxing)
                0x0000000040102d44                queue_new
 *fill*         0x0000000040102d96        0x2 
 .text.font_attr
                0x0000000040102d98      0x105 build/app_app.a(font.o)
                                        0x10d (size before relaxing)
                0x0000000040102d9c                font_attr
 *fill*         0x0000000040102e9d        0x3 
 .text.tft_drawChar
                0x0000000040102ea0      0x112 build/app_app.a(font.o)
                                        0x12e (size before relaxing)
                0x0000000040102ea0                tft_drawChar
 *fill*         0x0000000040102fb2        0x2 
 .text.Circular
                0x0000000040102fb4       0x73 build/app_app.a(cordic.o)
                0x0000000040102fc4                Circular
 *fill*         0x0000000040103027        0x1 
 .literal       0x0000000040103028        0x4 /opt/Espressif/esp-open-sdk/xtensa-lx106-elf/lib/gcc/xtensa-lx106-elf/4.8.2/libgcc.a(_addsubdf3.o)
                                          0xc (size before relaxing)
 .literal       0x000000004010302c        0x4 /opt/Espressif/esp-open-sdk/xtensa-lx106-elf/lib/gcc/xtensa-lx106-elf/4.8.2/libgcc.a(_muldf3.o)
                                         0x10 (size before relaxing)
 .literal       0x0000000040103030        0x0 /opt/Espressif/esp-open-sdk/xtensa-lx106-elf/lib/gcc/xtensa-lx106-elf/4.8.2/libgcc.a(_divdf3.o)
                                         0x10 (size before relaxing)
 .literal       0x0000000040103030        0x0 /opt/Espressif/esp-open-sdk/xtensa-lx106-elf/lib/gcc/xtensa-lx106-elf/4.8.2/libgcc.a(_cmpdf2.o)
                                         0x18 (size before relaxing)
 .literal       0x0000000040103030        0x0 /opt/Espressif/esp-open-sdk/xtensa-lx106-elf/lib/gcc/xtensa-lx106-elf/4.8.2/libgcc.a(_fixdfsi.o)
                                          0x4 (size before relaxing)
 .literal       0x0000000040103030        0x4 /opt/Espressif/esp-open-sdk/xtensa-lx106-elf/lib/gcc/xtensa-lx106-elf/4.8.2/libgcc.a(_truncdfsf2.o)
                                          0x8 (size before relaxing)
 .literal       0x0000000040103034        0x0 /opt/Espressif/esp-open-sdk/xtensa-lx106-elf/lib/gcc/xtensa-lx106-elf/4.8.2/libgcc.a(_extendsfdf2.o)
                                          0x8 (size before relaxing)
 .literal       0x0000000040103034        0x0 /opt/Espressif/esp-open-sdk/xtensa-lx106-elf/lib/gcc/xtensa-lx106-elf/4.8.2/libgcc.a(_muldi3.o)
                                          0x4 (size before relaxing)
 .literal       0x0000000040103034       0x14 /opt/Espressif/esp-open-sdk/xtensa-lx106-elf/lib/gcc/xtensa-lx106-elf/4.8.2/../../../../xtensa-lx106-elf/lib/libm.a(lib_a-s_floor.o)
                                         0x3c (size before relaxing)
 .literal       0x0000000040103048        0xc /opt/Espressif/esp-open-sdk/xtensa-lx106-elf/lib/gcc/xtensa-lx106-elf/4.8.2/../../../../xtensa-lx106-elf/lib/libm.a(lib_a-s_frexp.o)
                                         0x20 (size before relaxing)
 .literal       0x0000000040103054        0x0 /opt/Espressif/esp-open-sdk/xtensa-lx106-elf/lib/gcc/xtensa-lx106-elf/4.8.2/../../../../xtensa-lx106-elf/lib/libm.a(lib_a-s_modf.o)
                                          0xc (size before relaxing)
 .literal       0x0000000040103054        0x4 /opt/Espressif/esp-open-sdk/xtensa-lx106-elf/lib/gcc/xtensa-lx106-elf/4.8.2/libgcc.a(_addsubsf3.o)
                                          0xc (size before relaxing)
 .literal       0x0000000040103058        0x0 /opt/Espressif/esp-open-sdk/xtensa-lx106-elf/lib/gcc/xtensa-lx106-elf/4.8.2/libgcc.a(_mulsf3.o)
                                         0x10 (size before relaxing)
 .literal       0x0000000040103058        0x0 /opt/Espressif/esp-open-sdk/xtensa-lx106-elf/lib/gcc/xtensa-lx106-elf/4.8.2/libgcc.a(_divsf3.o)
                                         0x10 (size before relaxing)
 .literal       0x0000000040103058        0x0 /opt/Espressif/esp-open-sdk/xtensa-lx106-elf/lib/gcc/xtensa-lx106-elf/4.8.2/libgcc.a(_fixsfsi.o)
                                          0x4 (size before relaxing)
 .literal       0x0000000040103058        0x0 /opt/Espressif/esp-open-sdk/xtensa-lx106-elf/lib/gcc/xtensa-lx106-elf/4.8.2/libgcc.a(_fixunssfsi.o)
                                          0x4 (size before relaxing)
 .literal       0x0000000040103058        0x4 /opt/Espressif/esp-open-sdk/xtensa-lx106-elf/lib/gcc/xtensa-lx106-elf/4.8.2/libgcc.a(_popcountsi2.o)
 .literal       0x000000004010305c        0x0 /opt/Espressif/esp-open-sdk/xtensa-lx106-elf/lib/gcc/xtensa-lx106-elf/4.8.2/libgcc.a(_divdi3.o)
                                         0x48 (size before relaxing)
 .literal       0x000000004010305c        0x0 /opt/Espressif/esp-open-sdk/xtensa-lx106-elf/lib/gcc/xtensa-lx106-elf/4.8.2/libgcc.a(_umoddi3.o)
                                         0x40 (size before relaxing)
 .text          0x000000004010305c      0x2f6 /opt/Espressif/esp-open-sdk/xtensa-lx106-elf/lib/gcc/xtensa-lx106-elf/4.8.2/libgcc.a(_addsubdf3.o)
                0x000000004010307c                __adddf3
                0x00000000401031cc                __subdf3
 *fill*         0x0000000040103352        0x2 
 .text          0x0000000040103354      0x29b /opt/Espressif/esp-open-sdk/xtensa-lx106-elf/lib/gcc/xtensa-lx106-elf/4.8.2/libgcc.a(_muldf3.o)
                0x0000000040103434                __muldf3
 *fill*         0x00000000401035ef        0x1 
 .text          0x00000000401035f0      0x20b /opt/Espressif/esp-open-sdk/xtensa-lx106-elf/lib/gcc/xtensa-lx106-elf/4.8.2/libgcc.a(_divdf3.o)
                0x00000000401036d8                __divdf3
 *fill*         0x00000000401037fb        0x1 
 .text          0x00000000401037fc      0x169 /opt/Espressif/esp-open-sdk/xtensa-lx106-elf/lib/gcc/xtensa-lx106-elf/4.8.2/libgcc.a(_cmpdf2.o)
                0x00000000401037fc                __eqdf2
                0x00000000401037fc                __nedf2
                0x000000004010382c                __gtdf2
                0x0000000040103850                __ledf2
                0x00000000401038b4                __gedf2
                0x00000000401038d8                __ltdf2
                0x000000004010393c                __unorddf2
 *fill*         0x0000000040103965        0x3 
 .text          0x0000000040103968       0x48 /opt/Espressif/esp-open-sdk/xtensa-lx106-elf/lib/gcc/xtensa-lx106-elf/4.8.2/libgcc.a(_fixdfsi.o)
                0x0000000040103968                __fixdfsi
 .text          0x00000000401039b0       0xa0 /opt/Espressif/esp-open-sdk/xtensa-lx106-elf/lib/gcc/xtensa-lx106-elf/4.8.2/libgcc.a(_truncdfsf2.o)
                0x00000000401039b0                __truncdfsf2
 .text          0x0000000040103a50       0x5e /opt/Espressif/esp-open-sdk/xtensa-lx106-elf/lib/gcc/xtensa-lx106-elf/4.8.2/libgcc.a(_extendsfdf2.o)
                0x0000000040103a50                __extendsfdf2
 *fill*         0x0000000040103aae        0x2 
 .text          0x0000000040103ab0       0x36 /opt/Espressif/esp-open-sdk/xtensa-lx106-elf/lib/gcc/xtensa-lx106-elf/4.8.2/libgcc.a(_muldi3.o)
                0x0000000040103ab0                __muldi3
 *fill*         0x0000000040103ae6        0x2 
 .text          0x0000000040103ae8       0x53 /opt/Espressif/esp-open-sdk/sdk/lib/libphy.a(phy.o)
                                         0x5f (size before relaxing)
                0x0000000040103af0                register_phy_ops
                0x0000000040103b10                register_get_phy_addr
                0x0000000040103b18                phy_change_channel
                0x0000000040103b30                phy_get_mactime
 *fill*         0x0000000040103b3b        0x1 
 .text          0x0000000040103b3c       0xbf /opt/Espressif/esp-open-sdk/sdk/lib/libphy.a(phy_chip_v6_cal.o)
                0x0000000040103b3c                unsign_to_sign
                0x0000000040103b74                phy_get_bb_freqoffset
 *fill*         0x0000000040103bfb        0x1 
 .text          0x0000000040103bfc       0xeb /opt/Espressif/esp-open-sdk/sdk/lib/libphy.a(phy_sleep.o)
                                        0x103 (size before relaxing)
                0x0000000040103c04                pm_rtc_clock_cali
                0x0000000040103cbc                clockgate_watchdog
 *fill*         0x0000000040103ce7        0x1 
 .text          0x0000000040103ce8        0xb /opt/Espressif/esp-open-sdk/sdk/lib/libnet80211.a(wl_chm.o)
                0x0000000040103cec                chm_get_current_channel
 *fill*         0x0000000040103cf3        0x1 
 .text          0x0000000040103cf4       0x33 /opt/Espressif/esp-open-sdk/sdk/lib/liblwip.a(etharp.o)
                                         0x37 (size before relaxing)
 *fill*         0x0000000040103d27        0x1 
 .text          0x0000000040103d28       0xd6 /opt/Espressif/esp-open-sdk/sdk/lib/liblwip.a(sntp.o)
                                         0xde (size before relaxing)
                0x0000000040103d30                sntp_get_current_timestamp
                0x0000000040103d58                sntp_get_real_time
 *fill*         0x0000000040103dfe        0x2 
 .text          0x0000000040103e00      0x1c4 /opt/Espressif/esp-open-sdk/sdk/lib/liblwip.a(tcp.o)
                                        0x1e8 (size before relaxing)
 .text          0x0000000040103fc4      0x15d /opt/Espressif/esp-open-sdk/sdk/lib/liblwip.a(tcp_out.o)
                                        0x161 (size before relaxing)
 *fill*         0x0000000040104121        0x3 
 .text          0x0000000040104124       0xb4 /opt/Espressif/esp-open-sdk/sdk/lib/liblwip.a(timers.o)
                                         0xc0 (size before relaxing)
 .text          0x00000000401041d8      0x150 /opt/Espressif/esp-open-sdk/xtensa-lx106-elf/lib/gcc/xtensa-lx106-elf/4.8.2/../../../../xtensa-lx106-elf/lib/libm.a(lib_a-s_floor.o)
                                        0x160 (size before relaxing)
                0x00000000401041d8                floor
 .text          0x0000000040104328       0x6d /opt/Espressif/esp-open-sdk/xtensa-lx106-elf/lib/gcc/xtensa-lx106-elf/4.8.2/../../../../xtensa-lx106-elf/lib/libm.a(lib_a-s_frexp.o)
                                         0x71 (size before relaxing)
                0x0000000040104328                frexp
 *fill*         0x0000000040104395        0x3 
 .text          0x0000000040104398       0x95 /opt/Espressif/esp-open-sdk/xtensa-lx106-elf/lib/gcc/xtensa-lx106-elf/4.8.2/../../../../xtensa-lx106-elf/lib/libm.a(lib_a-s_modf.o)
                0x0000000040104398                modf
 *fill*         0x000000004010442d        0x3 
 .text          0x0000000040104430      0x1ff /opt/Espressif/esp-open-sdk/xtensa-lx106-elf/lib/gcc/xtensa-lx106-elf/4.8.2/libgcc.a(_addsubsf3.o)
                0x000000004010444c                __addsf3
                0x0000000040104534                __subsf3
 *fill*         0x000000004010462f        0x1 
 .text          0x0000000040104630      0x15d /opt/Espressif/esp-open-sdk/xtensa-lx106-elf/lib/gcc/xtensa-lx106-elf/4.8.2/libgcc.a(_mulsf3.o)
                0x00000000401046a8                __mulsf3
 *fill*         0x000000004010478d        0x3 
 .text          0x0000000040104790      0x135 /opt/Espressif/esp-open-sdk/xtensa-lx106-elf/lib/gcc/xtensa-lx106-elf/4.8.2/libgcc.a(_divsf3.o)
                0x000000004010480c                __divsf3
 *fill*         0x00000000401048c5        0x3 
 .text          0x00000000401048c8       0x40 /opt/Espressif/esp-open-sdk/xtensa-lx106-elf/lib/gcc/xtensa-lx106-elf/4.8.2/libgcc.a(_fixsfsi.o)
                0x00000000401048c8                __fixsfsi
 .text          0x0000000040104908       0x51 /opt/Espressif/esp-open-sdk/xtensa-lx106-elf/lib/gcc/xtensa-lx106-elf/4.8.2/libgcc.a(_fixunssfsi.o)
                0x0000000040104908                __fixunssfsi
 *fill*         0x0000000040104959        0x3 
 .text          0x000000004010495c       0x21 /opt/Espressif/esp-open-sdk/xtensa-lx106-elf/lib/gcc/xtensa-lx106-elf/4.8.2/libgcc.a(_popcountsi2.o)
                0x000000004010495c                __popcountsi2
 *fill*         0x000000004010497d        0x3 
 .text          0x0000000040104980      0x3eb /opt/Espressif/esp-open-sdk/xtensa-lx106-elf/lib/gcc/xtensa-lx106-elf/4.8.2/libgcc.a(_divdi3.o)
                                        0x41b (size before relaxing)
                0x0000000040104980                __divdi3
 *fill*         0x0000000040104d6b        0x1 
 .text          0x0000000040104d6c      0x33a /opt/Espressif/esp-open-sdk/xtensa-lx106-elf/lib/gcc/xtensa-lx106-elf/4.8.2/libgcc.a(_umoddi3.o)
                                        0x366 (size before relaxing)
                0x0000000040104d6c                __umoddi3
 *fill*         0x00000000401050a6        0x0 
 *fill*         0x00000000401050a6        0x0 
 *fill*         0x00000000401050a6        0x0 
 *fill*         0x00000000401050a6        0x0 
 *fill*         0x00000000401050a6        0x0 
 *fill*         0x00000000401050a6        0x0 
 *fill*         0x00000000401050a6        0x2 
 .text          0x00000000401050a8        0x2 /opt/Espressif/esp-open-sdk/sdk/lib/libmain.a(empty_user_rf_pre_init.o)
                0x00000000401050a8                user_rf_pre_init
 *fill*         0x00000000401050aa        0x0 
 *fill*         0x00000000401050aa        0x0 
 *fill*         0x00000000401050aa        0x2 
 .text._puts$4014
                0x00000000401050ac       0xb2 build/app_app.a(printf.o)
 *fill*         0x000000004010515e        0x0 
 *fill*         0x000000004010515e        0x0 
 *fill*         0x000000004010515e        0x0 
 *fill*         0x000000004010515e        0x0 
 *fill*         0x000000004010515e        0x0 
 *fill*         0x000000004010515e        0x0 
 *fill*         0x000000004010515e        0x0 
 *fill*         0x000000004010515e        0x0 
 *fill*         0x000000004010515e        0x0 
 *fill*         0x000000004010515e        0x0 
 *fill*         0x000000004010515e        0x0 
 *fill*         0x000000004010515e        0x0 
 *fill*         0x000000004010515e        0x0 
 *fill*         0x000000004010515e        0x0 
 *fill*         0x000000004010515e        0x0 
 *fill*         0x000000004010515e        0x0 
 *fill*         0x000000004010515e        0x0 
 *fill*         0x000000004010515e        0x0 
 *fill*         0x000000004010515e        0x0 
 *fill*         0x000000004010515e        0x0 
 *fill*         0x000000004010515e        0x0 
 *fill*         0x000000004010515e        0x0 
 *fill*         0x000000004010515e        0x0 
 *fill*         0x000000004010515e        0x0 
 *fill*         0x000000004010515e        0x0 
 *fill*         0x000000004010515e        0x0 
 *fill*         0x000000004010515e        0x0 
 *fill*         0x000000004010515e        0x0 
 *fill*         0x000000004010515e        0x0 
 *fill*         0x000000004010515e        0x0 
 *fill*         0x000000004010515e        0x0 
 *fill*         0x000000004010515e        0x0 
 *fill*         0x000000004010515e        0x0 
 *fill*         0x000000004010515e        0x0 
 *fill*         0x000000004010515e        0x2 
 .text.queue_empty
                0x0000000040105160       0x15 build/app_app.a(queue.o)
                0x0000000040105160                queue_empty
 *fill*         0x0000000040105175        0x3 
 .text.queue_space
                0x0000000040105178       0x14 build/app_app.a(queue.o)
                0x0000000040105178                queue_space
 .text.queue_pushc
                0x000000004010518c       0x3c build/app_app.a(queue.o)
                0x000000004010518c                queue_pushc
 .text.queue_popc
                0x00000000401051c8       0x34 build/app_app.a(queue.o)
                0x00000000401051c8                queue_popc
 *fill*         0x00000000401051fc        0x0 
 *fill*         0x00000000401051fc        0x0 
 *fill*         0x00000000401051fc        0x0 
 .text          0x00000000401051fc       0x64 /opt/Espressif/esp-open-sdk/xtensa-lx106-elf/lib/gcc/xtensa-lx106-elf/4.8.2/libgcc.a(_divsi3.o)
                0x00000000401051fc                __divsi3
 .text          0x0000000040105260       0x49 /opt/Espressif/esp-open-sdk/xtensa-lx106-elf/lib/gcc/xtensa-lx106-elf/4.8.2/libgcc.a(_modsi3.o)
                0x0000000040105260                __modsi3
 *fill*         0x00000000401052a9        0x3 
 .text          0x00000000401052ac       0x4c /opt/Espressif/esp-open-sdk/xtensa-lx106-elf/lib/gcc/xtensa-lx106-elf/4.8.2/libgcc.a(_udivsi3.o)
                0x00000000401052ac                __udivsi3
 .text          0x00000000401052f8       0x39 /opt/Espressif/esp-open-sdk/xtensa-lx106-elf/lib/gcc/xtensa-lx106-elf/4.8.2/libgcc.a(_umodsi3.o)
                0x00000000401052f8                __umodsi3
 *fill*         0x0000000040105331        0x0 
 *fill*         0x0000000040105331        0x0 
 *fill*         0x0000000040105331        0x0 
 *fill*         0x0000000040105331        0x0 
 *fill*         0x0000000040105331        0x3 
 .text          0x0000000040105334       0x36 /opt/Espressif/esp-open-sdk/xtensa-lx106-elf/lib/gcc/xtensa-lx106-elf/4.8.2/libgcc.a(_floatsidf.o)
                0x0000000040105334                __floatunsidf
                0x000000004010533c                __floatsidf
 *fill*         0x000000004010536a        0x0 
 *fill*         0x000000004010536a        0x0 
 *fill*         0x000000004010536a        0x2 
 .text          0x000000004010536c       0x48 /opt/Espressif/esp-open-sdk/xtensa-lx106-elf/lib/gcc/xtensa-lx106-elf/4.8.2/libgcc.a(_umulsidi3.o)
                0x000000004010536c                __umulsidi3
 .text          0x00000000401053b4        0x5 /opt/Espressif/esp-open-sdk/xtensa-lx106-elf/xtensa-lx106-elf/sysroot/usr/lib/libhal.a(int_asm--set_intclear.o)
                0x00000000401053b4                xthal_set_intclear
 *fill*         0x00000000401053b9        0x0 
 *fill*         0x00000000401053b9        0x3 
 .text          0x00000000401053bc        0x2 /opt/Espressif/esp-open-sdk/sdk/lib/libphy.a(phy_chip_v6.o)
                0x00000000401053bc                ram_tx_mac_disable
 *fill*         0x00000000401053be        0x0 
 *fill*         0x00000000401053be        0x0 
 *fill*         0x00000000401053be        0x2 
 .text          0x00000000401053c0       0x25 /opt/Espressif/esp-open-sdk/sdk/lib/libnet80211.a(ieee80211_hostap.o)
 *fill*         0x00000000401053e5        0x0 
 *fill*         0x00000000401053e5        0x0 
 *fill*         0x00000000401053e5        0x0 
 *fill*         0x00000000401053e5        0x0 
 *fill*         0x00000000401053e5        0x3 
 .text          0x00000000401053e8       0x11 /opt/Espressif/esp-open-sdk/sdk/lib/libwpa.a(wpa_auth.o)
 *fill*         0x00000000401053f9        0x0 
 *fill*         0x00000000401053f9        0x0 
 *fill*         0x00000000401053f9        0x3 
 .text          0x00000000401053fc       0x18 /opt/Espressif/esp-open-sdk/xtensa-lx106-elf/lib/gcc/xtensa-lx106-elf/4.8.2/libgcc.a(_ashrdi3.o)
                0x00000000401053fc                __ashrdi3
 *fill*         0x0000000040105414        0x0 
 *fill*         0x0000000040105414        0x0 
 *fill*         0x0000000040105414        0x0 
 *fill*         0x0000000040105414        0x0 
 .text          0x0000000040105414       0x44 /opt/Espressif/esp-open-sdk/xtensa-lx106-elf/lib/gcc/xtensa-lx106-elf/4.8.2/libgcc.a(_floatsisf.o)
                0x0000000040105414                __floatunsisf
                0x000000004010541c                __floatsisf
 *fill*         0x0000000040105458        0x0 
 *fill*         0x0000000040105458        0x0 
 *(.fini.literal)
 *(.fini)
 *(.gnu.version)
                0x0000000040105458                _text_end = ABSOLUTE (.)
                0x0000000040105458                _etext = .

.lit4           0x0000000040105458        0x0
                0x0000000040105458                _lit4_start = ABSOLUTE (.)
 *(*.lit4)
 *(.lit4.*)
 *(.gnu.linkonce.lit4.*)
                0x0000000040105458                _lit4_end = ABSOLUTE (.)
                0x00000000400047f0                PROVIDE (Cache_Read_Disable, 0x400047f0)
                0x0000000040004678                PROVIDE (Cache_Read_Enable, 0x40004678)
                0x00000000400035a0                PROVIDE (FilePacketSendReqMsgProc, 0x400035a0)
                0x000000004000368c                PROVIDE (FlashDwnLdParamCfgMsgProc, 0x4000368c)
                0x0000000040003538                PROVIDE (FlashDwnLdStartMsgProc, 0x40003538)
                0x0000000040003658                PROVIDE (FlashDwnLdStopReqMsgProc, 0x40003658)
                0x0000000040003f4c                PROVIDE (GetUartDevice, 0x40003f4c)
                0x0000000040009900                PROVIDE (MD5Final, 0x40009900)
                0x0000000040009818                PROVIDE (MD5Init, 0x40009818)
                0x0000000040009834                PROVIDE (MD5Update, 0x40009834)
                0x00000000400036c4                PROVIDE (MemDwnLdStartMsgProc, 0x400036c4)
                0x000000004000377c                PROVIDE (MemDwnLdStopReqMsgProc, 0x4000377c)
                0x00000000400036f0                PROVIDE (MemPacketSendReqMsgProc, 0x400036f0)
                0x0000000040003eac                PROVIDE (RcvMsg, 0x40003eac)
                0x000000004000b648                PROVIDE (SHA1Final, 0x4000b648)
                0x000000004000b584                PROVIDE (SHA1Init, 0x4000b584)
                0x000000004000a364                PROVIDE (SHA1Transform, 0x4000a364)
                0x000000004000b5a8                PROVIDE (SHA1Update, 0x4000b5a8)
                0x00000000400043c8                PROVIDE (SPI_read_status, 0x400043c8)
                0x0000000040004400                PROVIDE (SPI_write_status, 0x40004400)
                0x000000004000443c                PROVIDE (SPI_write_enable, 0x4000443c)
                0x000000004000448c                PROVIDE (Wait_SPI_Idle, 0x4000448c)
                0x0000000040004b44                PROVIDE (SPIEraseArea, 0x40004b44)
                0x00000000400049b4                PROVIDE (SPIEraseBlock, 0x400049b4)
                0x0000000040004984                PROVIDE (SPIEraseChip, 0x40004984)
                0x0000000040004a00                PROVIDE (SPIEraseSector, 0x40004a00)
                0x00000000400048a8                PROVIDE (SPILock, 0x400048a8)
                0x0000000040004c2c                PROVIDE (SPIParamCfg, 0x40004c2c)
                0x0000000040004b1c                PROVIDE (SPIRead, 0x40004b1c)
                0x00000000400048ec                PROVIDE (SPIReadModeCnfig, 0x400048ec)
                0x0000000040004878                PROVIDE (SPIUnlock, 0x40004878)
                0x0000000040004a4c                PROVIDE (SPIWrite, 0x40004a4c)
                0x0000000040003f58                PROVIDE (SelectSpiFunction, 0x40003f58)
                0x0000000040003cf4                PROVIDE (SendMsg, 0x40003cf4)
                0x0000000040003230                PROVIDE (UartConnCheck, 0x40003230)
                0x00000000400037a0                PROVIDE (UartConnectProc, 0x400037a0)
                0x0000000040003368                PROVIDE (UartDwnLdProc, 0x40003368)
                0x0000000040003ef4                PROVIDE (UartGetCmdLn, 0x40003ef4)
                0x000000004000381c                PROVIDE (UartRegReadProc, 0x4000381c)
                0x00000000400037ac                PROVIDE (UartRegWriteProc, 0x400037ac)
                0x0000000040003c30                PROVIDE (UartRxString, 0x40003c30)
                0x0000000040003a14                PROVIDE (Uart_Init, 0x40003a14)
                0x0000000040000010                PROVIDE (_DebugExceptionVector, 0x40000010)
                0x0000000040000070                PROVIDE (_DoubleExceptionVector, 0x40000070)
                0x0000000040000030                PROVIDE (_KernelExceptionVector, 0x40000030)
                0x0000000040000020                PROVIDE (_NMIExceptionVector, 0x40000020)
                0x00000000400000a4                PROVIDE (_ResetHandler, 0x400000a4)
                0x0000000040000080                PROVIDE (_ResetVector, 0x40000080)
                0x0000000040000050                PROVIDE (_UserExceptionVector, 0x40000050)
                0x000000004000c538                PROVIDE (__adddf3, 0x4000c538)
                0x000000004000c180                PROVIDE (__addsf3, 0x4000c180)
                0x000000004000cb94                PROVIDE (__divdf3, 0x4000cb94)
                0x000000004000ce60                PROVIDE (__divdi3, 0x4000ce60)
                0x000000004000dc88                PROVIDE (__divsi3, 0x4000dc88)
                0x000000004000cdfc                PROVIDE (__extendsfdf2, 0x4000cdfc)
                0x000000004000ccb8                PROVIDE (__fixdfsi, 0x4000ccb8)
                0x000000004000cd00                PROVIDE (__fixunsdfsi, 0x4000cd00)
                0x000000004000c4c4                PROVIDE (__fixunssfsi, 0x4000c4c4)
                0x000000004000e2f0                PROVIDE (__floatsidf, 0x4000e2f0)
                0x000000004000e2ac                PROVIDE (__floatsisf, 0x4000e2ac)
                0x000000004000e2e8                PROVIDE (__floatunsidf, 0x4000e2e8)
                0x000000004000e2a4                PROVIDE (__floatunsisf, 0x4000e2a4)
                0x000000004000c8f0                PROVIDE (__muldf3, 0x4000c8f0)
                0x0000000040000650                PROVIDE (__muldi3, 0x40000650)
                0x000000004000c3dc                PROVIDE (__mulsf3, 0x4000c3dc)
                0x000000004000c688                PROVIDE (__subdf3, 0x4000c688)
                0x000000004000c268                PROVIDE (__subsf3, 0x4000c268)
                0x000000004000cd5c                PROVIDE (__truncdfsf2, 0x4000cd5c)
                0x000000004000d310                PROVIDE (__udivdi3, 0x4000d310)
                0x000000004000e21c                PROVIDE (__udivsi3, 0x4000e21c)
                0x000000004000d770                PROVIDE (__umoddi3, 0x4000d770)
                0x000000004000e268                PROVIDE (__umodsi3, 0x4000e268)
                0x000000004000dcf0                PROVIDE (__umulsidi3, 0x4000dcf0)
                0x000000004000e388                PROVIDE (_rom_store, 0x4000e388)
                0x000000004000e328                PROVIDE (_rom_store_table, 0x4000e328)
                0x000000004000042c                PROVIDE (_start, 0x4000042c)
                0x000000004000dbe0                PROVIDE (_xtos_alloca_handler, 0x4000dbe0)
                0x0000000040000598                PROVIDE (_xtos_c_wrapper_handler, 0x40000598)
                0x0000000040000590                PROVIDE (_xtos_cause3_handler, 0x40000590)
                0x000000004000bda4                PROVIDE (_xtos_ints_off, 0x4000bda4)
                0x000000004000bd84                PROVIDE (_xtos_ints_on, 0x4000bd84)
                0x000000004000048c                PROVIDE (_xtos_l1int_handler, 0x4000048c)
                0x000000004000dbf8                PROVIDE (_xtos_p_none, 0x4000dbf8)
                0x000000004000056c                PROVIDE (_xtos_restore_intlevel, 0x4000056c)
                0x000000004000dc54                PROVIDE (_xtos_return_from_exc, 0x4000dc54)
                0x0000000040000454                PROVIDE (_xtos_set_exception_handler, 0x40000454)
                0x000000004000bd70                PROVIDE (_xtos_set_interrupt_handler, 0x4000bd70)
                0x000000004000bd28                PROVIDE (_xtos_set_interrupt_handler_arg, 0x4000bd28)
                0x000000004000dbfc                PROVIDE (_xtos_set_intlevel, 0x4000dbfc)
                0x000000004000dc18                PROVIDE (_xtos_set_min_intlevel, 0x4000dc18)
                0x0000000040000574                PROVIDE (_xtos_set_vpri, 0x40000574)
                0x000000004000dbe4                PROVIDE (_xtos_syscall_handler, 0x4000dbe4)
                0x000000004000dc44                PROVIDE (_xtos_unhandled_exception, 0x4000dc44)
                0x000000004000dc3c                PROVIDE (_xtos_unhandled_interrupt, 0x4000dc3c)
                0x00000000400092d4                PROVIDE (aes_decrypt, 0x400092d4)
                0x00000000400092e4                PROVIDE (aes_decrypt_deinit, 0x400092e4)
                0x0000000040008ea4                PROVIDE (aes_decrypt_init, 0x40008ea4)
                0x0000000040009410                PROVIDE (aes_unwrap, 0x40009410)
                0x0000000040009648                PROVIDE (base64_decode, 0x40009648)
                0x00000000400094fc                PROVIDE (base64_encode, 0x400094fc)
                0x000000004000de84                PROVIDE (bzero, 0x4000de84)
                0x0000000040000814                PROVIDE (cmd_parse, 0x40000814)
                0x0000000040000b24                PROVIDE (conv_str_decimal, 0x40000b24)
                0x0000000040000cb8                PROVIDE (conv_str_hex, 0x40000cb8)
                0x0000000040000a60                PROVIDE (convert_para_str, 0x40000a60)
                0x00000000400026d0                PROVIDE (dtm_get_intr_mask, 0x400026d0)
                0x000000004000269c                PROVIDE (dtm_params_init, 0x4000269c)
                0x00000000400026c8                PROVIDE (dtm_set_intr_mask, 0x400026c8)
                0x00000000400026dc                PROVIDE (dtm_set_params, 0x400026dc)
                0x0000000040001d14                PROVIDE (eprintf, 0x40001d14)
                0x0000000040001cb8                PROVIDE (eprintf_init_buf, 0x40001cb8)
                0x0000000040001d48                PROVIDE (eprintf_to_host, 0x40001d48)
                0x0000000040002494                PROVIDE (est_get_printf_buf_remain_len, 0x40002494)
                0x000000004000249c                PROVIDE (est_reset_printf_buf_len, 0x4000249c)
                0x0000000040002ae8                PROVIDE (ets_bzero, 0x40002ae8)
                0x0000000040002b74                PROVIDE (ets_char2xdigit, 0x40002b74)
                0x0000000040002ecc                PROVIDE (ets_delay_us, 0x40002ecc)
                0x00000000400027b8                PROVIDE (ets_enter_sleep, 0x400027b8)
                0x0000000040002578                PROVIDE (ets_external_printf, 0x40002578)
                0x0000000040002f0c                PROVIDE (ets_get_cpu_frequency, 0x40002f0c)
                0x0000000040002bcc                PROVIDE (ets_getc, 0x40002bcc)
                0x0000000040002450                PROVIDE (ets_install_external_printf, 0x40002450)
                0x000000004000242c                PROVIDE (ets_install_putc1, 0x4000242c)
                0x000000004000248c                PROVIDE (ets_install_putc2, 0x4000248c)
                0x0000000040002438                PROVIDE (ets_install_uart_printf, 0x40002438)
                0x0000000040000f74                PROVIDE (ets_intr_lock, 0x40000f74)
                0x0000000040000f80                PROVIDE (ets_intr_unlock, 0x40000f80)
                0x0000000040000f88                PROVIDE (ets_isr_attach, 0x40000f88)
                0x0000000040000f98                PROVIDE (ets_isr_mask, 0x40000f98)
                0x0000000040000fa8                PROVIDE (ets_isr_unmask, 0x40000fa8)
                0x00000000400018d4                PROVIDE (ets_memcmp, 0x400018d4)
                0x00000000400018b4                PROVIDE (ets_memcpy, 0x400018b4)
                0x00000000400018c4                PROVIDE (ets_memmove, 0x400018c4)
                0x00000000400018a4                PROVIDE (ets_memset, 0x400018a4)
                0x0000000040000e24                PROVIDE (ets_post, 0x40000e24)
                0x00000000400024cc                PROVIDE (ets_printf, 0x400024cc)
                0x0000000040002be8                PROVIDE (ets_putc, 0x40002be8)
                0x0000000040002a40                PROVIDE (ets_rtc_int_register, 0x40002a40)
                0x0000000040000e04                PROVIDE (ets_run, 0x40000e04)
                0x0000000040000dc0                PROVIDE (ets_set_idle_cb, 0x40000dc0)
                0x0000000040000fbc                PROVIDE (ets_set_user_start, 0x40000fbc)
                0x0000000040002af8                PROVIDE (ets_str2macaddr, 0x40002af8)
                0x0000000040002aa8                PROVIDE (ets_strcmp, 0x40002aa8)
                0x0000000040002a88                PROVIDE (ets_strcpy, 0x40002a88)
                0x0000000040002ac8                PROVIDE (ets_strlen, 0x40002ac8)
                0x0000000040002ab8                PROVIDE (ets_strncmp, 0x40002ab8)
                0x0000000040002a98                PROVIDE (ets_strncpy, 0x40002a98)
                0x0000000040002ad8                PROVIDE (ets_strstr, 0x40002ad8)
                0x0000000040000dd0                PROVIDE (ets_task, 0x40000dd0)
                0x0000000040002cc4                PROVIDE (ets_timer_arm, 0x40002cc4)
                0x0000000040002d40                PROVIDE (ets_timer_disarm, 0x40002d40)
                0x0000000040002d80                PROVIDE (ets_timer_done, 0x40002d80)
                0x0000000040002da8                PROVIDE (ets_timer_handler_isr, 0x40002da8)
                0x0000000040002e68                PROVIDE (ets_timer_init, 0x40002e68)
                0x0000000040002c48                PROVIDE (ets_timer_setfn, 0x40002c48)
                0x0000000040002544                PROVIDE (ets_uart_printf, 0x40002544)
                0x0000000040002f04                PROVIDE (ets_update_cpu_frequency, 0x40002f04)
                0x0000000040001f00                PROVIDE (ets_vprintf, 0x40001f00)
                0x00000000400030f0                PROVIDE (ets_wdt_disable, 0x400030f0)
                0x0000000040002fa0                PROVIDE (ets_wdt_enable, 0x40002fa0)
                0x0000000040002f34                PROVIDE (ets_wdt_get_mode, 0x40002f34)
                0x0000000040003170                PROVIDE (ets_wdt_init, 0x40003170)
                0x0000000040003158                PROVIDE (ets_wdt_restore, 0x40003158)
                0x0000000040001da0                PROVIDE (ets_write_char, 0x40001da0)
                0x000000004000091c                PROVIDE (get_first_seg, 0x4000091c)
                0x0000000040004c50                PROVIDE (gpio_init, 0x40004c50)
                0x0000000040004cf0                PROVIDE (gpio_input_get, 0x40004cf0)
                0x0000000040004dcc                PROVIDE (gpio_intr_ack, 0x40004dcc)
                0x0000000040004e28                PROVIDE (gpio_intr_handler_register, 0x40004e28)
                0x0000000040004d88                PROVIDE (gpio_intr_pending, 0x40004d88)
                0x0000000040004efc                PROVIDE (gpio_intr_test, 0x40004efc)
                0x0000000040004cd0                PROVIDE (gpio_output_set, 0x40004cd0)
                0x0000000040004d90                PROVIDE (gpio_pin_intr_state_set, 0x40004d90)
                0x0000000040004ed4                PROVIDE (gpio_pin_wakeup_disable, 0x40004ed4)
                0x0000000040004e90                PROVIDE (gpio_pin_wakeup_enable, 0x40004e90)
                0x0000000040004d5c                PROVIDE (gpio_register_get, 0x40004d5c)
                0x0000000040004d04                PROVIDE (gpio_register_set, 0x40004d04)
                0x000000004000a2cc                PROVIDE (hmac_md5, 0x4000a2cc)
                0x000000004000a160                PROVIDE (hmac_md5_vector, 0x4000a160)
                0x000000004000ba28                PROVIDE (hmac_sha1, 0x4000ba28)
                0x000000004000b8b4                PROVIDE (hmac_sha1_vector, 0x4000b8b4)
                0x0000000040004f40                PROVIDE (lldesc_build_chain, 0x40004f40)
                0x0000000040005050                PROVIDE (lldesc_num2link, 0x40005050)
                0x000000004000507c                PROVIDE (lldesc_set_owner, 0x4000507c)
                0x0000000040000fec                PROVIDE (main, 0x40000fec)
                0x00000000400097ac                PROVIDE (md5_vector, 0x400097ac)
                0x0000000040001c2c                PROVIDE (mem_calloc, 0x40001c2c)
                0x00000000400019e0                PROVIDE (mem_free, 0x400019e0)
                0x0000000040001998                PROVIDE (mem_init, 0x40001998)
                0x0000000040001b40                PROVIDE (mem_malloc, 0x40001b40)
                0x0000000040001c6c                PROVIDE (mem_realloc, 0x40001c6c)
                0x0000000040001a14                PROVIDE (mem_trim, 0x40001a14)
                0x0000000040001c58                PROVIDE (mem_zalloc, 0x40001c58)
                0x000000004000dea8                PROVIDE (memcmp, 0x4000dea8)
                0x000000004000df48                PROVIDE (memcpy, 0x4000df48)
                0x000000004000e04c                PROVIDE (memmove, 0x4000e04c)
                0x000000004000e190                PROVIDE (memset, 0x4000e190)
                0x00000000400031c0                PROVIDE (multofup, 0x400031c0)
                0x000000004000b840                PROVIDE (pbkdf2_sha1, 0x4000b840)
                0x0000000040006b08                PROVIDE (phy_get_romfuncs, 0x40006b08)
                0x0000000040000600                PROVIDE (rand, 0x40000600)
                0x000000004000dd68                PROVIDE (rc4_skip, 0x4000dd68)
                0x0000000040003d08                PROVIDE (recv_packet, 0x40003d08)
                0x0000000040000a04                PROVIDE (remove_head_space, 0x40000a04)
                0x0000000040008dd0                PROVIDE (rijndaelKeySetupDec, 0x40008dd0)
                0x0000000040009300                PROVIDE (rijndaelKeySetupEnc, 0x40009300)
                0x00000000400060c0                PROVIDE (rom_abs_temp, 0x400060c0)
                0x0000000040006b10                PROVIDE (rom_ana_inf_gating_en, 0x40006b10)
                0x0000000040007a28                PROVIDE (rom_cal_tos_v50, 0x40007a28)
                0x0000000040006f84                PROVIDE (rom_chip_50_set_channel, 0x40006f84)
                0x00000000400060d0                PROVIDE (rom_chip_v5_disable_cca, 0x400060d0)
                0x00000000400060ec                PROVIDE (rom_chip_v5_enable_cca, 0x400060ec)
                0x000000004000711c                PROVIDE (rom_chip_v5_rx_init, 0x4000711c)
                0x000000004000610c                PROVIDE (rom_chip_v5_sense_backoff, 0x4000610c)
                0x000000004000718c                PROVIDE (rom_chip_v5_tx_init, 0x4000718c)
                0x000000004000615c                PROVIDE (rom_dc_iq_est, 0x4000615c)
                0x00000000400061b8                PROVIDE (rom_en_pwdet, 0x400061b8)
                0x0000000040006238                PROVIDE (rom_get_bb_atten, 0x40006238)
                0x0000000040006260                PROVIDE (rom_get_corr_power, 0x40006260)
                0x00000000400062dc                PROVIDE (rom_get_fm_sar_dout, 0x400062dc)
                0x0000000040006394                PROVIDE (rom_get_noisefloor, 0x40006394)
                0x00000000400063b0                PROVIDE (rom_get_power_db, 0x400063b0)
                0x0000000040007268                PROVIDE (rom_i2c_readReg, 0x40007268)
                0x000000004000729c                PROVIDE (rom_i2c_readReg_Mask, 0x4000729c)
                0x00000000400072d8                PROVIDE (rom_i2c_writeReg, 0x400072d8)
                0x000000004000730c                PROVIDE (rom_i2c_writeReg_Mask, 0x4000730c)
                0x0000000040006400                PROVIDE (rom_iq_est_disable, 0x40006400)
                0x0000000040006430                PROVIDE (rom_iq_est_enable, 0x40006430)
                0x0000000040006484                PROVIDE (rom_linear_to_db, 0x40006484)
                0x00000000400065a4                PROVIDE (rom_mhz2ieee, 0x400065a4)
                0x0000000040007bf0                PROVIDE (rom_pbus_dco___SA2, 0x40007bf0)
                0x000000004000737c                PROVIDE (rom_pbus_debugmode, 0x4000737c)
                0x0000000040007410                PROVIDE (rom_pbus_enter_debugmode, 0x40007410)
                0x0000000040007448                PROVIDE (rom_pbus_exit_debugmode, 0x40007448)
                0x000000004000747c                PROVIDE (rom_pbus_force_test, 0x4000747c)
                0x00000000400074d8                PROVIDE (rom_pbus_rd, 0x400074d8)
                0x000000004000754c                PROVIDE (rom_pbus_set_rxgain, 0x4000754c)
                0x0000000040007610                PROVIDE (rom_pbus_set_txgain, 0x40007610)
                0x0000000040007648                PROVIDE (rom_pbus_workmode, 0x40007648)
                0x0000000040007688                PROVIDE (rom_pbus_xpd_rx_off, 0x40007688)
                0x00000000400076cc                PROVIDE (rom_pbus_xpd_rx_on, 0x400076cc)
                0x00000000400076fc                PROVIDE (rom_pbus_xpd_tx_off, 0x400076fc)
                0x0000000040007740                PROVIDE (rom_pbus_xpd_tx_on, 0x40007740)
                0x00000000400077a0                PROVIDE (rom_pbus_xpd_tx_on__low_gain, 0x400077a0)
                0x0000000040007804                PROVIDE (rom_phy_reset_req, 0x40007804)
                0x000000004000781c                PROVIDE (rom_restart_cal, 0x4000781c)
                0x0000000040007eb4                PROVIDE (rom_rfcal_pwrctrl, 0x40007eb4)
                0x000000004000804c                PROVIDE (rom_rfcal_rxiq, 0x4000804c)
                0x0000000040008264                PROVIDE (rom_rfcal_rxiq_set_reg, 0x40008264)
                0x0000000040008388                PROVIDE (rom_rfcal_txcap, 0x40008388)
                0x0000000040008610                PROVIDE (rom_rfcal_txiq, 0x40008610)
                0x00000000400088b8                PROVIDE (rom_rfcal_txiq_cover, 0x400088b8)
                0x0000000040008a70                PROVIDE (rom_rfcal_txiq_set_reg, 0x40008a70)
                0x0000000040007868                PROVIDE (rom_rfpll_reset, 0x40007868)
                0x0000000040007968                PROVIDE (rom_rfpll_set_freq, 0x40007968)
                0x0000000040008b6c                PROVIDE (rom_rxiq_cover_mg_mp, 0x40008b6c)
                0x0000000040006628                PROVIDE (rom_rxiq_get_mis, 0x40006628)
                0x0000000040006738                PROVIDE (rom_sar_init, 0x40006738)
                0x000000004000678c                PROVIDE (rom_set_ana_inf_tx_scale, 0x4000678c)
                0x0000000040006c50                PROVIDE (rom_set_channel_freq, 0x40006c50)
                0x00000000400067c8                PROVIDE (rom_set_loopback_gain, 0x400067c8)
                0x0000000040006830                PROVIDE (rom_set_noise_floor, 0x40006830)
                0x0000000040006550                PROVIDE (rom_set_rxclk_en, 0x40006550)
                0x0000000040008c6c                PROVIDE (rom_set_txbb_atten, 0x40008c6c)
                0x000000004000650c                PROVIDE (rom_set_txclk_en, 0x4000650c)
                0x0000000040008d34                PROVIDE (rom_set_txiq_cal, 0x40008d34)
                0x0000000040006874                PROVIDE (rom_start_noisefloor, 0x40006874)
                0x00000000400068b4                PROVIDE (rom_start_tx_tone, 0x400068b4)
                0x000000004000698c                PROVIDE (rom_stop_tx_tone, 0x4000698c)
                0x0000000040006a98                PROVIDE (rom_tx_mac_disable, 0x40006a98)
                0x0000000040006ad4                PROVIDE (rom_tx_mac_enable, 0x40006ad4)
                0x0000000040006a1c                PROVIDE (rom_txtone_linear_pwr, 0x40006a1c)
                0x00000000400078dc                PROVIDE (rom_write_rfpll_sdm, 0x400078dc)
                0x00000000400031b4                PROVIDE (roundup2, 0x400031b4)
                0x0000000040002870                PROVIDE (rtc_enter_sleep, 0x40002870)
                0x00000000400025e0                PROVIDE (rtc_get_reset_reason, 0x400025e0)
                0x00000000400029ec                PROVIDE (rtc_intr_handler, 0x400029ec)
                0x0000000040002668                PROVIDE (rtc_set_sleep_mode, 0x40002668)
                0x00000000400027a4                PROVIDE (save_rxbcn_mactime, 0x400027a4)
                0x00000000400027ac                PROVIDE (save_tsf_us, 0x400027ac)
                0x0000000040003c80                PROVIDE (send_packet, 0x40003c80)
                0x000000004000ba48                PROVIDE (sha1_prf, 0x4000ba48)
                0x000000004000a2ec                PROVIDE (sha1_vector, 0x4000a2ec)
                0x0000000040005180                PROVIDE (sip_alloc_to_host_evt, 0x40005180)
                0x00000000400058a8                PROVIDE (sip_get_ptr, 0x400058a8)
                0x0000000040005668                PROVIDE (sip_get_state, 0x40005668)
                0x000000004000567c                PROVIDE (sip_init_attach, 0x4000567c)
                0x000000004000544c                PROVIDE (sip_install_rx_ctrl_cb, 0x4000544c)
                0x000000004000545c                PROVIDE (sip_install_rx_data_cb, 0x4000545c)
                0x00000000400050fc                PROVIDE (sip_post, 0x400050fc)
                0x00000000400056c4                PROVIDE (sip_post_init, 0x400056c4)
                0x000000004000534c                PROVIDE (sip_reclaim_from_host_cmd, 0x4000534c)
                0x00000000400052c0                PROVIDE (sip_reclaim_tx_data_pkt, 0x400052c0)
                0x0000000040005808                PROVIDE (sip_send, 0x40005808)
                0x0000000040005864                PROVIDE (sip_to_host_chain_append, 0x40005864)
                0x0000000040005234                PROVIDE (sip_to_host_evt_send_done, 0x40005234)
                0x00000000400060ac                PROVIDE (slc_add_credits, 0x400060ac)
                0x0000000040005d90                PROVIDE (slc_enable, 0x40005d90)
                0x0000000040005f24                PROVIDE (slc_from_host_chain_fetch, 0x40005f24)
                0x0000000040005e94                PROVIDE (slc_from_host_chain_recycle, 0x40005e94)
                0x0000000040005c50                PROVIDE (slc_init_attach, 0x40005c50)
                0x000000004000608c                PROVIDE (slc_init_credit, 0x4000608c)
                0x0000000040006014                PROVIDE (slc_pause_from_host, 0x40006014)
                0x0000000040005c1c                PROVIDE (slc_reattach, 0x40005c1c)
                0x000000004000603c                PROVIDE (slc_resume_from_host, 0x4000603c)
                0x0000000040005dc0                PROVIDE (slc_select_tohost_gpio, 0x40005dc0)
                0x0000000040005db8                PROVIDE (slc_select_tohost_gpio_mode, 0x40005db8)
                0x0000000040005de4                PROVIDE (slc_send_to_host_chain, 0x40005de4)
                0x0000000040006068                PROVIDE (slc_set_host_io_max_window, 0x40006068)
                0x0000000040005f10                PROVIDE (slc_to_host_chain_recycle, 0x40005f10)
                0x000000004000264c                PROVIDE (software_reset, 0x4000264c)
                0x0000000040004644                PROVIDE (spi_flash_attach, 0x40004644)
                0x00000000400005f0                PROVIDE (srand, 0x400005f0)
                0x000000004000bdc8                PROVIDE (strcmp, 0x4000bdc8)
                0x000000004000bec8                PROVIDE (strcpy, 0x4000bec8)
                0x000000004000bf4c                PROVIDE (strlen, 0x4000bf4c)
                0x000000004000bfa8                PROVIDE (strncmp, 0x4000bfa8)
                0x000000004000c0a0                PROVIDE (strncpy, 0x4000c0a0)
                0x000000004000e1e0                PROVIDE (strstr, 0x4000e1e0)
                0x0000000040002c64                PROVIDE (timer_insert, 0x40002c64)
                0x000000004000383c                PROVIDE (uartAttach, 0x4000383c)
                0x0000000040003924                PROVIDE (uart_baudrate_detect, 0x40003924)
                0x00000000400038a4                PROVIDE (uart_buff_switch, 0x400038a4)
                0x00000000400039d8                PROVIDE (uart_div_modify, 0x400039d8)
                0x0000000040003bbc                PROVIDE (uart_rx_intr_handler, 0x40003bbc)
                0x0000000040003b8c                PROVIDE (uart_rx_one_char, 0x40003b8c)
                0x0000000040003b64                PROVIDE (uart_rx_one_char_block, 0x40003b64)
                0x0000000040003ec8                PROVIDE (uart_rx_readbuff, 0x40003ec8)
                0x0000000040003b30                PROVIDE (uart_tx_one_char, 0x40003b30)
                0x000000004000bc40                PROVIDE (wepkey_128, 0x4000bc40)
                0x000000004000bb3c                PROVIDE (wepkey_64, 0x4000bb3c)
                0x0000000040000688                PROVIDE (xthal_bcopy, 0x40000688)
                0x000000004000074c                PROVIDE (xthal_copy123, 0x4000074c)
                0x000000004000dd4c                PROVIDE (xthal_get_ccompare, 0x4000dd4c)
                0x000000004000dd38                PROVIDE (xthal_get_ccount, 0x4000dd38)
                0x000000004000dd58                PROVIDE (xthal_get_interrupt, 0x4000dd58)
                0x000000004000dd58                PROVIDE (xthal_get_intread, 0x4000dd58)
                0x00000000400006c4                PROVIDE (xthal_memcpy, 0x400006c4)
                0x000000004000dd40                PROVIDE (xthal_set_ccompare, 0x4000dd40)
                0x000000004000dd60                PROVIDE (xthal_set_intclear, 0x4000dd60)
                0x000000004000e320                PROVIDE (xthal_spill_registers_into_stack_nw, 0x4000e320)
                0x000000004000e324                PROVIDE (xthal_window_spill, 0x4000e324)
                0x000000004000e320                PROVIDE (xthal_window_spill_nw, 0x4000e320)
                0x000000003fffccf0                PROVIDE (Te0, 0x3fffccf0)
                0x000000003fffde10                PROVIDE (UartDev, 0x3fffde10)
                0x000000003fffc714                PROVIDE (flashchip, 0x3fffc714)
OUTPUT(build/app.out elf32-xtensa-le)

.xtensa.info    0x0000000000000000       0x38
 .xtensa.info   0x0000000000000000       0x38 /opt/Espressif/esp-open-sdk/sdk/lib/libmain.a(debug-vector.o)
 .xtensa.info   0x0000000000000000        0x0 /opt/Espressif/esp-open-sdk/sdk/lib/libmain.a(double-vector.o)
 .xtensa.info   0x0000000000000000        0x0 /opt/Espressif/esp-open-sdk/sdk/lib/libmain.a(kernel-vector.o)
 .xtensa.info   0x0000000000000000        0x0 /opt/Espressif/esp-open-sdk/sdk/lib/libmain.a(nmi-vector.o)
 .xtensa.info   0x0000000000000000        0x0 /opt/Espressif/esp-open-sdk/sdk/lib/libmain.a(user-vector.o)
 .xtensa.info   0x0000000000000000        0x0 /opt/Espressif/esp-open-sdk/sdk/lib/libmain.a(vector.o)
 .xtensa.info   0x0000000000000000        0x0 /opt/Espressif/esp-open-sdk/sdk/lib/libmain.a(app_main.o)
 .xtensa.info   0x0000000000000000        0x0 /opt/Espressif/esp-open-sdk/sdk/lib/libmain.a(ets_timer.o)
 .xtensa.info   0x0000000000000000        0x0 /opt/Espressif/esp-open-sdk/sdk/lib/libmain.a(mem_manager.o)
 .xtensa.info   0x0000000000000000        0x0 /opt/Espressif/esp-open-sdk/sdk/lib/libmain.a(spi_flash.o)
 .xtensa.info   0x0000000000000000        0x0 /opt/Espressif/esp-open-sdk/sdk/lib/libmain.a(user_interface.o)
 .xtensa.info   0x0000000000000000        0x0 /opt/Espressif/esp-open-sdk/sdk/lib/libmain.a(empty_user_rf_pre_init.o)
 .xtensa.info   0x0000000000000000        0x0 /opt/Espressif/esp-open-sdk/sdk/lib/libmain.a(eagle_lib.o)
 .xtensa.info   0x0000000000000000        0x0 /opt/Espressif/esp-open-sdk/sdk/lib/libmain.a(eagle_lwip_if.o)
 .xtensa.info   0x0000000000000000        0x0 build/app_app.a(user_main.o)
 .xtensa.info   0x0000000000000000        0x0 build/app_app.a(debug.o)
 .xtensa.info   0x0000000000000000        0x0 build/app_app.a(pr.o)
 .xtensa.info   0x0000000000000000        0x0 build/app_app.a(printf.o)
 .xtensa.info   0x0000000000000000        0x0 build/app_app.a(time.o)
 .xtensa.info   0x0000000000000000        0x0 build/app_app.a(timer_hal.o)
 .xtensa.info   0x0000000000000000        0x0 build/app_app.a(hspi.o)
 .xtensa.info   0x0000000000000000        0x0 build/app_app.a(uart.o)
 .xtensa.info   0x0000000000000000        0x0 build/app_app.a(util.o)
 .xtensa.info   0x0000000000000000        0x0 build/app_app.a(cal_dex.o)
 .xtensa.info   0x0000000000000000        0x0 build/app_app.a(ili9341.o)
 .xtensa.info   0x0000000000000000        0x0 build/app_app.a(network.o)
 .xtensa.info   0x0000000000000000        0x0 build/app_app.a(wire.o)
 .xtensa.info   0x0000000000000000        0x0 build/app_app.a(timer.o)
 .xtensa.info   0x0000000000000000        0x0 build/app_app.a(queue.o)
 .xtensa.info   0x0000000000000000        0x0 build/app_app.a(ili9341_adafruit.o)
 .xtensa.info   0x0000000000000000        0x0 build/app_app.a(font.o)
 .xtensa.info   0x0000000000000000        0x0 build/app_app.a(cordic.o)
 .xtensa.info   0x0000000000000000        0x0 /opt/Espressif/esp-open-sdk/xtensa-lx106-elf/lib/gcc/xtensa-lx106-elf/4.8.2/libgcc.a(_divsi3.o)
 .xtensa.info   0x0000000000000000        0x0 /opt/Espressif/esp-open-sdk/xtensa-lx106-elf/lib/gcc/xtensa-lx106-elf/4.8.2/libgcc.a(_modsi3.o)
 .xtensa.info   0x0000000000000000        0x0 /opt/Espressif/esp-open-sdk/xtensa-lx106-elf/lib/gcc/xtensa-lx106-elf/4.8.2/libgcc.a(_udivsi3.o)
 .xtensa.info   0x0000000000000000        0x0 /opt/Espressif/esp-open-sdk/xtensa-lx106-elf/lib/gcc/xtensa-lx106-elf/4.8.2/libgcc.a(_umodsi3.o)
 .xtensa.info   0x0000000000000000        0x0 /opt/Espressif/esp-open-sdk/xtensa-lx106-elf/lib/gcc/xtensa-lx106-elf/4.8.2/libgcc.a(_addsubdf3.o)
 .xtensa.info   0x0000000000000000        0x0 /opt/Espressif/esp-open-sdk/xtensa-lx106-elf/lib/gcc/xtensa-lx106-elf/4.8.2/libgcc.a(_muldf3.o)
 .xtensa.info   0x0000000000000000        0x0 /opt/Espressif/esp-open-sdk/xtensa-lx106-elf/lib/gcc/xtensa-lx106-elf/4.8.2/libgcc.a(_divdf3.o)
 .xtensa.info   0x0000000000000000        0x0 /opt/Espressif/esp-open-sdk/xtensa-lx106-elf/lib/gcc/xtensa-lx106-elf/4.8.2/libgcc.a(_cmpdf2.o)
 .xtensa.info   0x0000000000000000        0x0 /opt/Espressif/esp-open-sdk/xtensa-lx106-elf/lib/gcc/xtensa-lx106-elf/4.8.2/libgcc.a(_fixdfsi.o)
 .xtensa.info   0x0000000000000000        0x0 /opt/Espressif/esp-open-sdk/xtensa-lx106-elf/lib/gcc/xtensa-lx106-elf/4.8.2/libgcc.a(_floatsidf.o)
 .xtensa.info   0x0000000000000000        0x0 /opt/Espressif/esp-open-sdk/xtensa-lx106-elf/lib/gcc/xtensa-lx106-elf/4.8.2/libgcc.a(_truncdfsf2.o)
 .xtensa.info   0x0000000000000000        0x0 /opt/Espressif/esp-open-sdk/xtensa-lx106-elf/lib/gcc/xtensa-lx106-elf/4.8.2/libgcc.a(_extendsfdf2.o)
 .xtensa.info   0x0000000000000000        0x0 /opt/Espressif/esp-open-sdk/xtensa-lx106-elf/lib/gcc/xtensa-lx106-elf/4.8.2/libgcc.a(_muldi3.o)
 .xtensa.info   0x0000000000000000        0x0 /opt/Espressif/esp-open-sdk/xtensa-lx106-elf/lib/gcc/xtensa-lx106-elf/4.8.2/libgcc.a(_umulsidi3.o)
 .xtensa.info   0x0000000000000000        0x0 /opt/Espressif/esp-open-sdk/xtensa-lx106-elf/xtensa-lx106-elf/sysroot/usr/lib/libhal.a(int_asm--set_intclear.o)
 .xtensa.info   0x0000000000000000        0x0 /opt/Espressif/esp-open-sdk/sdk/lib/libphy.a(phy.o)
 .xtensa.info   0x0000000000000000        0x0 /opt/Espressif/esp-open-sdk/sdk/lib/libphy.a(phy_chip_v6_ana.o)
 .xtensa.info   0x0000000000000000        0x0 /opt/Espressif/esp-open-sdk/sdk/lib/libphy.a(phy_chip_v6.o)
 .xtensa.info   0x0000000000000000        0x0 /opt/Espressif/esp-open-sdk/sdk/lib/libphy.a(phy_chip_v6_cal.o)
 .xtensa.info   0x0000000000000000        0x0 /opt/Espressif/esp-open-sdk/sdk/lib/libphy.a(phy_chip_v6_unused.o)
 .xtensa.info   0x0000000000000000        0x0 /opt/Espressif/esp-open-sdk/sdk/lib/libphy.a(phy_sleep.o)
 .xtensa.info   0x0000000000000000        0x0 /opt/Espressif/esp-open-sdk/sdk/lib/libpp.a(if_hwctrl.o)
 .xtensa.info   0x0000000000000000        0x0 /opt/Espressif/esp-open-sdk/sdk/lib/libpp.a(lmac.o)
 .xtensa.info   0x0000000000000000        0x0 /opt/Espressif/esp-open-sdk/sdk/lib/libpp.a(pm.o)
 .xtensa.info   0x0000000000000000        0x0 /opt/Espressif/esp-open-sdk/sdk/lib/libpp.a(pm_for_bcn_only_mode.o)
 .xtensa.info   0x0000000000000000        0x0 /opt/Espressif/esp-open-sdk/sdk/lib/libpp.a(pp.o)
 .xtensa.info   0x0000000000000000        0x0 /opt/Espressif/esp-open-sdk/sdk/lib/libpp.a(rate_control.o)
 .xtensa.info   0x0000000000000000        0x0 /opt/Espressif/esp-open-sdk/sdk/lib/libpp.a(trc.o)
 .xtensa.info   0x0000000000000000        0x0 /opt/Espressif/esp-open-sdk/sdk/lib/libpp.a(wdev.o)
 .xtensa.info   0x0000000000000000        0x0 /opt/Espressif/esp-open-sdk/sdk/lib/libpp.a(esf_buf.o)
 .xtensa.info   0x0000000000000000        0x0 /opt/Espressif/esp-open-sdk/sdk/lib/libnet80211.a(ieee80211.o)
 .xtensa.info   0x0000000000000000        0x0 /opt/Espressif/esp-open-sdk/sdk/lib/libnet80211.a(ieee80211_crypto.o)
 .xtensa.info   0x0000000000000000        0x0 /opt/Espressif/esp-open-sdk/sdk/lib/libnet80211.a(ieee80211_ets.o)
 .xtensa.info   0x0000000000000000        0x0 /opt/Espressif/esp-open-sdk/sdk/lib/libnet80211.a(ieee80211_hostap.o)
 .xtensa.info   0x0000000000000000        0x0 /opt/Espressif/esp-open-sdk/sdk/lib/libnet80211.a(ieee80211_ht.o)
 .xtensa.info   0x0000000000000000        0x0 /opt/Espressif/esp-open-sdk/sdk/lib/libnet80211.a(ieee80211_input.o)
 .xtensa.info   0x0000000000000000        0x0 /opt/Espressif/esp-open-sdk/sdk/lib/libnet80211.a(ieee80211_output.o)
 .xtensa.info   0x0000000000000000        0x0 /opt/Espressif/esp-open-sdk/sdk/lib/libnet80211.a(ieee80211_phy.o)
 .xtensa.info   0x0000000000000000        0x0 /opt/Espressif/esp-open-sdk/sdk/lib/libnet80211.a(ieee80211_power.o)
 .xtensa.info   0x0000000000000000        0x0 /opt/Espressif/esp-open-sdk/sdk/lib/libnet80211.a(ieee80211_proto.o)
 .xtensa.info   0x0000000000000000        0x0 /opt/Espressif/esp-open-sdk/sdk/lib/libnet80211.a(ieee80211_scan.o)
 .xtensa.info   0x0000000000000000        0x0 /opt/Espressif/esp-open-sdk/sdk/lib/libnet80211.a(ieee80211_sta.o)
 .xtensa.info   0x0000000000000000        0x0 /opt/Espressif/esp-open-sdk/sdk/lib/libnet80211.a(wl_chm.o)
 .xtensa.info   0x0000000000000000        0x0 /opt/Espressif/esp-open-sdk/sdk/lib/libnet80211.a(wl_cnx.o)
 .xtensa.info   0x0000000000000000        0x0 /opt/Espressif/esp-open-sdk/sdk/lib/libnet80211.a(ieee80211_action.o)
 .xtensa.info   0x0000000000000000        0x0 /opt/Espressif/esp-open-sdk/sdk/lib/libnet80211.a(ieee80211_action_vendor.o)
 .xtensa.info   0x0000000000000000        0x0 /opt/Espressif/esp-open-sdk/sdk/lib/libnet80211.a(ieee80211_crypto_ccmp.o)
 .xtensa.info   0x0000000000000000        0x0 /opt/Espressif/esp-open-sdk/sdk/lib/libnet80211.a(ieee80211_ie_vendor.o)
 .xtensa.info   0x0000000000000000        0x0 /opt/Espressif/esp-open-sdk/sdk/lib/liblwip.a(dhcp.o)
 .xtensa.info   0x0000000000000000        0x0 /opt/Espressif/esp-open-sdk/sdk/lib/liblwip.a(dhcpserver.o)
 .xtensa.info   0x0000000000000000        0x0 /opt/Espressif/esp-open-sdk/sdk/lib/liblwip.a(dns.o)
 .xtensa.info   0x0000000000000000        0x0 /opt/Espressif/esp-open-sdk/sdk/lib/liblwip.a(espconn_tcp.o)
 .xtensa.info   0x0000000000000000        0x0 /opt/Espressif/esp-open-sdk/sdk/lib/liblwip.a(etharp.o)
 .xtensa.info   0x0000000000000000        0x0 /opt/Espressif/esp-open-sdk/sdk/lib/liblwip.a(init.o)
 .xtensa.info   0x0000000000000000        0x0 /opt/Espressif/esp-open-sdk/sdk/lib/liblwip.a(ip_addr.o)
 .xtensa.info   0x0000000000000000        0x0 /opt/Espressif/esp-open-sdk/sdk/lib/liblwip.a(ip.o)
 .xtensa.info   0x0000000000000000        0x0 /opt/Espressif/esp-open-sdk/sdk/lib/liblwip.a(memp.o)
 .xtensa.info   0x0000000000000000        0x0 /opt/Espressif/esp-open-sdk/sdk/lib/liblwip.a(netif.o)
 .xtensa.info   0x0000000000000000        0x0 /opt/Espressif/esp-open-sdk/sdk/lib/liblwip.a(pbuf.o)
 .xtensa.info   0x0000000000000000        0x0 /opt/Espressif/esp-open-sdk/sdk/lib/liblwip.a(raw.o)
 .xtensa.info   0x0000000000000000        0x0 /opt/Espressif/esp-open-sdk/sdk/lib/liblwip.a(sntp.o)
 .xtensa.info   0x0000000000000000        0x0 /opt/Espressif/esp-open-sdk/sdk/lib/liblwip.a(tcp_in.o)
 .xtensa.info   0x0000000000000000        0x0 /opt/Espressif/esp-open-sdk/sdk/lib/liblwip.a(tcp.o)
 .xtensa.info   0x0000000000000000        0x0 /opt/Espressif/esp-open-sdk/sdk/lib/liblwip.a(tcp_out.o)
 .xtensa.info   0x0000000000000000        0x0 /opt/Espressif/esp-open-sdk/sdk/lib/liblwip.a(timers.o)
 .xtensa.info   0x0000000000000000        0x0 /opt/Espressif/esp-open-sdk/sdk/lib/liblwip.a(udp.o)
 .xtensa.info   0x0000000000000000        0x0 /opt/Espressif/esp-open-sdk/sdk/lib/liblwip.a(espconn.o)
 .xtensa.info   0x0000000000000000        0x0 /opt/Espressif/esp-open-sdk/sdk/lib/liblwip.a(espconn_udp.o)
 .xtensa.info   0x0000000000000000        0x0 /opt/Espressif/esp-open-sdk/sdk/lib/liblwip.a(icmp.o)
 .xtensa.info   0x0000000000000000        0x0 /opt/Espressif/esp-open-sdk/sdk/lib/liblwip.a(igmp.o)
 .xtensa.info   0x0000000000000000        0x0 /opt/Espressif/esp-open-sdk/sdk/lib/liblwip.a(inet_chksum.o)
 .xtensa.info   0x0000000000000000        0x0 /opt/Espressif/esp-open-sdk/sdk/lib/liblwip.a(mdns.o)
 .xtensa.info   0x0000000000000000        0x0 /opt/Espressif/esp-open-sdk/sdk/lib/libwpa.a(ap_config.o)
 .xtensa.info   0x0000000000000000        0x0 /opt/Espressif/esp-open-sdk/sdk/lib/libwpa.a(common.o)
 .xtensa.info   0x0000000000000000        0x0 /opt/Espressif/esp-open-sdk/sdk/lib/libwpa.a(os_xtensa.o)
 .xtensa.info   0x0000000000000000        0x0 /opt/Espressif/esp-open-sdk/sdk/lib/libwpa.a(wpa_auth.o)
 .xtensa.info   0x0000000000000000        0x0 /opt/Espressif/esp-open-sdk/sdk/lib/libwpa.a(wpa_auth_ie.o)
 .xtensa.info   0x0000000000000000        0x0 /opt/Espressif/esp-open-sdk/sdk/lib/libwpa.a(wpa.o)
 .xtensa.info   0x0000000000000000        0x0 /opt/Espressif/esp-open-sdk/sdk/lib/libwpa.a(wpa_common.o)
 .xtensa.info   0x0000000000000000        0x0 /opt/Espressif/esp-open-sdk/sdk/lib/libwpa.a(wpa_debug.o)
 .xtensa.info   0x0000000000000000        0x0 /opt/Espressif/esp-open-sdk/sdk/lib/libwpa.a(wpa_ie.o)
 .xtensa.info   0x0000000000000000        0x0 /opt/Espressif/esp-open-sdk/sdk/lib/libwpa.a(wpa_main.o)
 .xtensa.info   0x0000000000000000        0x0 /opt/Espressif/esp-open-sdk/sdk/lib/libwpa.a(wpas_glue.o)
 .xtensa.info   0x0000000000000000        0x0 /opt/Espressif/esp-open-sdk/sdk/lib/libwpa.a(aes-wrap.o)
 .xtensa.info   0x0000000000000000        0x0 /opt/Espressif/esp-open-sdk/sdk/lib/libwpa.a(aes-internal-enc.o)
 .xtensa.info   0x0000000000000000        0x0 /opt/Espressif/esp-open-sdk/xtensa-lx106-elf/lib/gcc/xtensa-lx106-elf/4.8.2/../../../../xtensa-lx106-elf/lib/libm.a(lib_a-s_floor.o)
 .xtensa.info   0x0000000000000000        0x0 /opt/Espressif/esp-open-sdk/xtensa-lx106-elf/lib/gcc/xtensa-lx106-elf/4.8.2/../../../../xtensa-lx106-elf/lib/libm.a(lib_a-s_frexp.o)
 .xtensa.info   0x0000000000000000        0x0 /opt/Espressif/esp-open-sdk/xtensa-lx106-elf/lib/gcc/xtensa-lx106-elf/4.8.2/../../../../xtensa-lx106-elf/lib/libm.a(lib_a-s_modf.o)
 .xtensa.info   0x0000000000000000        0x0 /opt/Espressif/esp-open-sdk/xtensa-lx106-elf/lib/gcc/xtensa-lx106-elf/4.8.2/libgcc.a(_ashrdi3.o)
 .xtensa.info   0x0000000000000000        0x0 /opt/Espressif/esp-open-sdk/xtensa-lx106-elf/lib/gcc/xtensa-lx106-elf/4.8.2/libgcc.a(_addsubsf3.o)
 .xtensa.info   0x0000000000000000        0x0 /opt/Espressif/esp-open-sdk/xtensa-lx106-elf/lib/gcc/xtensa-lx106-elf/4.8.2/libgcc.a(_mulsf3.o)
 .xtensa.info   0x0000000000000000        0x0 /opt/Espressif/esp-open-sdk/xtensa-lx106-elf/lib/gcc/xtensa-lx106-elf/4.8.2/libgcc.a(_divsf3.o)
 .xtensa.info   0x0000000000000000        0x0 /opt/Espressif/esp-open-sdk/xtensa-lx106-elf/lib/gcc/xtensa-lx106-elf/4.8.2/libgcc.a(_fixsfsi.o)
 .xtensa.info   0x0000000000000000        0x0 /opt/Espressif/esp-open-sdk/xtensa-lx106-elf/lib/gcc/xtensa-lx106-elf/4.8.2/libgcc.a(_fixunssfsi.o)
 .xtensa.info   0x0000000000000000        0x0 /opt/Espressif/esp-open-sdk/xtensa-lx106-elf/lib/gcc/xtensa-lx106-elf/4.8.2/libgcc.a(_floatsisf.o)
 .xtensa.info   0x0000000000000000        0x0 /opt/Espressif/esp-open-sdk/xtensa-lx106-elf/lib/gcc/xtensa-lx106-elf/4.8.2/libgcc.a(_popcountsi2.o)
 .xtensa.info   0x0000000000000000        0x0 /opt/Espressif/esp-open-sdk/xtensa-lx106-elf/lib/gcc/xtensa-lx106-elf/4.8.2/libgcc.a(_divdi3.o)
 .xtensa.info   0x0000000000000000        0x0 /opt/Espressif/esp-open-sdk/xtensa-lx106-elf/lib/gcc/xtensa-lx106-elf/4.8.2/libgcc.a(_umoddi3.o)
 .xtensa.info   0x0000000000000000        0x0 /opt/Espressif/esp-open-sdk/xtensa-lx106-elf/lib/gcc/xtensa-lx106-elf/4.8.2/libgcc.a(_popcount_tab.o)
 .xtensa.info   0x0000000000000000        0x0 /opt/Espressif/esp-open-sdk/sdk/lib/libnet80211.a(ieee80211_crypto_tkip.o)
 .xtensa.info   0x0000000000000000        0x0 /opt/Espressif/esp-open-sdk/sdk/lib/libnet80211.a(ieee80211_crypto_wep.o)

.comment        0x0000000000000000     0x1a79
 .comment       0x0000000000000000       0x55 /opt/Espressif/esp-open-sdk/sdk/lib/libmain.a(app_main.o)
                                         0x56 (size before relaxing)
 .comment       0x0000000000000055       0x56 /opt/Espressif/esp-open-sdk/sdk/lib/libmain.a(ets_timer.o)
                                         0x57 (size before relaxing)
 .comment       0x00000000000000ab       0x58 /opt/Espressif/esp-open-sdk/sdk/lib/libmain.a(mem_manager.o)
                                         0x59 (size before relaxing)
 .comment       0x0000000000000103       0x56 /opt/Espressif/esp-open-sdk/sdk/lib/libmain.a(spi_flash.o)
                                         0x57 (size before relaxing)
 .comment       0x0000000000000159       0x5b /opt/Espressif/esp-open-sdk/sdk/lib/libmain.a(user_interface.o)
                                         0x5c (size before relaxing)
 .comment       0x00000000000001b4       0x21 /opt/Espressif/esp-open-sdk/sdk/lib/libmain.a(empty_user_rf_pre_init.o)
                                         0x22 (size before relaxing)
 .comment       0x00000000000001d5       0x56 /opt/Espressif/esp-open-sdk/sdk/lib/libmain.a(eagle_lib.o)
                                         0x57 (size before relaxing)
 .comment       0x000000000000022b       0x5a /opt/Espressif/esp-open-sdk/sdk/lib/libmain.a(eagle_lwip_if.o)
                                         0x5b (size before relaxing)
 .comment       0x0000000000000000       0x22 build/app_app.a(user_main.o)
 .comment       0x0000000000000000       0x22 build/app_app.a(debug.o)
 .comment       0x0000000000000000       0x22 build/app_app.a(pr.o)
 .comment       0x0000000000000000       0x22 build/app_app.a(printf.o)
 .comment       0x0000000000000000       0x22 build/app_app.a(time.o)
 .comment       0x0000000000000000       0x22 build/app_app.a(timer_hal.o)
 .comment       0x0000000000000000       0x22 build/app_app.a(hspi.o)
 .comment       0x0000000000000000       0x22 build/app_app.a(uart.o)
 .comment       0x0000000000000000       0x22 build/app_app.a(util.o)
 .comment       0x0000000000000000       0x22 build/app_app.a(cal_dex.o)
 .comment       0x0000000000000000       0x22 build/app_app.a(ili9341.o)
 .comment       0x0000000000000000       0x22 build/app_app.a(network.o)
 .comment       0x0000000000000000       0x22 build/app_app.a(wire.o)
 .comment       0x0000000000000000       0x22 build/app_app.a(timer.o)
 .comment       0x0000000000000000       0x22 build/app_app.a(queue.o)
 .comment       0x0000000000000000       0x22 build/app_app.a(ili9341_adafruit.o)
 .comment       0x0000000000000000       0x22 build/app_app.a(font.o)
 .comment       0x0000000000000000       0x22 build/app_app.a(cordic.o)
 .comment       0x0000000000000000       0x22 /opt/Espressif/esp-open-sdk/xtensa-lx106-elf/lib/gcc/xtensa-lx106-elf/4.8.2/libgcc.a(_muldi3.o)
 .comment       0x0000000000000285       0x41 /opt/Espressif/esp-open-sdk/sdk/lib/libphy.a(phy.o)
 .comment       0x00000000000002c6       0x4d /opt/Espressif/esp-open-sdk/sdk/lib/libphy.a(phy_chip_v6_ana.o)
 .comment       0x0000000000000313       0x49 /opt/Espressif/esp-open-sdk/sdk/lib/libphy.a(phy_chip_v6.o)
 .comment       0x000000000000035c       0x4d /opt/Espressif/esp-open-sdk/sdk/lib/libphy.a(phy_chip_v6_cal.o)
 .comment       0x00000000000003a9       0x50 /opt/Espressif/esp-open-sdk/sdk/lib/libphy.a(phy_chip_v6_unused.o)
 .comment       0x00000000000003f9       0x47 /opt/Espressif/esp-open-sdk/sdk/lib/libphy.a(phy_sleep.o)
 .comment       0x0000000000000440       0x56 /opt/Espressif/esp-open-sdk/sdk/lib/libpp.a(if_hwctrl.o)
                                         0x57 (size before relaxing)
 .comment       0x0000000000000496       0x51 /opt/Espressif/esp-open-sdk/sdk/lib/libpp.a(lmac.o)
                                         0x52 (size before relaxing)
 .comment       0x00000000000004e7       0x4f /opt/Espressif/esp-open-sdk/sdk/lib/libpp.a(pm.o)
                                         0x50 (size before relaxing)
 .comment       0x0000000000000536       0x61 /opt/Espressif/esp-open-sdk/sdk/lib/libpp.a(pm_for_bcn_only_mode.o)
                                         0x62 (size before relaxing)
 .comment       0x0000000000000597       0x4f /opt/Espressif/esp-open-sdk/sdk/lib/libpp.a(pp.o)
                                         0x50 (size before relaxing)
 .comment       0x00000000000005e6       0x59 /opt/Espressif/esp-open-sdk/sdk/lib/libpp.a(rate_control.o)
                                         0x5a (size before relaxing)
 .comment       0x000000000000063f       0x50 /opt/Espressif/esp-open-sdk/sdk/lib/libpp.a(trc.o)
                                         0x51 (size before relaxing)
 .comment       0x000000000000068f       0x51 /opt/Espressif/esp-open-sdk/sdk/lib/libpp.a(wdev.o)
                                         0x52 (size before relaxing)
 .comment       0x00000000000006e0       0x54 /opt/Espressif/esp-open-sdk/sdk/lib/libpp.a(esf_buf.o)
                                         0x55 (size before relaxing)
 .comment       0x0000000000000734       0x56 /opt/Espressif/esp-open-sdk/sdk/lib/libnet80211.a(ieee80211.o)
                                         0x57 (size before relaxing)
 .comment       0x000000000000078a       0x5d /opt/Espressif/esp-open-sdk/sdk/lib/libnet80211.a(ieee80211_crypto.o)
                                         0x5e (size before relaxing)
 .comment       0x00000000000007e7       0x5a /opt/Espressif/esp-open-sdk/sdk/lib/libnet80211.a(ieee80211_ets.o)
                                         0x5b (size before relaxing)
 .comment       0x0000000000000841       0x5d /opt/Espressif/esp-open-sdk/sdk/lib/libnet80211.a(ieee80211_hostap.o)
                                         0x5e (size before relaxing)
 .comment       0x000000000000089e       0x59 /opt/Espressif/esp-open-sdk/sdk/lib/libnet80211.a(ieee80211_ht.o)
                                         0x5a (size before relaxing)
 .comment       0x00000000000008f7       0x5c /opt/Espressif/esp-open-sdk/sdk/lib/libnet80211.a(ieee80211_input.o)
                                         0x5d (size before relaxing)
 .comment       0x0000000000000953       0x5d /opt/Espressif/esp-open-sdk/sdk/lib/libnet80211.a(ieee80211_output.o)
                                         0x5e (size before relaxing)
 .comment       0x00000000000009b0       0x5a /opt/Espressif/esp-open-sdk/sdk/lib/libnet80211.a(ieee80211_phy.o)
                                         0x5b (size before relaxing)
 .comment       0x0000000000000a0a       0x5c /opt/Espressif/esp-open-sdk/sdk/lib/libnet80211.a(ieee80211_power.o)
                                         0x5d (size before relaxing)
 .comment       0x0000000000000a66       0x5c /opt/Espressif/esp-open-sdk/sdk/lib/libnet80211.a(ieee80211_proto.o)
                                         0x5d (size before relaxing)
 .comment       0x0000000000000ac2       0x5b /opt/Espressif/esp-open-sdk/sdk/lib/libnet80211.a(ieee80211_scan.o)
                                         0x5c (size before relaxing)
 .comment       0x0000000000000b1d       0x5a /opt/Espressif/esp-open-sdk/sdk/lib/libnet80211.a(ieee80211_sta.o)
                                         0x5b (size before relaxing)
 .comment       0x0000000000000b77       0x53 /opt/Espressif/esp-open-sdk/sdk/lib/libnet80211.a(wl_chm.o)
                                         0x54 (size before relaxing)
 .comment       0x0000000000000bca       0x53 /opt/Espressif/esp-open-sdk/sdk/lib/libnet80211.a(wl_cnx.o)
                                         0x54 (size before relaxing)
 .comment       0x0000000000000c1d       0x5d /opt/Espressif/esp-open-sdk/sdk/lib/libnet80211.a(ieee80211_action.o)
                                         0x5e (size before relaxing)
 .comment       0x0000000000000c7a       0x64 /opt/Espressif/esp-open-sdk/sdk/lib/libnet80211.a(ieee80211_action_vendor.o)
                                         0x65 (size before relaxing)
 .comment       0x0000000000000cde       0x62 /opt/Espressif/esp-open-sdk/sdk/lib/libnet80211.a(ieee80211_crypto_ccmp.o)
                                         0x63 (size before relaxing)
 .comment       0x0000000000000d40       0x60 /opt/Espressif/esp-open-sdk/sdk/lib/libnet80211.a(ieee80211_ie_vendor.o)
                                         0x61 (size before relaxing)
 .comment       0x0000000000000da0       0x51 /opt/Espressif/esp-open-sdk/sdk/lib/liblwip.a(dhcp.o)
                                         0x52 (size before relaxing)
 .comment       0x0000000000000df1       0x57 /opt/Espressif/esp-open-sdk/sdk/lib/liblwip.a(dhcpserver.o)
                                         0x58 (size before relaxing)
 .comment       0x0000000000000e48       0x50 /opt/Espressif/esp-open-sdk/sdk/lib/liblwip.a(dns.o)
                                         0x51 (size before relaxing)
 .comment       0x0000000000000e98       0x58 /opt/Espressif/esp-open-sdk/sdk/lib/liblwip.a(espconn_tcp.o)
                                         0x59 (size before relaxing)
 .comment       0x0000000000000ef0       0x53 /opt/Espressif/esp-open-sdk/sdk/lib/liblwip.a(etharp.o)
                                         0x54 (size before relaxing)
 .comment       0x0000000000000f43       0x51 /opt/Espressif/esp-open-sdk/sdk/lib/liblwip.a(init.o)
                                         0x52 (size before relaxing)
 .comment       0x0000000000000f94       0x54 /opt/Espressif/esp-open-sdk/sdk/lib/liblwip.a(ip_addr.o)
                                         0x55 (size before relaxing)
 .comment       0x0000000000000fe8       0x4f /opt/Espressif/esp-open-sdk/sdk/lib/liblwip.a(ip.o)
                                         0x50 (size before relaxing)
 .comment       0x0000000000001037       0x51 /opt/Espressif/esp-open-sdk/sdk/lib/liblwip.a(memp.o)
                                         0x52 (size before relaxing)
 .comment       0x0000000000001088       0x52 /opt/Espressif/esp-open-sdk/sdk/lib/liblwip.a(netif.o)
                                         0x53 (size before relaxing)
 .comment       0x00000000000010da       0x51 /opt/Espressif/esp-open-sdk/sdk/lib/liblwip.a(pbuf.o)
                                         0x52 (size before relaxing)
 .comment       0x000000000000112b       0x50 /opt/Espressif/esp-open-sdk/sdk/lib/liblwip.a(raw.o)
                                         0x51 (size before relaxing)
 .comment       0x000000000000117b       0x51 /opt/Espressif/esp-open-sdk/sdk/lib/liblwip.a(sntp.o)
                                         0x52 (size before relaxing)
 .comment       0x00000000000011cc       0x53 /opt/Espressif/esp-open-sdk/sdk/lib/liblwip.a(tcp_in.o)
                                         0x54 (size before relaxing)
 .comment       0x000000000000121f       0x50 /opt/Espressif/esp-open-sdk/sdk/lib/liblwip.a(tcp.o)
                                         0x51 (size before relaxing)
 .comment       0x000000000000126f       0x54 /opt/Espressif/esp-open-sdk/sdk/lib/liblwip.a(tcp_out.o)
                                         0x55 (size before relaxing)
 .comment       0x00000000000012c3       0x53 /opt/Espressif/esp-open-sdk/sdk/lib/liblwip.a(timers.o)
                                         0x54 (size before relaxing)
 .comment       0x0000000000001316       0x50 /opt/Espressif/esp-open-sdk/sdk/lib/liblwip.a(udp.o)
                                         0x51 (size before relaxing)
 .comment       0x0000000000001366       0x54 /opt/Espressif/esp-open-sdk/sdk/lib/liblwip.a(espconn.o)
                                         0x55 (size before relaxing)
 .comment       0x00000000000013ba       0x58 /opt/Espressif/esp-open-sdk/sdk/lib/liblwip.a(espconn_udp.o)
                                         0x59 (size before relaxing)
 .comment       0x0000000000001412       0x51 /opt/Espressif/esp-open-sdk/sdk/lib/liblwip.a(icmp.o)
                                         0x52 (size before relaxing)
 .comment       0x0000000000001463       0x51 /opt/Espressif/esp-open-sdk/sdk/lib/liblwip.a(igmp.o)
                                         0x52 (size before relaxing)
 .comment       0x00000000000014b4       0x58 /opt/Espressif/esp-open-sdk/sdk/lib/liblwip.a(inet_chksum.o)
                                         0x59 (size before relaxing)
 .comment       0x000000000000150c       0x51 /opt/Espressif/esp-open-sdk/sdk/lib/liblwip.a(mdns.o)
                                         0x52 (size before relaxing)
 .comment       0x000000000000155d       0x56 /opt/Espressif/esp-open-sdk/sdk/lib/libwpa.a(ap_config.o)
                                         0x57 (size before relaxing)
 .comment       0x00000000000015b3       0x53 /opt/Espressif/esp-open-sdk/sdk/lib/libwpa.a(common.o)
                                         0x54 (size before relaxing)
 .comment       0x0000000000001606       0x56 /opt/Espressif/esp-open-sdk/sdk/lib/libwpa.a(os_xtensa.o)
                                         0x57 (size before relaxing)
 .comment       0x000000000000165c       0x55 /opt/Espressif/esp-open-sdk/sdk/lib/libwpa.a(wpa_auth.o)
                                         0x56 (size before relaxing)
 .comment       0x00000000000016b1       0x58 /opt/Espressif/esp-open-sdk/sdk/lib/libwpa.a(wpa_auth_ie.o)
                                         0x59 (size before relaxing)
 .comment       0x0000000000001709       0x50 /opt/Espressif/esp-open-sdk/sdk/lib/libwpa.a(wpa.o)
                                         0x51 (size before relaxing)
 .comment       0x0000000000001759       0x57 /opt/Espressif/esp-open-sdk/sdk/lib/libwpa.a(wpa_common.o)
                                         0x58 (size before relaxing)
 .comment       0x00000000000017b0       0x56 /opt/Espressif/esp-open-sdk/sdk/lib/libwpa.a(wpa_debug.o)
                                         0x57 (size before relaxing)
 .comment       0x0000000000001806       0x53 /opt/Espressif/esp-open-sdk/sdk/lib/libwpa.a(wpa_ie.o)
                                         0x54 (size before relaxing)
 .comment       0x0000000000001859       0x55 /opt/Espressif/esp-open-sdk/sdk/lib/libwpa.a(wpa_main.o)
                                         0x56 (size before relaxing)
 .comment       0x00000000000018ae       0x56 /opt/Espressif/esp-open-sdk/sdk/lib/libwpa.a(wpas_glue.o)
                                         0x57 (size before relaxing)
 .comment       0x0000000000001904       0x55 /opt/Espressif/esp-open-sdk/sdk/lib/libwpa.a(aes-wrap.o)
                                         0x56 (size before relaxing)
 .comment       0x0000000000001959       0x5d /opt/Espressif/esp-open-sdk/sdk/lib/libwpa.a(aes-internal-enc.o)
                                         0x5e (size before relaxing)
 .comment       0x0000000000000000       0x22 /opt/Espressif/esp-open-sdk/xtensa-lx106-elf/lib/gcc/xtensa-lx106-elf/4.8.2/../../../../xtensa-lx106-elf/lib/libm.a(lib_a-s_floor.o)
 .comment       0x0000000000000000       0x22 /opt/Espressif/esp-open-sdk/xtensa-lx106-elf/lib/gcc/xtensa-lx106-elf/4.8.2/../../../../xtensa-lx106-elf/lib/libm.a(lib_a-s_frexp.o)
 .comment       0x0000000000000000       0x22 /opt/Espressif/esp-open-sdk/xtensa-lx106-elf/lib/gcc/xtensa-lx106-elf/4.8.2/../../../../xtensa-lx106-elf/lib/libm.a(lib_a-s_modf.o)
 .comment       0x0000000000000000       0x22 /opt/Espressif/esp-open-sdk/xtensa-lx106-elf/lib/gcc/xtensa-lx106-elf/4.8.2/libgcc.a(_popcountsi2.o)
 .comment       0x0000000000000000       0x22 /opt/Espressif/esp-open-sdk/xtensa-lx106-elf/lib/gcc/xtensa-lx106-elf/4.8.2/libgcc.a(_divdi3.o)
 .comment       0x0000000000000000       0x22 /opt/Espressif/esp-open-sdk/xtensa-lx106-elf/lib/gcc/xtensa-lx106-elf/4.8.2/libgcc.a(_umoddi3.o)
 .comment       0x0000000000000000       0x22 /opt/Espressif/esp-open-sdk/xtensa-lx106-elf/lib/gcc/xtensa-lx106-elf/4.8.2/libgcc.a(_popcount_tab.o)
 .comment       0x00000000000019b6       0x62 /opt/Espressif/esp-open-sdk/sdk/lib/libnet80211.a(ieee80211_crypto_tkip.o)
                                         0x63 (size before relaxing)
 .comment       0x0000000000001a18       0x61 /opt/Espressif/esp-open-sdk/sdk/lib/libnet80211.a(ieee80211_crypto_wep.o)
                                         0x62 (size before relaxing)

.debug_frame    0x0000000000000000     0x1ae0
 .debug_frame   0x0000000000000000      0x138 build/app_app.a(user_main.o)
 .debug_frame   0x0000000000000138       0x34 build/app_app.a(debug.o)
 .debug_frame   0x000000000000016c       0x38 build/app_app.a(pr.o)
 .debug_frame   0x00000000000001a4       0xd8 build/app_app.a(printf.o)
 .debug_frame   0x000000000000027c      0x2d8 build/app_app.a(time.o)
 .debug_frame   0x0000000000000554      0x110 build/app_app.a(timer_hal.o)
 .debug_frame   0x0000000000000664      0x118 build/app_app.a(hspi.o)
 .debug_frame   0x000000000000077c      0x2b0 build/app_app.a(uart.o)
 .debug_frame   0x0000000000000a2c      0x25c build/app_app.a(util.o)
 .debug_frame   0x0000000000000c88       0xd0 build/app_app.a(cal_dex.o)
 .debug_frame   0x0000000000000d58      0x528 build/app_app.a(ili9341.o)
 .debug_frame   0x0000000000001280       0x64 build/app_app.a(network.o)
 .debug_frame   0x00000000000012e4       0x60 build/app_app.a(wire.o)
 .debug_frame   0x0000000000001344      0x10c build/app_app.a(timer.o)
 .debug_frame   0x0000000000001450       0xec build/app_app.a(queue.o)
 .debug_frame   0x000000000000153c      0x224 build/app_app.a(ili9341_adafruit.o)
 .debug_frame   0x0000000000001760       0x60 build/app_app.a(font.o)
 .debug_frame   0x00000000000017c0      0x1ac build/app_app.a(cordic.o)
 .debug_frame   0x000000000000196c       0x3c /opt/Espressif/esp-open-sdk/xtensa-lx106-elf/lib/gcc/xtensa-lx106-elf/4.8.2/libgcc.a(_muldi3.o)
 .debug_frame   0x00000000000019a8       0x38 /opt/Espressif/esp-open-sdk/xtensa-lx106-elf/lib/gcc/xtensa-lx106-elf/4.8.2/../../../../xtensa-lx106-elf/lib/libm.a(lib_a-s_floor.o)
 .debug_frame   0x00000000000019e0       0x3c /opt/Espressif/esp-open-sdk/xtensa-lx106-elf/lib/gcc/xtensa-lx106-elf/4.8.2/../../../../xtensa-lx106-elf/lib/libm.a(lib_a-s_frexp.o)
 .debug_frame   0x0000000000001a1c       0x30 /opt/Espressif/esp-open-sdk/xtensa-lx106-elf/lib/gcc/xtensa-lx106-elf/4.8.2/../../../../xtensa-lx106-elf/lib/libm.a(lib_a-s_modf.o)
 .debug_frame   0x0000000000001a4c       0x20 /opt/Espressif/esp-open-sdk/xtensa-lx106-elf/lib/gcc/xtensa-lx106-elf/4.8.2/libgcc.a(_popcountsi2.o)
 .debug_frame   0x0000000000001a6c       0x38 /opt/Espressif/esp-open-sdk/xtensa-lx106-elf/lib/gcc/xtensa-lx106-elf/4.8.2/libgcc.a(_divdi3.o)
 .debug_frame   0x0000000000001aa4       0x3c /opt/Espressif/esp-open-sdk/xtensa-lx106-elf/lib/gcc/xtensa-lx106-elf/4.8.2/libgcc.a(_umoddi3.o)

.debug_info     0x0000000000000000     0xf075
 .debug_info    0x0000000000000000     0x164b build/app_app.a(user_main.o)
 .debug_info    0x000000000000164b      0x26d build/app_app.a(debug.o)
 .debug_info    0x00000000000018b8      0x328 build/app_app.a(pr.o)
 .debug_info    0x0000000000001be0     0x10a3 build/app_app.a(printf.o)
 .debug_info    0x0000000000002c83      0xf10 build/app_app.a(time.o)
 .debug_info    0x0000000000003b93      0x677 build/app_app.a(timer_hal.o)
 .debug_info    0x000000000000420a      0x79c build/app_app.a(hspi.o)
 .debug_info    0x00000000000049a6     0x121a build/app_app.a(uart.o)
 .debug_info    0x0000000000005bc0      0x9bb build/app_app.a(util.o)
 .debug_info    0x000000000000657b      0x7e2 build/app_app.a(cal_dex.o)
 .debug_info    0x0000000000006d5d     0x2184 build/app_app.a(ili9341.o)
 .debug_info    0x0000000000008ee1      0xb76 build/app_app.a(network.o)
 .debug_info    0x0000000000009a57      0x5df build/app_app.a(wire.o)
 .debug_info    0x000000000000a036      0x52a build/app_app.a(timer.o)
 .debug_info    0x000000000000a560      0x3a8 build/app_app.a(queue.o)
 .debug_info    0x000000000000a908     0x1324 build/app_app.a(ili9341_adafruit.o)
 .debug_info    0x000000000000bc2c      0x651 build/app_app.a(font.o)
 .debug_info    0x000000000000c27d      0x62f build/app_app.a(cordic.o)
 .debug_info    0x000000000000c8ac       0xf3 /opt/Espressif/esp-open-sdk/xtensa-lx106-elf/lib/gcc/xtensa-lx106-elf/4.8.2/libgcc.a(_divsi3.o)
 .debug_info    0x000000000000c99f       0xf3 /opt/Espressif/esp-open-sdk/xtensa-lx106-elf/lib/gcc/xtensa-lx106-elf/4.8.2/libgcc.a(_modsi3.o)
 .debug_info    0x000000000000ca92       0xf3 /opt/Espressif/esp-open-sdk/xtensa-lx106-elf/lib/gcc/xtensa-lx106-elf/4.8.2/libgcc.a(_udivsi3.o)
 .debug_info    0x000000000000cb85       0xf3 /opt/Espressif/esp-open-sdk/xtensa-lx106-elf/lib/gcc/xtensa-lx106-elf/4.8.2/libgcc.a(_umodsi3.o)
 .debug_info    0x000000000000cc78       0xf4 /opt/Espressif/esp-open-sdk/xtensa-lx106-elf/lib/gcc/xtensa-lx106-elf/4.8.2/libgcc.a(_addsubdf3.o)
 .debug_info    0x000000000000cd6c       0xf4 /opt/Espressif/esp-open-sdk/xtensa-lx106-elf/lib/gcc/xtensa-lx106-elf/4.8.2/libgcc.a(_muldf3.o)
 .debug_info    0x000000000000ce60       0xf4 /opt/Espressif/esp-open-sdk/xtensa-lx106-elf/lib/gcc/xtensa-lx106-elf/4.8.2/libgcc.a(_divdf3.o)
 .debug_info    0x000000000000cf54       0xf4 /opt/Espressif/esp-open-sdk/xtensa-lx106-elf/lib/gcc/xtensa-lx106-elf/4.8.2/libgcc.a(_cmpdf2.o)
 .debug_info    0x000000000000d048       0xf4 /opt/Espressif/esp-open-sdk/xtensa-lx106-elf/lib/gcc/xtensa-lx106-elf/4.8.2/libgcc.a(_fixdfsi.o)
 .debug_info    0x000000000000d13c       0xf4 /opt/Espressif/esp-open-sdk/xtensa-lx106-elf/lib/gcc/xtensa-lx106-elf/4.8.2/libgcc.a(_floatsidf.o)
 .debug_info    0x000000000000d230       0xf4 /opt/Espressif/esp-open-sdk/xtensa-lx106-elf/lib/gcc/xtensa-lx106-elf/4.8.2/libgcc.a(_truncdfsf2.o)
 .debug_info    0x000000000000d324       0xf4 /opt/Espressif/esp-open-sdk/xtensa-lx106-elf/lib/gcc/xtensa-lx106-elf/4.8.2/libgcc.a(_extendsfdf2.o)
 .debug_info    0x000000000000d418      0x174 /opt/Espressif/esp-open-sdk/xtensa-lx106-elf/lib/gcc/xtensa-lx106-elf/4.8.2/libgcc.a(_muldi3.o)
 .debug_info    0x000000000000d58c       0xf3 /opt/Espressif/esp-open-sdk/xtensa-lx106-elf/lib/gcc/xtensa-lx106-elf/4.8.2/libgcc.a(_umulsidi3.o)
 .debug_info    0x000000000000d67f      0x1a9 /opt/Espressif/esp-open-sdk/xtensa-lx106-elf/lib/gcc/xtensa-lx106-elf/4.8.2/../../../../xtensa-lx106-elf/lib/libm.a(lib_a-s_floor.o)
 .debug_info    0x000000000000d828      0x1b5 /opt/Espressif/esp-open-sdk/xtensa-lx106-elf/lib/gcc/xtensa-lx106-elf/4.8.2/../../../../xtensa-lx106-elf/lib/libm.a(lib_a-s_frexp.o)
 .debug_info    0x000000000000d9dd      0x21a /opt/Espressif/esp-open-sdk/xtensa-lx106-elf/lib/gcc/xtensa-lx106-elf/4.8.2/../../../../xtensa-lx106-elf/lib/libm.a(lib_a-s_modf.o)
 .debug_info    0x000000000000dbf7       0xf3 /opt/Espressif/esp-open-sdk/xtensa-lx106-elf/lib/gcc/xtensa-lx106-elf/4.8.2/libgcc.a(_ashrdi3.o)
 .debug_info    0x000000000000dcea       0xf4 /opt/Espressif/esp-open-sdk/xtensa-lx106-elf/lib/gcc/xtensa-lx106-elf/4.8.2/libgcc.a(_addsubsf3.o)
 .debug_info    0x000000000000ddde       0xf4 /opt/Espressif/esp-open-sdk/xtensa-lx106-elf/lib/gcc/xtensa-lx106-elf/4.8.2/libgcc.a(_mulsf3.o)
 .debug_info    0x000000000000ded2       0xf4 /opt/Espressif/esp-open-sdk/xtensa-lx106-elf/lib/gcc/xtensa-lx106-elf/4.8.2/libgcc.a(_divsf3.o)
 .debug_info    0x000000000000dfc6       0xf4 /opt/Espressif/esp-open-sdk/xtensa-lx106-elf/lib/gcc/xtensa-lx106-elf/4.8.2/libgcc.a(_fixsfsi.o)
 .debug_info    0x000000000000e0ba       0xf4 /opt/Espressif/esp-open-sdk/xtensa-lx106-elf/lib/gcc/xtensa-lx106-elf/4.8.2/libgcc.a(_fixunssfsi.o)
 .debug_info    0x000000000000e1ae       0xf4 /opt/Espressif/esp-open-sdk/xtensa-lx106-elf/lib/gcc/xtensa-lx106-elf/4.8.2/libgcc.a(_floatsisf.o)
 .debug_info    0x000000000000e2a2       0xff /opt/Espressif/esp-open-sdk/xtensa-lx106-elf/lib/gcc/xtensa-lx106-elf/4.8.2/libgcc.a(_popcountsi2.o)
 .debug_info    0x000000000000e3a1      0x60c /opt/Espressif/esp-open-sdk/xtensa-lx106-elf/lib/gcc/xtensa-lx106-elf/4.8.2/libgcc.a(_divdi3.o)
 .debug_info    0x000000000000e9ad      0x61d /opt/Espressif/esp-open-sdk/xtensa-lx106-elf/lib/gcc/xtensa-lx106-elf/4.8.2/libgcc.a(_umoddi3.o)
 .debug_info    0x000000000000efca       0xab /opt/Espressif/esp-open-sdk/xtensa-lx106-elf/lib/gcc/xtensa-lx106-elf/4.8.2/libgcc.a(_popcount_tab.o)

.debug_abbrev   0x0000000000000000     0x3575
 .debug_abbrev  0x0000000000000000      0x36a build/app_app.a(user_main.o)
 .debug_abbrev  0x000000000000036a      0x155 build/app_app.a(debug.o)
 .debug_abbrev  0x00000000000004bf      0x155 build/app_app.a(pr.o)
 .debug_abbrev  0x0000000000000614      0x394 build/app_app.a(printf.o)
 .debug_abbrev  0x00000000000009a8      0x35b build/app_app.a(time.o)
 .debug_abbrev  0x0000000000000d03      0x2a8 build/app_app.a(timer_hal.o)
 .debug_abbrev  0x0000000000000fab      0x24b build/app_app.a(hspi.o)
 .debug_abbrev  0x00000000000011f6      0x3a6 build/app_app.a(uart.o)
 .debug_abbrev  0x000000000000159c      0x31a build/app_app.a(util.o)
 .debug_abbrev  0x00000000000018b6      0x260 build/app_app.a(cal_dex.o)
 .debug_abbrev  0x0000000000001b16      0x40c build/app_app.a(ili9341.o)
 .debug_abbrev  0x0000000000001f22      0x246 build/app_app.a(network.o)
 .debug_abbrev  0x0000000000002168      0x17f build/app_app.a(wire.o)
 .debug_abbrev  0x00000000000022e7      0x1ef build/app_app.a(timer.o)
 .debug_abbrev  0x00000000000024d6      0x15c build/app_app.a(queue.o)
 .debug_abbrev  0x0000000000002632      0x1c0 build/app_app.a(ili9341_adafruit.o)
 .debug_abbrev  0x00000000000027f2      0x176 build/app_app.a(font.o)
 .debug_abbrev  0x0000000000002968      0x221 build/app_app.a(cordic.o)
 .debug_abbrev  0x0000000000002b89       0x14 /opt/Espressif/esp-open-sdk/xtensa-lx106-elf/lib/gcc/xtensa-lx106-elf/4.8.2/libgcc.a(_divsi3.o)
 .debug_abbrev  0x0000000000002b9d       0x14 /opt/Espressif/esp-open-sdk/xtensa-lx106-elf/lib/gcc/xtensa-lx106-elf/4.8.2/libgcc.a(_modsi3.o)
 .debug_abbrev  0x0000000000002bb1       0x14 /opt/Espressif/esp-open-sdk/xtensa-lx106-elf/lib/gcc/xtensa-lx106-elf/4.8.2/libgcc.a(_udivsi3.o)
 .debug_abbrev  0x0000000000002bc5       0x14 /opt/Espressif/esp-open-sdk/xtensa-lx106-elf/lib/gcc/xtensa-lx106-elf/4.8.2/libgcc.a(_umodsi3.o)
 .debug_abbrev  0x0000000000002bd9       0x14 /opt/Espressif/esp-open-sdk/xtensa-lx106-elf/lib/gcc/xtensa-lx106-elf/4.8.2/libgcc.a(_addsubdf3.o)
 .debug_abbrev  0x0000000000002bed       0x14 /opt/Espressif/esp-open-sdk/xtensa-lx106-elf/lib/gcc/xtensa-lx106-elf/4.8.2/libgcc.a(_muldf3.o)
 .debug_abbrev  0x0000000000002c01       0x14 /opt/Espressif/esp-open-sdk/xtensa-lx106-elf/lib/gcc/xtensa-lx106-elf/4.8.2/libgcc.a(_divdf3.o)
 .debug_abbrev  0x0000000000002c15       0x14 /opt/Espressif/esp-open-sdk/xtensa-lx106-elf/lib/gcc/xtensa-lx106-elf/4.8.2/libgcc.a(_cmpdf2.o)
 .debug_abbrev  0x0000000000002c29       0x14 /opt/Espressif/esp-open-sdk/xtensa-lx106-elf/lib/gcc/xtensa-lx106-elf/4.8.2/libgcc.a(_fixdfsi.o)
 .debug_abbrev  0x0000000000002c3d       0x14 /opt/Espressif/esp-open-sdk/xtensa-lx106-elf/lib/gcc/xtensa-lx106-elf/4.8.2/libgcc.a(_floatsidf.o)
 .debug_abbrev  0x0000000000002c51       0x14 /opt/Espressif/esp-open-sdk/xtensa-lx106-elf/lib/gcc/xtensa-lx106-elf/4.8.2/libgcc.a(_truncdfsf2.o)
 .debug_abbrev  0x0000000000002c65       0x14 /opt/Espressif/esp-open-sdk/xtensa-lx106-elf/lib/gcc/xtensa-lx106-elf/4.8.2/libgcc.a(_extendsfdf2.o)
 .debug_abbrev  0x0000000000002c79       0xfd /opt/Espressif/esp-open-sdk/xtensa-lx106-elf/lib/gcc/xtensa-lx106-elf/4.8.2/libgcc.a(_muldi3.o)
 .debug_abbrev  0x0000000000002d76       0x14 /opt/Espressif/esp-open-sdk/xtensa-lx106-elf/lib/gcc/xtensa-lx106-elf/4.8.2/libgcc.a(_umulsidi3.o)
 .debug_abbrev  0x0000000000002d8a       0xf8 /opt/Espressif/esp-open-sdk/xtensa-lx106-elf/lib/gcc/xtensa-lx106-elf/4.8.2/../../../../xtensa-lx106-elf/lib/libm.a(lib_a-s_floor.o)
 .debug_abbrev  0x0000000000002e82      0x11b /opt/Espressif/esp-open-sdk/xtensa-lx106-elf/lib/gcc/xtensa-lx106-elf/4.8.2/../../../../xtensa-lx106-elf/lib/libm.a(lib_a-s_frexp.o)
 .debug_abbrev  0x0000000000002f9d      0x10e /opt/Espressif/esp-open-sdk/xtensa-lx106-elf/lib/gcc/xtensa-lx106-elf/4.8.2/../../../../xtensa-lx106-elf/lib/libm.a(lib_a-s_modf.o)
 .debug_abbrev  0x00000000000030ab       0x14 /opt/Espressif/esp-open-sdk/xtensa-lx106-elf/lib/gcc/xtensa-lx106-elf/4.8.2/libgcc.a(_ashrdi3.o)
 .debug_abbrev  0x00000000000030bf       0x14 /opt/Espressif/esp-open-sdk/xtensa-lx106-elf/lib/gcc/xtensa-lx106-elf/4.8.2/libgcc.a(_addsubsf3.o)
 .debug_abbrev  0x00000000000030d3       0x14 /opt/Espressif/esp-open-sdk/xtensa-lx106-elf/lib/gcc/xtensa-lx106-elf/4.8.2/libgcc.a(_mulsf3.o)
 .debug_abbrev  0x00000000000030e7       0x14 /opt/Espressif/esp-open-sdk/xtensa-lx106-elf/lib/gcc/xtensa-lx106-elf/4.8.2/libgcc.a(_divsf3.o)
 .debug_abbrev  0x00000000000030fb       0x14 /opt/Espressif/esp-open-sdk/xtensa-lx106-elf/lib/gcc/xtensa-lx106-elf/4.8.2/libgcc.a(_fixsfsi.o)
 .debug_abbrev  0x000000000000310f       0x14 /opt/Espressif/esp-open-sdk/xtensa-lx106-elf/lib/gcc/xtensa-lx106-elf/4.8.2/libgcc.a(_fixunssfsi.o)
 .debug_abbrev  0x0000000000003123       0x14 /opt/Espressif/esp-open-sdk/xtensa-lx106-elf/lib/gcc/xtensa-lx106-elf/4.8.2/libgcc.a(_floatsisf.o)
 .debug_abbrev  0x0000000000003137       0x9b /opt/Espressif/esp-open-sdk/xtensa-lx106-elf/lib/gcc/xtensa-lx106-elf/4.8.2/libgcc.a(_popcountsi2.o)
 .debug_abbrev  0x00000000000031d2      0x1a3 /opt/Espressif/esp-open-sdk/xtensa-lx106-elf/lib/gcc/xtensa-lx106-elf/4.8.2/libgcc.a(_divdi3.o)
 .debug_abbrev  0x0000000000003375      0x1a3 /opt/Espressif/esp-open-sdk/xtensa-lx106-elf/lib/gcc/xtensa-lx106-elf/4.8.2/libgcc.a(_umoddi3.o)
 .debug_abbrev  0x0000000000003518       0x5d /opt/Espressif/esp-open-sdk/xtensa-lx106-elf/lib/gcc/xtensa-lx106-elf/4.8.2/libgcc.a(_popcount_tab.o)

.debug_loc      0x0000000000000000     0xae0b
 .debug_loc     0x0000000000000000      0x19f build/app_app.a(user_main.o)
 .debug_loc     0x000000000000019f       0x5a build/app_app.a(debug.o)
 .debug_loc     0x00000000000001f9       0x86 build/app_app.a(pr.o)
 .debug_loc     0x000000000000027f     0x2362 build/app_app.a(printf.o)
 .debug_loc     0x00000000000025e1      0xc57 build/app_app.a(time.o)
 .debug_loc     0x0000000000003238       0x98 build/app_app.a(timer_hal.o)
 .debug_loc     0x00000000000032d0      0x6d9 build/app_app.a(hspi.o)
 .debug_loc     0x00000000000039a9      0xc4f build/app_app.a(uart.o)
 .debug_loc     0x00000000000045f8      0xa21 build/app_app.a(util.o)
 .debug_loc     0x0000000000005019      0x358 build/app_app.a(cal_dex.o)
 .debug_loc     0x0000000000005371     0x1bc5 build/app_app.a(ili9341.o)
 .debug_loc     0x0000000000006f36       0x2c build/app_app.a(network.o)
 .debug_loc     0x0000000000006f62      0x45a build/app_app.a(wire.o)
 .debug_loc     0x00000000000073bc      0x230 build/app_app.a(timer.o)
 .debug_loc     0x00000000000075ec      0x412 build/app_app.a(queue.o)
 .debug_loc     0x00000000000079fe      0xebf build/app_app.a(ili9341_adafruit.o)
 .debug_loc     0x00000000000088bd      0x187 build/app_app.a(font.o)
 .debug_loc     0x0000000000008a44      0x805 build/app_app.a(cordic.o)
 .debug_loc     0x0000000000009249       0x50 /opt/Espressif/esp-open-sdk/xtensa-lx106-elf/lib/gcc/xtensa-lx106-elf/4.8.2/libgcc.a(_muldi3.o)
 .debug_loc     0x0000000000009299      0x29e /opt/Espressif/esp-open-sdk/xtensa-lx106-elf/lib/gcc/xtensa-lx106-elf/4.8.2/../../../../xtensa-lx106-elf/lib/libm.a(lib_a-s_floor.o)
 .debug_loc     0x0000000000009537      0x102 /opt/Espressif/esp-open-sdk/xtensa-lx106-elf/lib/gcc/xtensa-lx106-elf/4.8.2/../../../../xtensa-lx106-elf/lib/libm.a(lib_a-s_frexp.o)
 .debug_loc     0x0000000000009639      0x18f /opt/Espressif/esp-open-sdk/xtensa-lx106-elf/lib/gcc/xtensa-lx106-elf/4.8.2/../../../../xtensa-lx106-elf/lib/libm.a(lib_a-s_modf.o)
 .debug_loc     0x00000000000097c8       0x77 /opt/Espressif/esp-open-sdk/xtensa-lx106-elf/lib/gcc/xtensa-lx106-elf/4.8.2/libgcc.a(_popcountsi2.o)
 .debug_loc     0x000000000000983f      0xb87 /opt/Espressif/esp-open-sdk/xtensa-lx106-elf/lib/gcc/xtensa-lx106-elf/4.8.2/libgcc.a(_divdi3.o)
 .debug_loc     0x000000000000a3c6      0xa45 /opt/Espressif/esp-open-sdk/xtensa-lx106-elf/lib/gcc/xtensa-lx106-elf/4.8.2/libgcc.a(_umoddi3.o)

.debug_aranges  0x0000000000000000      0xb68
 .debug_aranges
                0x0000000000000000       0x58 build/app_app.a(user_main.o)
 .debug_aranges
                0x0000000000000058       0x20 build/app_app.a(debug.o)
 .debug_aranges
                0x0000000000000078       0x20 build/app_app.a(pr.o)
 .debug_aranges
                0x0000000000000098       0x50 build/app_app.a(printf.o)
 .debug_aranges
                0x00000000000000e8       0xc0 build/app_app.a(time.o)
 .debug_aranges
                0x00000000000001a8       0x68 build/app_app.a(timer_hal.o)
 .debug_aranges
                0x0000000000000210       0x60 build/app_app.a(hspi.o)
 .debug_aranges
                0x0000000000000270      0x108 build/app_app.a(uart.o)
 .debug_aranges
                0x0000000000000378       0xc8 build/app_app.a(util.o)
 .debug_aranges
                0x0000000000000440       0x48 build/app_app.a(cal_dex.o)
 .debug_aranges
                0x0000000000000488      0x150 build/app_app.a(ili9341.o)
 .debug_aranges
                0x00000000000005d8       0x28 build/app_app.a(network.o)
 .debug_aranges
                0x0000000000000600       0x28 build/app_app.a(wire.o)
 .debug_aranges
                0x0000000000000628       0x58 build/app_app.a(timer.o)
 .debug_aranges
                0x0000000000000680       0x70 build/app_app.a(queue.o)
 .debug_aranges
                0x00000000000006f0       0x70 build/app_app.a(ili9341_adafruit.o)
 .debug_aranges
                0x0000000000000760       0x28 build/app_app.a(font.o)
 .debug_aranges
                0x0000000000000788       0x68 build/app_app.a(cordic.o)
 .debug_aranges
                0x00000000000007f0       0x20 /opt/Espressif/esp-open-sdk/xtensa-lx106-elf/lib/gcc/xtensa-lx106-elf/4.8.2/libgcc.a(_divsi3.o)
 .debug_aranges
                0x0000000000000810       0x20 /opt/Espressif/esp-open-sdk/xtensa-lx106-elf/lib/gcc/xtensa-lx106-elf/4.8.2/libgcc.a(_modsi3.o)
 .debug_aranges
                0x0000000000000830       0x20 /opt/Espressif/esp-open-sdk/xtensa-lx106-elf/lib/gcc/xtensa-lx106-elf/4.8.2/libgcc.a(_udivsi3.o)
 .debug_aranges
                0x0000000000000850       0x20 /opt/Espressif/esp-open-sdk/xtensa-lx106-elf/lib/gcc/xtensa-lx106-elf/4.8.2/libgcc.a(_umodsi3.o)
 .debug_aranges
                0x0000000000000870       0x20 /opt/Espressif/esp-open-sdk/xtensa-lx106-elf/lib/gcc/xtensa-lx106-elf/4.8.2/libgcc.a(_addsubdf3.o)
 .debug_aranges
                0x0000000000000890       0x20 /opt/Espressif/esp-open-sdk/xtensa-lx106-elf/lib/gcc/xtensa-lx106-elf/4.8.2/libgcc.a(_muldf3.o)
 .debug_aranges
                0x00000000000008b0       0x20 /opt/Espressif/esp-open-sdk/xtensa-lx106-elf/lib/gcc/xtensa-lx106-elf/4.8.2/libgcc.a(_divdf3.o)
 .debug_aranges
                0x00000000000008d0       0x20 /opt/Espressif/esp-open-sdk/xtensa-lx106-elf/lib/gcc/xtensa-lx106-elf/4.8.2/libgcc.a(_cmpdf2.o)
 .debug_aranges
                0x00000000000008f0       0x20 /opt/Espressif/esp-open-sdk/xtensa-lx106-elf/lib/gcc/xtensa-lx106-elf/4.8.2/libgcc.a(_fixdfsi.o)
 .debug_aranges
                0x0000000000000910       0x20 /opt/Espressif/esp-open-sdk/xtensa-lx106-elf/lib/gcc/xtensa-lx106-elf/4.8.2/libgcc.a(_floatsidf.o)
 .debug_aranges
                0x0000000000000930       0x20 /opt/Espressif/esp-open-sdk/xtensa-lx106-elf/lib/gcc/xtensa-lx106-elf/4.8.2/libgcc.a(_truncdfsf2.o)
 .debug_aranges
                0x0000000000000950       0x20 /opt/Espressif/esp-open-sdk/xtensa-lx106-elf/lib/gcc/xtensa-lx106-elf/4.8.2/libgcc.a(_extendsfdf2.o)
 .debug_aranges
                0x0000000000000970       0x20 /opt/Espressif/esp-open-sdk/xtensa-lx106-elf/lib/gcc/xtensa-lx106-elf/4.8.2/libgcc.a(_muldi3.o)
 .debug_aranges
                0x0000000000000990       0x20 /opt/Espressif/esp-open-sdk/xtensa-lx106-elf/lib/gcc/xtensa-lx106-elf/4.8.2/libgcc.a(_umulsidi3.o)
 .debug_aranges
                0x00000000000009b0       0x20 /opt/Espressif/esp-open-sdk/xtensa-lx106-elf/lib/gcc/xtensa-lx106-elf/4.8.2/../../../../xtensa-lx106-elf/lib/libm.a(lib_a-s_floor.o)
 .debug_aranges
                0x00000000000009d0       0x20 /opt/Espressif/esp-open-sdk/xtensa-lx106-elf/lib/gcc/xtensa-lx106-elf/4.8.2/../../../../xtensa-lx106-elf/lib/libm.a(lib_a-s_frexp.o)
 .debug_aranges
                0x00000000000009f0       0x20 /opt/Espressif/esp-open-sdk/xtensa-lx106-elf/lib/gcc/xtensa-lx106-elf/4.8.2/../../../../xtensa-lx106-elf/lib/libm.a(lib_a-s_modf.o)
 .debug_aranges
                0x0000000000000a10       0x20 /opt/Espressif/esp-open-sdk/xtensa-lx106-elf/lib/gcc/xtensa-lx106-elf/4.8.2/libgcc.a(_ashrdi3.o)
 .debug_aranges
                0x0000000000000a30       0x20 /opt/Espressif/esp-open-sdk/xtensa-lx106-elf/lib/gcc/xtensa-lx106-elf/4.8.2/libgcc.a(_addsubsf3.o)
 .debug_aranges
                0x0000000000000a50       0x20 /opt/Espressif/esp-open-sdk/xtensa-lx106-elf/lib/gcc/xtensa-lx106-elf/4.8.2/libgcc.a(_mulsf3.o)
 .debug_aranges
                0x0000000000000a70       0x20 /opt/Espressif/esp-open-sdk/xtensa-lx106-elf/lib/gcc/xtensa-lx106-elf/4.8.2/libgcc.a(_divsf3.o)
 .debug_aranges
                0x0000000000000a90       0x20 /opt/Espressif/esp-open-sdk/xtensa-lx106-elf/lib/gcc/xtensa-lx106-elf/4.8.2/libgcc.a(_fixsfsi.o)
 .debug_aranges
                0x0000000000000ab0       0x20 /opt/Espressif/esp-open-sdk/xtensa-lx106-elf/lib/gcc/xtensa-lx106-elf/4.8.2/libgcc.a(_fixunssfsi.o)
 .debug_aranges
                0x0000000000000ad0       0x20 /opt/Espressif/esp-open-sdk/xtensa-lx106-elf/lib/gcc/xtensa-lx106-elf/4.8.2/libgcc.a(_floatsisf.o)
 .debug_aranges
                0x0000000000000af0       0x20 /opt/Espressif/esp-open-sdk/xtensa-lx106-elf/lib/gcc/xtensa-lx106-elf/4.8.2/libgcc.a(_popcountsi2.o)
 .debug_aranges
                0x0000000000000b10       0x20 /opt/Espressif/esp-open-sdk/xtensa-lx106-elf/lib/gcc/xtensa-lx106-elf/4.8.2/libgcc.a(_divdi3.o)
 .debug_aranges
                0x0000000000000b30       0x20 /opt/Espressif/esp-open-sdk/xtensa-lx106-elf/lib/gcc/xtensa-lx106-elf/4.8.2/libgcc.a(_umoddi3.o)
 .debug_aranges
                0x0000000000000b50       0x18 /opt/Espressif/esp-open-sdk/xtensa-lx106-elf/lib/gcc/xtensa-lx106-elf/4.8.2/libgcc.a(_popcount_tab.o)

.debug_ranges   0x0000000000000000      0xc00
 .debug_ranges  0x0000000000000000       0x48 build/app_app.a(user_main.o)
 .debug_ranges  0x0000000000000048       0x10 build/app_app.a(debug.o)
 .debug_ranges  0x0000000000000058       0x10 build/app_app.a(pr.o)
 .debug_ranges  0x0000000000000068      0x140 build/app_app.a(printf.o)
 .debug_ranges  0x00000000000001a8      0x1b8 build/app_app.a(time.o)
 .debug_ranges  0x0000000000000360       0x70 build/app_app.a(timer_hal.o)
 .debug_ranges  0x00000000000003d0       0x68 build/app_app.a(hspi.o)
 .debug_ranges  0x0000000000000438      0x140 build/app_app.a(uart.o)
 .debug_ranges  0x0000000000000578       0xd8 build/app_app.a(util.o)
 .debug_ranges  0x0000000000000650       0x68 build/app_app.a(cal_dex.o)
 .debug_ranges  0x00000000000006b8      0x1e8 build/app_app.a(ili9341.o)
 .debug_ranges  0x00000000000008a0       0x18 build/app_app.a(network.o)
 .debug_ranges  0x00000000000008b8       0x70 build/app_app.a(wire.o)
 .debug_ranges  0x0000000000000928       0x60 build/app_app.a(timer.o)
 .debug_ranges  0x0000000000000988       0x60 build/app_app.a(queue.o)
 .debug_ranges  0x00000000000009e8       0x60 build/app_app.a(ili9341_adafruit.o)
 .debug_ranges  0x0000000000000a48       0x18 build/app_app.a(font.o)
 .debug_ranges  0x0000000000000a60       0x90 build/app_app.a(cordic.o)
 .debug_ranges  0x0000000000000af0       0x18 /opt/Espressif/esp-open-sdk/xtensa-lx106-elf/lib/gcc/xtensa-lx106-elf/4.8.2/../../../../xtensa-lx106-elf/lib/libm.a(lib_a-s_frexp.o)
 .debug_ranges  0x0000000000000b08       0x60 /opt/Espressif/esp-open-sdk/xtensa-lx106-elf/lib/gcc/xtensa-lx106-elf/4.8.2/libgcc.a(_divdi3.o)
 .debug_ranges  0x0000000000000b68       0x98 /opt/Espressif/esp-open-sdk/xtensa-lx106-elf/lib/gcc/xtensa-lx106-elf/4.8.2/libgcc.a(_umoddi3.o)

.debug_line     0x0000000000000000     0xa6b5
 .debug_line    0x0000000000000000      0x7e9 build/app_app.a(user_main.o)
 .debug_line    0x00000000000007e9      0x198 build/app_app.a(debug.o)
 .debug_line    0x0000000000000981      0x175 build/app_app.a(pr.o)
 .debug_line    0x0000000000000af6      0xdb1 build/app_app.a(printf.o)
 .debug_line    0x00000000000018a7      0x88b build/app_app.a(time.o)
 .debug_line    0x0000000000002132      0x348 build/app_app.a(timer_hal.o)
 .debug_line    0x000000000000247a      0x477 build/app_app.a(hspi.o)
 .debug_line    0x00000000000028f1      0x78c build/app_app.a(uart.o)
 .debug_line    0x000000000000307d      0x58b build/app_app.a(util.o)
 .debug_line    0x0000000000003608      0x245 build/app_app.a(cal_dex.o)
 .debug_line    0x000000000000384d     0x10a9 build/app_app.a(ili9341.o)
 .debug_line    0x00000000000048f6      0x2ac build/app_app.a(network.o)
 .debug_line    0x0000000000004ba2      0x34b build/app_app.a(wire.o)
 .debug_line    0x0000000000004eed      0x2a6 build/app_app.a(timer.o)
 .debug_line    0x0000000000005193      0x43c build/app_app.a(queue.o)
 .debug_line    0x00000000000055cf      0xc2f build/app_app.a(ili9341_adafruit.o)
 .debug_line    0x00000000000061fe      0x2ce build/app_app.a(font.o)
 .debug_line    0x00000000000064cc      0x492 build/app_app.a(cordic.o)
 .debug_line    0x000000000000695e      0x15c /opt/Espressif/esp-open-sdk/xtensa-lx106-elf/lib/gcc/xtensa-lx106-elf/4.8.2/libgcc.a(_divsi3.o)
 .debug_line    0x0000000000006aba      0x11a /opt/Espressif/esp-open-sdk/xtensa-lx106-elf/lib/gcc/xtensa-lx106-elf/4.8.2/libgcc.a(_modsi3.o)
 .debug_line    0x0000000000006bd4      0x12c /opt/Espressif/esp-open-sdk/xtensa-lx106-elf/lib/gcc/xtensa-lx106-elf/4.8.2/libgcc.a(_udivsi3.o)
 .debug_line    0x0000000000006d00       0xfc /opt/Espressif/esp-open-sdk/xtensa-lx106-elf/lib/gcc/xtensa-lx106-elf/4.8.2/libgcc.a(_umodsi3.o)
 .debug_line    0x0000000000006dfc      0x6bb /opt/Espressif/esp-open-sdk/xtensa-lx106-elf/lib/gcc/xtensa-lx106-elf/4.8.2/libgcc.a(_addsubdf3.o)
 .debug_line    0x00000000000074b7      0x62d /opt/Espressif/esp-open-sdk/xtensa-lx106-elf/lib/gcc/xtensa-lx106-elf/4.8.2/libgcc.a(_muldf3.o)
 .debug_line    0x0000000000007ae4      0x4d5 /opt/Espressif/esp-open-sdk/xtensa-lx106-elf/lib/gcc/xtensa-lx106-elf/4.8.2/libgcc.a(_divdf3.o)
 .debug_line    0x0000000000007fb9      0x391 /opt/Espressif/esp-open-sdk/xtensa-lx106-elf/lib/gcc/xtensa-lx106-elf/4.8.2/libgcc.a(_cmpdf2.o)
 .debug_line    0x000000000000834a      0x127 /opt/Espressif/esp-open-sdk/xtensa-lx106-elf/lib/gcc/xtensa-lx106-elf/4.8.2/libgcc.a(_fixdfsi.o)
 .debug_line    0x0000000000008471      0x103 /opt/Espressif/esp-open-sdk/xtensa-lx106-elf/lib/gcc/xtensa-lx106-elf/4.8.2/libgcc.a(_floatsidf.o)
 .debug_line    0x0000000000008574      0x1d5 /opt/Espressif/esp-open-sdk/xtensa-lx106-elf/lib/gcc/xtensa-lx106-elf/4.8.2/libgcc.a(_truncdfsf2.o)
 .debug_line    0x0000000000008749      0x157 /opt/Espressif/esp-open-sdk/xtensa-lx106-elf/lib/gcc/xtensa-lx106-elf/4.8.2/libgcc.a(_extendsfdf2.o)
 .debug_line    0x00000000000088a0       0xcb /opt/Espressif/esp-open-sdk/xtensa-lx106-elf/lib/gcc/xtensa-lx106-elf/4.8.2/libgcc.a(_muldi3.o)
 .debug_line    0x000000000000896b      0x138 /opt/Espressif/esp-open-sdk/xtensa-lx106-elf/lib/gcc/xtensa-lx106-elf/4.8.2/libgcc.a(_umulsidi3.o)
 .debug_line    0x0000000000008aa3      0x2bb /opt/Espressif/esp-open-sdk/xtensa-lx106-elf/lib/gcc/xtensa-lx106-elf/4.8.2/../../../../xtensa-lx106-elf/lib/libm.a(lib_a-s_floor.o)
 .debug_line    0x0000000000008d5e      0x255 /opt/Espressif/esp-open-sdk/xtensa-lx106-elf/lib/gcc/xtensa-lx106-elf/4.8.2/../../../../xtensa-lx106-elf/lib/libm.a(lib_a-s_frexp.o)
 .debug_line    0x0000000000008fb3      0x1ee /opt/Espressif/esp-open-sdk/xtensa-lx106-elf/lib/gcc/xtensa-lx106-elf/4.8.2/../../../../xtensa-lx106-elf/lib/libm.a(lib_a-s_modf.o)
 .debug_line    0x00000000000091a1       0xba /opt/Espressif/esp-open-sdk/xtensa-lx106-elf/lib/gcc/xtensa-lx106-elf/4.8.2/libgcc.a(_ashrdi3.o)
 .debug_line    0x000000000000925b      0x4bd /opt/Espressif/esp-open-sdk/xtensa-lx106-elf/lib/gcc/xtensa-lx106-elf/4.8.2/libgcc.a(_addsubsf3.o)
 .debug_line    0x0000000000009718      0x37f /opt/Espressif/esp-open-sdk/xtensa-lx106-elf/lib/gcc/xtensa-lx106-elf/4.8.2/libgcc.a(_mulsf3.o)
 .debug_line    0x0000000000009a97      0x319 /opt/Espressif/esp-open-sdk/xtensa-lx106-elf/lib/gcc/xtensa-lx106-elf/4.8.2/libgcc.a(_divsf3.o)
 .debug_line    0x0000000000009db0      0x115 /opt/Espressif/esp-open-sdk/xtensa-lx106-elf/lib/gcc/xtensa-lx106-elf/4.8.2/libgcc.a(_fixsfsi.o)
 .debug_line    0x0000000000009ec5      0x145 /opt/Espressif/esp-open-sdk/xtensa-lx106-elf/lib/gcc/xtensa-lx106-elf/4.8.2/libgcc.a(_fixunssfsi.o)
 .debug_line    0x000000000000a00a      0x121 /opt/Espressif/esp-open-sdk/xtensa-lx106-elf/lib/gcc/xtensa-lx106-elf/4.8.2/libgcc.a(_floatsisf.o)
 .debug_line    0x000000000000a12b       0xc7 /opt/Espressif/esp-open-sdk/xtensa-lx106-elf/lib/gcc/xtensa-lx106-elf/4.8.2/libgcc.a(_popcountsi2.o)
 .debug_line    0x000000000000a1f2      0x212 /opt/Espressif/esp-open-sdk/xtensa-lx106-elf/lib/gcc/xtensa-lx106-elf/4.8.2/libgcc.a(_divdi3.o)
 .debug_line    0x000000000000a404      0x235 /opt/Espressif/esp-open-sdk/xtensa-lx106-elf/lib/gcc/xtensa-lx106-elf/4.8.2/libgcc.a(_umoddi3.o)
 .debug_line    0x000000000000a639       0x7c /opt/Espressif/esp-open-sdk/xtensa-lx106-elf/lib/gcc/xtensa-lx106-elf/4.8.2/libgcc.a(_popcount_tab.o)

.debug_str      0x0000000000000000     0x20de
 .debug_str     0x0000000000000000      0x75e build/app_app.a(user_main.o)
                                        0x847 (size before relaxing)
 .debug_str     0x000000000000075e       0x7c build/app_app.a(debug.o)
                                        0x1ed (size before relaxing)
 .debug_str     0x00000000000007da       0x16 build/app_app.a(pr.o)
                                        0x21a (size before relaxing)
 .debug_str     0x00000000000007f0      0x138 build/app_app.a(printf.o)
                                        0x300 (size before relaxing)
 .debug_str     0x0000000000000928      0x1bf build/app_app.a(time.o)
                                        0x3d2 (size before relaxing)
 .debug_str     0x0000000000000ae7       0xf1 build/app_app.a(timer_hal.o)
                                        0x362 (size before relaxing)
 .debug_str     0x0000000000000bd8      0x119 build/app_app.a(hspi.o)
                                        0x2aa (size before relaxing)
 .debug_str     0x0000000000000cf1      0x2e8 build/app_app.a(uart.o)
                                        0x582 (size before relaxing)
 .debug_str     0x0000000000000fd9      0x101 build/app_app.a(util.o)
                                        0x2ce (size before relaxing)
 .debug_str     0x00000000000010da      0x167 build/app_app.a(cal_dex.o)
                                        0x229 (size before relaxing)
 .debug_str     0x0000000000001241      0x247 build/app_app.a(ili9341.o)
                                        0x542 (size before relaxing)
 .debug_str     0x0000000000001488      0x3df build/app_app.a(network.o)
                                        0x5cc (size before relaxing)
 .debug_str     0x0000000000001867       0x45 build/app_app.a(wire.o)
                                        0x219 (size before relaxing)
 .debug_str     0x00000000000018ac       0x7d build/app_app.a(timer.o)
                                        0x29d (size before relaxing)
 .debug_str     0x0000000000001929       0x5d build/app_app.a(queue.o)
                                        0x1f9 (size before relaxing)
 .debug_str     0x0000000000001986       0xff build/app_app.a(ili9341_adafruit.o)
                                        0x324 (size before relaxing)
 .debug_str     0x0000000000001a85      0x1a4 build/app_app.a(font.o)
                                        0x3b4 (size before relaxing)
 .debug_str     0x0000000000001c29       0x9e build/app_app.a(cordic.o)
                                        0x22d (size before relaxing)
 .debug_str     0x0000000000001cc7      0x182 /opt/Espressif/esp-open-sdk/xtensa-lx106-elf/lib/gcc/xtensa-lx106-elf/4.8.2/libgcc.a(_muldi3.o)
                                        0x206 (size before relaxing)
 .debug_str     0x0000000000001e49       0xd3 /opt/Espressif/esp-open-sdk/xtensa-lx106-elf/lib/gcc/xtensa-lx106-elf/4.8.2/../../../../xtensa-lx106-elf/lib/libm.a(lib_a-s_floor.o)
                                        0x184 (size before relaxing)
 .debug_str     0x0000000000001f1c       0x71 /opt/Espressif/esp-open-sdk/xtensa-lx106-elf/lib/gcc/xtensa-lx106-elf/4.8.2/../../../../xtensa-lx106-elf/lib/libm.a(lib_a-s_frexp.o)
                                        0x18f (size before relaxing)
 .debug_str     0x0000000000001f8d       0x62 /opt/Espressif/esp-open-sdk/xtensa-lx106-elf/lib/gcc/xtensa-lx106-elf/4.8.2/../../../../xtensa-lx106-elf/lib/libm.a(lib_a-s_modf.o)
                                        0x184 (size before relaxing)
 .debug_str     0x0000000000001fef       0x25 /opt/Espressif/esp-open-sdk/xtensa-lx106-elf/lib/gcc/xtensa-lx106-elf/4.8.2/libgcc.a(_popcountsi2.o)
                                        0x1e7 (size before relaxing)
 .debug_str     0x0000000000002014       0xc0 /opt/Espressif/esp-open-sdk/xtensa-lx106-elf/lib/gcc/xtensa-lx106-elf/4.8.2/libgcc.a(_divdi3.o)
                                        0x25c (size before relaxing)
 .debug_str     0x00000000000020d4        0xa /opt/Espressif/esp-open-sdk/xtensa-lx106-elf/lib/gcc/xtensa-lx106-elf/4.8.2/libgcc.a(_umoddi3.o)
                                        0x25d (size before relaxing)
 .debug_str     0x0000000000000000      0x1d1 /opt/Espressif/esp-open-sdk/xtensa-lx106-elf/lib/gcc/xtensa-lx106-elf/4.8.2/libgcc.a(_popcount_tab.o)

Cross Reference Table

Symbol                                            File
ApFreqCalTimer                                    /opt/Espressif/esp-open-sdk/sdk/lib/libnet80211.a(ieee80211_hostap.o)
BcnEb_update                                      /opt/Espressif/esp-open-sdk/sdk/lib/libnet80211.a(ieee80211_hostap.o)
                                                  /opt/Espressif/esp-open-sdk/sdk/lib/libmain.a(user_interface.o)
Cache_Read_Disable                                /opt/Espressif/esp-open-sdk/sdk/lib/libpp.a(pp.o)
                                                  /opt/Espressif/esp-open-sdk/sdk/lib/libmain.a(user_interface.o)
                                                  /opt/Espressif/esp-open-sdk/sdk/lib/libmain.a(spi_flash.o)
Cache_Read_Enable                                 /opt/Espressif/esp-open-sdk/sdk/lib/libmain.a(app_main.o)
Cache_Read_Enable_New                             /opt/Espressif/esp-open-sdk/sdk/lib/libmain.a(app_main.o)
                                                  /opt/Espressif/esp-open-sdk/sdk/lib/libpp.a(pp.o)
                                                  /opt/Espressif/esp-open-sdk/sdk/lib/libmain.a(spi_flash.o)
Circular                                          build/app_app.a(cordic.o)
Fixed_Bold_R_X7_Y13                               build/app_app.a(font.o)
Fixed_Bold_R_X7_Y13_bitmap                        build/app_app.a(font.o)
Fixed_Bold_R_X7_Y13_specs                         build/app_app.a(font.o)
FreqCalCntForScan                                 /opt/Espressif/esp-open-sdk/sdk/lib/libnet80211.a(ieee80211_scan.o)
GetAccess                                         /opt/Espressif/esp-open-sdk/sdk/lib/libpp.a(lmac.o)
                                                  /opt/Espressif/esp-open-sdk/sdk/lib/libpp.a(pp.o)
HighTaskQueue                                     build/app_app.a(user_main.o)
HighestFreqOffsetInOneChk                         /opt/Espressif/esp-open-sdk/sdk/lib/libpp.a(pp.o)
                                                  /opt/Espressif/esp-open-sdk/sdk/lib/libnet80211.a(ieee80211_hostap.o)
IdleTaskQueue                                     build/app_app.a(user_main.o)
LightSleepWakedCbSetFunc                          /opt/Espressif/esp-open-sdk/sdk/lib/libpp.a(pm.o)
NMI_Handler                                       /opt/Espressif/esp-open-sdk/sdk/lib/libmain.a(app_main.o)
                                                  /opt/Espressif/esp-open-sdk/sdk/lib/libmain.a(nmi-vector.o)
NmiTimSetFunc                                     /opt/Espressif/esp-open-sdk/sdk/lib/libmain.a(app_main.o)
NoiseTimerInterval                                /opt/Espressif/esp-open-sdk/sdk/lib/libpp.a(pp.o)
                                                  /opt/Espressif/esp-open-sdk/sdk/lib/libnet80211.a(ieee80211_hostap.o)
NormalTaskQueue                                   build/app_app.a(user_main.o)
OpmodChgIsOnGoing                                 /opt/Espressif/esp-open-sdk/sdk/lib/libmain.a(user_interface.o)
PPWdtReset                                        /opt/Espressif/esp-open-sdk/sdk/lib/libpp.a(pp.o)
                                                  /opt/Espressif/esp-open-sdk/sdk/lib/libpp.a(wdev.o)
PUCK_PORT                                         /opt/Espressif/esp-open-sdk/sdk/lib/liblwip.a(mdns.o)
PUCK_SERVICE                                      /opt/Espressif/esp-open-sdk/sdk/lib/liblwip.a(mdns.o)
PendFreeBcnEb                                     /opt/Espressif/esp-open-sdk/sdk/lib/libnet80211.a(ieee80211_hostap.o)
                                                  /opt/Espressif/esp-open-sdk/sdk/lib/libpp.a(pp.o)
PerspectiveProjection                             build/app_app.a(cordic.o)
                                                  build/app_app.a(wire.o)
RC_GetAckRate                                     /opt/Espressif/esp-open-sdk/sdk/lib/libpp.a(rate_control.o)
RC_GetAckTime                                     /opt/Espressif/esp-open-sdk/sdk/lib/libpp.a(rate_control.o)
                                                  /opt/Espressif/esp-open-sdk/sdk/lib/libpp.a(pp.o)
                                                  /opt/Espressif/esp-open-sdk/sdk/lib/libpp.a(lmac.o)
RC_GetBlockAckTime                                /opt/Espressif/esp-open-sdk/sdk/lib/libpp.a(rate_control.o)
                                                  /opt/Espressif/esp-open-sdk/sdk/lib/libpp.a(pp.o)
RC_GetCtsTime                                     /opt/Espressif/esp-open-sdk/sdk/lib/libpp.a(rate_control.o)
                                                  /opt/Espressif/esp-open-sdk/sdk/lib/libpp.a(pp.o)
RC_GetRtsRate                                     /opt/Espressif/esp-open-sdk/sdk/lib/libpp.a(rate_control.o)
RC_SetBasicRate                                   /opt/Espressif/esp-open-sdk/sdk/lib/libpp.a(rate_control.o)
                                                  /opt/Espressif/esp-open-sdk/sdk/lib/libpp.a(lmac.o)
RFChannelSel                                      /opt/Espressif/esp-open-sdk/sdk/lib/libphy.a(phy.o)
                                                  /opt/Espressif/esp-open-sdk/sdk/lib/libphy.a(phy_chip_v6_unused.o)
RxNodeNum                                         /opt/Espressif/esp-open-sdk/sdk/lib/libpp.a(pp.o)
SDIO_slp_reject                                   /opt/Espressif/esp-open-sdk/sdk/lib/libphy.a(phy_sleep.o)
SDK_VERSION                                       /opt/Espressif/esp-open-sdk/sdk/lib/libmain.a(app_main.o)
                                                  /opt/Espressif/esp-open-sdk/sdk/lib/libmain.a(user_interface.o)
SPIEraseSector                                    /opt/Espressif/esp-open-sdk/sdk/lib/libmain.a(spi_flash.o)
SPIRead                                           /opt/Espressif/esp-open-sdk/sdk/lib/libmain.a(spi_flash.o)
                                                  /opt/Espressif/esp-open-sdk/sdk/lib/libmain.a(app_main.o)
SPIWrite                                          /opt/Espressif/esp-open-sdk/sdk/lib/libmain.a(spi_flash.o)
SPI_read_status                                   /opt/Espressif/esp-open-sdk/sdk/lib/libmain.a(spi_flash.o)
SPI_write_status                                  /opt/Espressif/esp-open-sdk/sdk/lib/libmain.a(spi_flash.o)
StopLightSleepSetFunc                             /opt/Espressif/esp-open-sdk/sdk/lib/libpp.a(pm.o)
Te0                                               /opt/Espressif/esp-open-sdk/sdk/lib/libwpa.a(aes-internal-enc.o)
Terminus_Bold_R_X12_Y24                           build/app_app.a(font.o)
Terminus_Bold_R_X12_Y24_bitmap                    build/app_app.a(font.o)
Terminus_Bold_R_X12_Y24_specs                     build/app_app.a(font.o)
Terminus_Bold_R_X16_Y32                           build/app_app.a(font.o)
Terminus_Bold_R_X16_Y32_bitmap                    build/app_app.a(font.o)
Terminus_Bold_R_X16_Y32_specs                     build/app_app.a(font.o)
TestStaFreqCalValInput                            /opt/Espressif/esp-open-sdk/sdk/lib/libnet80211.a(ieee80211_scan.o)
                                                  /opt/Espressif/esp-open-sdk/sdk/lib/libnet80211.a(ieee80211_hostap.o)
                                                  /opt/Espressif/esp-open-sdk/sdk/lib/libpp.a(pp.o)
TmpSTAAPCloseAP                                   /opt/Espressif/esp-open-sdk/sdk/lib/libnet80211.a(ieee80211_hostap.o)
                                                  /opt/Espressif/esp-open-sdk/sdk/lib/libpp.a(pp.o)
TxNodeNum                                         /opt/Espressif/esp-open-sdk/sdk/lib/libpp.a(pp.o)
Tx_Copy2Queue                                     /opt/Espressif/esp-open-sdk/sdk/lib/libpp.a(wdev.o)
                                                  /opt/Espressif/esp-open-sdk/sdk/lib/libpp.a(lmac.o)
UART_SetPrintPort                                 build/app_app.a(uart.o)
Uart_Init                                         /opt/Espressif/esp-open-sdk/sdk/lib/libphy.a(phy_chip_v6.o)
UserTaskQueue                                     build/app_app.a(user_main.o)
Wait_SPI_Idle                                     /opt/Espressif/esp-open-sdk/sdk/lib/libmain.a(spi_flash.o)
WdevTimOffSet                                     /opt/Espressif/esp-open-sdk/sdk/lib/libpp.a(wdev.o)
                                                  /opt/Espressif/esp-open-sdk/sdk/lib/libpp.a(pm_for_bcn_only_mode.o)
                                                  /opt/Espressif/esp-open-sdk/sdk/lib/libpp.a(pm.o)
                                                  /opt/Espressif/esp-open-sdk/sdk/lib/libmain.a(user_interface.o)
X                                                 build/app_app.a(cordic.o)
Y                                                 build/app_app.a(cordic.o)
Z                                                 build/app_app.a(cordic.o)
_DebugExceptionVector                             /opt/Espressif/esp-open-sdk/sdk/lib/libmain.a(debug-vector.o)
_DoubleExceptionVector                            /opt/Espressif/esp-open-sdk/sdk/lib/libmain.a(double-vector.o)
_KernelExceptionVector                            /opt/Espressif/esp-open-sdk/sdk/lib/libmain.a(kernel-vector.o)
_NMIExceptionVector                               /opt/Espressif/esp-open-sdk/sdk/lib/libmain.a(nmi-vector.o)
_NMILevelVector                                   /opt/Espressif/esp-open-sdk/sdk/lib/libmain.a(nmi-vector.o)
_Pri_3_HandlerAddress                             /opt/Espressif/esp-open-sdk/sdk/lib/libmain.a(nmi-vector.o)
_UserExceptionVector                              /opt/Espressif/esp-open-sdk/sdk/lib/libmain.a(user-vector.o)
_UserExceptionVector_1                            /opt/Espressif/esp-open-sdk/sdk/lib/libmain.a(user-vector.o)
__Month                                           build/app_app.a(time.o)
__WDay                                            build/app_app.a(time.o)
__adddf3                                          /opt/Espressif/esp-open-sdk/xtensa-lx106-elf/lib/gcc/xtensa-lx106-elf/4.8.2/libgcc.a(_addsubdf3.o)
                                                  /opt/Espressif/esp-open-sdk/xtensa-lx106-elf/lib/gcc/xtensa-lx106-elf/4.8.2/../../../../xtensa-lx106-elf/lib/libm.a(lib_a-s_floor.o)
                                                  build/app_app.a(cordic.o)
                                                  build/app_app.a(printf.o)
                                                  build/app_app.a(user_main.o)
__addsf3                                          /opt/Espressif/esp-open-sdk/xtensa-lx106-elf/lib/gcc/xtensa-lx106-elf/4.8.2/libgcc.a(_addsubsf3.o)
                                                  /opt/Espressif/esp-open-sdk/sdk/lib/libphy.a(phy_chip_v6_ana.o)
__ashrdi3                                         /opt/Espressif/esp-open-sdk/xtensa-lx106-elf/lib/gcc/xtensa-lx106-elf/4.8.2/libgcc.a(_ashrdi3.o)
                                                  /opt/Espressif/esp-open-sdk/sdk/lib/libphy.a(phy_chip_v6.o)
__clock                                           build/app_app.a(timer_hal.o)
__divdf3                                          /opt/Espressif/esp-open-sdk/xtensa-lx106-elf/lib/gcc/xtensa-lx106-elf/4.8.2/libgcc.a(_divdf3.o)
                                                  /opt/Espressif/esp-open-sdk/sdk/lib/libphy.a(phy_chip_v6.o)
                                                  /opt/Espressif/esp-open-sdk/sdk/lib/libphy.a(phy_chip_v6_ana.o)
                                                  build/app_app.a(cordic.o)
                                                  build/app_app.a(printf.o)
                                                  build/app_app.a(user_main.o)
__divdi3                                          /opt/Espressif/esp-open-sdk/xtensa-lx106-elf/lib/gcc/xtensa-lx106-elf/4.8.2/libgcc.a(_divdi3.o)
                                                  /opt/Espressif/esp-open-sdk/sdk/lib/libphy.a(phy_chip_v6_cal.o)
__divsf3                                          /opt/Espressif/esp-open-sdk/xtensa-lx106-elf/lib/gcc/xtensa-lx106-elf/4.8.2/libgcc.a(_divsf3.o)
                                                  /opt/Espressif/esp-open-sdk/sdk/lib/libphy.a(phy_chip_v6.o)
                                                  /opt/Espressif/esp-open-sdk/sdk/lib/libphy.a(phy_chip_v6_ana.o)
__divsi3                                          /opt/Espressif/esp-open-sdk/xtensa-lx106-elf/lib/gcc/xtensa-lx106-elf/4.8.2/libgcc.a(_divsi3.o)
                                                  /opt/Espressif/esp-open-sdk/sdk/lib/libwpa.a(wpa_auth.o)
                                                  /opt/Espressif/esp-open-sdk/sdk/lib/liblwip.a(tcp_in.o)
                                                  /opt/Espressif/esp-open-sdk/sdk/lib/liblwip.a(sntp.o)
                                                  /opt/Espressif/esp-open-sdk/sdk/lib/liblwip.a(dhcp.o)
                                                  /opt/Espressif/esp-open-sdk/sdk/lib/libnet80211.a(ieee80211.o)
                                                  /opt/Espressif/esp-open-sdk/sdk/lib/libpp.a(pp.o)
                                                  /opt/Espressif/esp-open-sdk/sdk/lib/libpp.a(pm.o)
                                                  /opt/Espressif/esp-open-sdk/sdk/lib/libphy.a(phy_chip_v6_cal.o)
                                                  /opt/Espressif/esp-open-sdk/sdk/lib/libphy.a(phy_chip_v6.o)
                                                  /opt/Espressif/esp-open-sdk/sdk/lib/libphy.a(phy_chip_v6_ana.o)
                                                  build/app_app.a(ili9341_adafruit.o)
                                                  build/app_app.a(time.o)
                                                  build/app_app.a(printf.o)
                                                  build/app_app.a(user_main.o)
__eqdf2                                           /opt/Espressif/esp-open-sdk/xtensa-lx106-elf/lib/gcc/xtensa-lx106-elf/4.8.2/libgcc.a(_cmpdf2.o)
                                                  build/app_app.a(printf.o)
__extendsfdf2                                     /opt/Espressif/esp-open-sdk/xtensa-lx106-elf/lib/gcc/xtensa-lx106-elf/4.8.2/libgcc.a(_extendsfdf2.o)
                                                  build/app_app.a(user_main.o)
__fixdfsi                                         /opt/Espressif/esp-open-sdk/xtensa-lx106-elf/lib/gcc/xtensa-lx106-elf/4.8.2/libgcc.a(_fixdfsi.o)
                                                  /opt/Espressif/esp-open-sdk/sdk/lib/libphy.a(phy_chip_v6.o)
                                                  build/app_app.a(cordic.o)
                                                  build/app_app.a(wire.o)
                                                  build/app_app.a(printf.o)
__fixsfsi                                         /opt/Espressif/esp-open-sdk/xtensa-lx106-elf/lib/gcc/xtensa-lx106-elf/4.8.2/libgcc.a(_fixsfsi.o)
                                                  /opt/Espressif/esp-open-sdk/sdk/lib/libphy.a(phy_chip_v6.o)
__fixunssfsi                                      /opt/Espressif/esp-open-sdk/xtensa-lx106-elf/lib/gcc/xtensa-lx106-elf/4.8.2/libgcc.a(_fixunssfsi.o)
                                                  /opt/Espressif/esp-open-sdk/sdk/lib/libphy.a(phy_chip_v6_ana.o)
__floatsidf                                       /opt/Espressif/esp-open-sdk/xtensa-lx106-elf/lib/gcc/xtensa-lx106-elf/4.8.2/libgcc.a(_floatsidf.o)
                                                  /opt/Espressif/esp-open-sdk/sdk/lib/libphy.a(phy_chip_v6.o)
                                                  build/app_app.a(cordic.o)
                                                  build/app_app.a(wire.o)
                                                  build/app_app.a(printf.o)
                                                  build/app_app.a(user_main.o)
__floatsisf                                       /opt/Espressif/esp-open-sdk/xtensa-lx106-elf/lib/gcc/xtensa-lx106-elf/4.8.2/libgcc.a(_floatsisf.o)
                                                  /opt/Espressif/esp-open-sdk/sdk/lib/libphy.a(phy_chip_v6.o)
                                                  /opt/Espressif/esp-open-sdk/sdk/lib/libphy.a(phy_chip_v6_ana.o)
__floatunsidf                                     /opt/Espressif/esp-open-sdk/xtensa-lx106-elf/lib/gcc/xtensa-lx106-elf/4.8.2/libgcc.a(_floatsidf.o)
                                                  /opt/Espressif/esp-open-sdk/sdk/lib/libphy.a(phy_chip_v6_ana.o)
                                                  build/app_app.a(user_main.o)
__floatunsisf                                     /opt/Espressif/esp-open-sdk/xtensa-lx106-elf/lib/gcc/xtensa-lx106-elf/4.8.2/libgcc.a(_floatsisf.o)
                                                  /opt/Espressif/esp-open-sdk/sdk/lib/libphy.a(phy_chip_v6.o)
__gedf2                                           /opt/Espressif/esp-open-sdk/xtensa-lx106-elf/lib/gcc/xtensa-lx106-elf/4.8.2/libgcc.a(_cmpdf2.o)
                                                  build/app_app.a(printf.o)
                                                  build/app_app.a(user_main.o)
__gtdf2                                           /opt/Espressif/esp-open-sdk/xtensa-lx106-elf/lib/gcc/xtensa-lx106-elf/4.8.2/libgcc.a(_cmpdf2.o)
                                                  /opt/Espressif/esp-open-sdk/xtensa-lx106-elf/lib/gcc/xtensa-lx106-elf/4.8.2/../../../../xtensa-lx106-elf/lib/libm.a(lib_a-s_floor.o)
                                                  build/app_app.a(printf.o)
                                                  build/app_app.a(user_main.o)
__ledf2                                           /opt/Espressif/esp-open-sdk/xtensa-lx106-elf/lib/gcc/xtensa-lx106-elf/4.8.2/libgcc.a(_cmpdf2.o)
                                                  build/app_app.a(printf.o)
                                                  build/app_app.a(user_main.o)
__ltdf2                                           /opt/Espressif/esp-open-sdk/xtensa-lx106-elf/lib/gcc/xtensa-lx106-elf/4.8.2/libgcc.a(_cmpdf2.o)
                                                  build/app_app.a(cordic.o)
                                                  build/app_app.a(printf.o)
                                                  build/app_app.a(user_main.o)
__modsi3                                          /opt/Espressif/esp-open-sdk/xtensa-lx106-elf/lib/gcc/xtensa-lx106-elf/4.8.2/libgcc.a(_modsi3.o)
                                                  /opt/Espressif/esp-open-sdk/sdk/lib/libwpa.a(wpa_auth.o)
                                                  /opt/Espressif/esp-open-sdk/sdk/lib/liblwip.a(sntp.o)
                                                  /opt/Espressif/esp-open-sdk/sdk/lib/liblwip.a(dns.o)
                                                  /opt/Espressif/esp-open-sdk/sdk/lib/libnet80211.a(ieee80211_ht.o)
                                                  /opt/Espressif/esp-open-sdk/sdk/lib/libphy.a(phy_chip_v6.o)
                                                  build/app_app.a(ili9341.o)
                                                  build/app_app.a(time.o)
                                                  build/app_app.a(printf.o)
__muldf3                                          /opt/Espressif/esp-open-sdk/xtensa-lx106-elf/lib/gcc/xtensa-lx106-elf/4.8.2/libgcc.a(_muldf3.o)
                                                  /opt/Espressif/esp-open-sdk/xtensa-lx106-elf/lib/gcc/xtensa-lx106-elf/4.8.2/../../../../xtensa-lx106-elf/lib/libm.a(lib_a-s_frexp.o)
                                                  /opt/Espressif/esp-open-sdk/sdk/lib/libphy.a(phy_chip_v6.o)
                                                  build/app_app.a(cordic.o)
                                                  build/app_app.a(wire.o)
                                                  build/app_app.a(printf.o)
                                                  build/app_app.a(user_main.o)
__muldi3                                          /opt/Espressif/esp-open-sdk/xtensa-lx106-elf/lib/gcc/xtensa-lx106-elf/4.8.2/libgcc.a(_muldi3.o)
                                                  /opt/Espressif/esp-open-sdk/sdk/lib/libphy.a(phy_chip_v6_cal.o)
                                                  /opt/Espressif/esp-open-sdk/sdk/lib/libphy.a(phy_chip_v6.o)
                                                  /opt/Espressif/esp-open-sdk/sdk/lib/libmain.a(user_interface.o)
__mulsf3                                          /opt/Espressif/esp-open-sdk/xtensa-lx106-elf/lib/gcc/xtensa-lx106-elf/4.8.2/libgcc.a(_mulsf3.o)
                                                  /opt/Espressif/esp-open-sdk/sdk/lib/libphy.a(phy_chip_v6.o)
                                                  /opt/Espressif/esp-open-sdk/sdk/lib/libphy.a(phy_chip_v6_ana.o)
__nedf2                                           /opt/Espressif/esp-open-sdk/xtensa-lx106-elf/lib/gcc/xtensa-lx106-elf/4.8.2/libgcc.a(_cmpdf2.o)
                                                  build/app_app.a(printf.o)
__popcount_tab                                    /opt/Espressif/esp-open-sdk/xtensa-lx106-elf/lib/gcc/xtensa-lx106-elf/4.8.2/libgcc.a(_popcount_tab.o)
                                                  /opt/Espressif/esp-open-sdk/xtensa-lx106-elf/lib/gcc/xtensa-lx106-elf/4.8.2/libgcc.a(_popcountsi2.o)
__popcountsi2                                     /opt/Espressif/esp-open-sdk/xtensa-lx106-elf/lib/gcc/xtensa-lx106-elf/4.8.2/libgcc.a(_popcountsi2.o)
                                                  /opt/Espressif/esp-open-sdk/sdk/lib/libpp.a(trc.o)
                                                  /opt/Espressif/esp-open-sdk/sdk/lib/libpp.a(if_hwctrl.o)
__subdf3                                          /opt/Espressif/esp-open-sdk/xtensa-lx106-elf/lib/gcc/xtensa-lx106-elf/4.8.2/libgcc.a(_addsubdf3.o)
                                                  /opt/Espressif/esp-open-sdk/xtensa-lx106-elf/lib/gcc/xtensa-lx106-elf/4.8.2/../../../../xtensa-lx106-elf/lib/libm.a(lib_a-s_modf.o)
                                                  build/app_app.a(cordic.o)
                                                  build/app_app.a(printf.o)
__subsf3                                          /opt/Espressif/esp-open-sdk/xtensa-lx106-elf/lib/gcc/xtensa-lx106-elf/4.8.2/libgcc.a(_addsubsf3.o)
                                                  /opt/Espressif/esp-open-sdk/sdk/lib/libphy.a(phy_chip_v6_ana.o)
__truncdfsf2                                      /opt/Espressif/esp-open-sdk/xtensa-lx106-elf/lib/gcc/xtensa-lx106-elf/4.8.2/libgcc.a(_truncdfsf2.o)
                                                  /opt/Espressif/esp-open-sdk/sdk/lib/libphy.a(phy_chip_v6_ana.o)
                                                  build/app_app.a(user_main.o)
__tznorth                                         /opt/Espressif/esp-open-sdk/sdk/lib/liblwip.a(sntp.o)
__tzone                                           build/app_app.a(timer_hal.o)
                                                  build/app_app.a(time.o)
__tzyear                                          /opt/Espressif/esp-open-sdk/sdk/lib/liblwip.a(sntp.o)
__udivsi3                                         /opt/Espressif/esp-open-sdk/xtensa-lx106-elf/lib/gcc/xtensa-lx106-elf/4.8.2/libgcc.a(_udivsi3.o)
                                                  /opt/Espressif/esp-open-sdk/xtensa-lx106-elf/lib/gcc/xtensa-lx106-elf/4.8.2/libgcc.a(_umoddi3.o)
                                                  /opt/Espressif/esp-open-sdk/xtensa-lx106-elf/lib/gcc/xtensa-lx106-elf/4.8.2/libgcc.a(_divdi3.o)
                                                  /opt/Espressif/esp-open-sdk/sdk/lib/liblwip.a(espconn.o)
                                                  /opt/Espressif/esp-open-sdk/sdk/lib/liblwip.a(timers.o)
                                                  /opt/Espressif/esp-open-sdk/sdk/lib/liblwip.a(tcp.o)
                                                  /opt/Espressif/esp-open-sdk/sdk/lib/liblwip.a(ip_addr.o)
                                                  /opt/Espressif/esp-open-sdk/sdk/lib/liblwip.a(dhcp.o)
                                                  /opt/Espressif/esp-open-sdk/sdk/lib/libnet80211.a(ieee80211_phy.o)
                                                  /opt/Espressif/esp-open-sdk/sdk/lib/libnet80211.a(ieee80211_hostap.o)
                                                  /opt/Espressif/esp-open-sdk/sdk/lib/libnet80211.a(ieee80211.o)
                                                  /opt/Espressif/esp-open-sdk/sdk/lib/libpp.a(wdev.o)
                                                  /opt/Espressif/esp-open-sdk/sdk/lib/libpp.a(trc.o)
                                                  /opt/Espressif/esp-open-sdk/sdk/lib/libpp.a(pp.o)
                                                  /opt/Espressif/esp-open-sdk/sdk/lib/libpp.a(pm_for_bcn_only_mode.o)
                                                  /opt/Espressif/esp-open-sdk/sdk/lib/libpp.a(pm.o)
                                                  /opt/Espressif/esp-open-sdk/sdk/lib/libphy.a(phy_sleep.o)
                                                  /opt/Espressif/esp-open-sdk/sdk/lib/libphy.a(phy_chip_v6_unused.o)
                                                  /opt/Espressif/esp-open-sdk/sdk/lib/libphy.a(phy_chip_v6_cal.o)
                                                  /opt/Espressif/esp-open-sdk/sdk/lib/libphy.a(phy_chip_v6.o)
                                                  build/app_app.a(uart.o)
                                                  build/app_app.a(time.o)
                                                  /opt/Espressif/esp-open-sdk/sdk/lib/libmain.a(eagle_lib.o)
                                                  /opt/Espressif/esp-open-sdk/sdk/lib/libmain.a(user_interface.o)
                                                  /opt/Espressif/esp-open-sdk/sdk/lib/libmain.a(ets_timer.o)
                                                  /opt/Espressif/esp-open-sdk/sdk/lib/libmain.a(app_main.o)
__umoddi3                                         /opt/Espressif/esp-open-sdk/xtensa-lx106-elf/lib/gcc/xtensa-lx106-elf/4.8.2/libgcc.a(_umoddi3.o)
                                                  /opt/Espressif/esp-open-sdk/sdk/lib/libpp.a(pm.o)
__umodsi3                                         /opt/Espressif/esp-open-sdk/xtensa-lx106-elf/lib/gcc/xtensa-lx106-elf/4.8.2/libgcc.a(_umodsi3.o)
                                                  /opt/Espressif/esp-open-sdk/xtensa-lx106-elf/lib/gcc/xtensa-lx106-elf/4.8.2/libgcc.a(_umoddi3.o)
                                                  /opt/Espressif/esp-open-sdk/xtensa-lx106-elf/lib/gcc/xtensa-lx106-elf/4.8.2/libgcc.a(_divdi3.o)
                                                  /opt/Espressif/esp-open-sdk/sdk/lib/liblwip.a(igmp.o)
                                                  /opt/Espressif/esp-open-sdk/sdk/lib/liblwip.a(espconn.o)
                                                  /opt/Espressif/esp-open-sdk/sdk/lib/liblwip.a(ip_addr.o)
                                                  build/app_app.a(time.o)
                                                  /opt/Espressif/esp-open-sdk/sdk/lib/libmain.a(eagle_lib.o)
__umulsidi3                                       /opt/Espressif/esp-open-sdk/xtensa-lx106-elf/lib/gcc/xtensa-lx106-elf/4.8.2/libgcc.a(_umulsidi3.o)
                                                  /opt/Espressif/esp-open-sdk/xtensa-lx106-elf/lib/gcc/xtensa-lx106-elf/4.8.2/libgcc.a(_umoddi3.o)
                                                  /opt/Espressif/esp-open-sdk/xtensa-lx106-elf/lib/gcc/xtensa-lx106-elf/4.8.2/libgcc.a(_divdi3.o)
                                                  /opt/Espressif/esp-open-sdk/xtensa-lx106-elf/lib/gcc/xtensa-lx106-elf/4.8.2/libgcc.a(_muldi3.o)
__unorddf2                                        /opt/Espressif/esp-open-sdk/xtensa-lx106-elf/lib/gcc/xtensa-lx106-elf/4.8.2/libgcc.a(_cmpdf2.o)
__wpa_send_eapol                                  /opt/Espressif/esp-open-sdk/sdk/lib/libwpa.a(wpa_auth.o)
__wrap__xtos_set_exception_handler                build/app_app.a(cal_dex.o)
                                                  /opt/Espressif/esp-open-sdk/sdk/lib/libmain.a(app_main.o)
_addr                                             build/app_app.a(util.o)
_bss_end                                          build/app_app.a(cal_dex.o)
                                                  /opt/Espressif/esp-open-sdk/sdk/lib/libmain.a(user_interface.o)
                                                  /opt/Espressif/esp-open-sdk/sdk/lib/libmain.a(app_main.o)
_bss_start                                        build/app_app.a(cal_dex.o)
                                                  /opt/Espressif/esp-open-sdk/sdk/lib/libmain.a(user_interface.o)
                                                  /opt/Espressif/esp-open-sdk/sdk/lib/libmain.a(app_main.o)
_cs_pin                                           build/app_app.a(hspi.o)
_data                                             build/app_app.a(util.o)
_data_end                                         build/app_app.a(cal_dex.o)
                                                  /opt/Espressif/esp-open-sdk/sdk/lib/libmain.a(user_interface.o)
_data_start                                       build/app_app.a(cal_dex.o)
                                                  /opt/Espressif/esp-open-sdk/sdk/lib/libmain.a(user_interface.o)
_heap_start                                       /opt/Espressif/esp-open-sdk/sdk/lib/libmain.a(user_interface.o)
                                                  /opt/Espressif/esp-open-sdk/sdk/lib/libmain.a(mem_manager.o)
_rodata_end                                       build/app_app.a(cal_dex.o)
                                                  /opt/Espressif/esp-open-sdk/sdk/lib/libmain.a(user_interface.o)
_rodata_start                                     build/app_app.a(cal_dex.o)
                                                  /opt/Espressif/esp-open-sdk/sdk/lib/libmain.a(user_interface.o)
_text_end                                         build/app_app.a(cal_dex.o)
_text_start                                       build/app_app.a(cal_dex.o)
_windemo                                          build/app_app.a(user_main.o)
_winstats                                         build/app_app.a(user_main.o)
_wintest                                          build/app_app.a(user_main.o)
_wintestdemo                                      build/app_app.a(user_main.o)
_xtos_set_exception_handler                       build/app_app.a(cal_dex.o)
adc_rand_noise                                    /opt/Espressif/esp-open-sdk/sdk/lib/libphy.a(phy_chip_v6.o)
                                                  /opt/Espressif/esp-open-sdk/sdk/lib/libphy.a(phy_sleep.o)
aes_encrypt                                       /opt/Espressif/esp-open-sdk/sdk/lib/libwpa.a(aes-internal-enc.o)
                                                  /opt/Espressif/esp-open-sdk/sdk/lib/libwpa.a(aes-wrap.o)
aes_encrypt_deinit                                /opt/Espressif/esp-open-sdk/sdk/lib/libwpa.a(aes-internal-enc.o)
                                                  /opt/Espressif/esp-open-sdk/sdk/lib/libwpa.a(aes-wrap.o)
aes_encrypt_init                                  /opt/Espressif/esp-open-sdk/sdk/lib/libwpa.a(aes-internal-enc.o)
                                                  /opt/Espressif/esp-open-sdk/sdk/lib/libwpa.a(aes-wrap.o)
aes_unwrap                                        /opt/Espressif/esp-open-sdk/sdk/lib/libwpa.a(wpa.o)
aes_wrap                                          /opt/Espressif/esp-open-sdk/sdk/lib/libwpa.a(aes-wrap.o)
                                                  /opt/Espressif/esp-open-sdk/sdk/lib/libwpa.a(wpa_auth.o)
allfonts                                          build/app_app.a(font.o)
angle_quad                                        build/app_app.a(cordic.o)
ant_switch_init                                   /opt/Espressif/esp-open-sdk/sdk/lib/libphy.a(phy_chip_v6.o)
asctime                                           build/app_app.a(time.o)
asctime_r                                         build/app_app.a(time.o)
auth_type                                         /opt/Espressif/esp-open-sdk/sdk/lib/libnet80211.a(ieee80211_scan.o)
                                                  /opt/Espressif/esp-open-sdk/sdk/lib/libnet80211.a(wl_cnx.o)
bb_init                                           /opt/Espressif/esp-open-sdk/sdk/lib/libphy.a(phy.o)
bbpll_cal                                         /opt/Espressif/esp-open-sdk/sdk/lib/libphy.a(phy_chip_v6.o)
bbpll_cal_flag                                    /opt/Espressif/esp-open-sdk/sdk/lib/libphy.a(phy_chip_v6.o)
                                                  /opt/Espressif/esp-open-sdk/sdk/lib/libphy.a(phy_sleep.o)
bcn_ie                                            /opt/Espressif/esp-open-sdk/sdk/lib/libmain.a(user_interface.o)
bittestv                                          build/app_app.a(util.o)
                                                  build/app_app.a(ili9341.o)
bittestxy                                         build/app_app.a(util.o)
cal_dex_dump                                      build/app_app.a(cal_dex.o)
cal_dex_dump_hex                                  build/app_app.a(cal_dex.o)
cal_dex_dump_stack                                build/app_app.a(cal_dex.o)
cal_rf_ana_gain                                   /opt/Espressif/esp-open-sdk/sdk/lib/libphy.a(phy_chip_v6_cal.o)
                                                  /opt/Espressif/esp-open-sdk/sdk/lib/libphy.a(phy_chip_v6.o)
call_user_start                                   /opt/Espressif/esp-open-sdk/sdk/lib/libmain.a(vector.o)
call_user_start_local                             /opt/Espressif/esp-open-sdk/sdk/lib/libmain.a(app_main.o)
                                                  /opt/Espressif/esp-open-sdk/sdk/lib/libmain.a(vector.o)
calloc                                            build/app_app.a(util.o)
                                                  build/app_app.a(queue.o)
                                                  build/app_app.a(uart.o)
cannel_scan_connect_state                         /opt/Espressif/esp-open-sdk/sdk/lib/libnet80211.a(ieee80211_scan.o)
ccmp                                              /opt/Espressif/esp-open-sdk/sdk/lib/libnet80211.a(ieee80211_crypto_ccmp.o)
                                                  /opt/Espressif/esp-open-sdk/sdk/lib/libwpa.a(wpa_main.o)
                                                  /opt/Espressif/esp-open-sdk/sdk/lib/libwpa.a(wpa_auth.o)
                                                  /opt/Espressif/esp-open-sdk/sdk/lib/libnet80211.a(ieee80211_action.o)
                                                  /opt/Espressif/esp-open-sdk/sdk/lib/libnet80211.a(ieee80211_input.o)
change_bbpll160                                   /opt/Espressif/esp-open-sdk/sdk/lib/libphy.a(phy_chip_v6.o)
                                                  /opt/Espressif/esp-open-sdk/sdk/lib/libphy.a(phy_sleep.o)
change_bbpll160_sleep                             /opt/Espressif/esp-open-sdk/sdk/lib/libphy.a(phy_chip_v6.o)
check_data_flag                                   /opt/Espressif/esp-open-sdk/sdk/lib/libphy.a(phy_chip_v6_ana.o)
check_data_func                                   /opt/Espressif/esp-open-sdk/sdk/lib/libphy.a(phy_chip_v6.o)
check_result                                      /opt/Espressif/esp-open-sdk/sdk/lib/libphy.a(phy_chip_v6.o)
                                                  /opt/Espressif/esp-open-sdk/sdk/lib/libphy.a(phy_chip_v6_cal.o)
check_timeouts_timer                              /opt/Espressif/esp-open-sdk/sdk/lib/libmain.a(app_main.o)
                                                  /opt/Espressif/esp-open-sdk/sdk/lib/libpp.a(pm_for_bcn_only_mode.o)
                                                  /opt/Espressif/esp-open-sdk/sdk/lib/libpp.a(pm.o)
chg_lslp_mem_opt_8266                             /opt/Espressif/esp-open-sdk/sdk/lib/libphy.a(phy_sleep.o)
chip6_phy_init_ctrl                               /opt/Espressif/esp-open-sdk/sdk/lib/libphy.a(phy_chip_v6.o)
                                                  /opt/Espressif/esp-open-sdk/sdk/lib/libpp.a(pp.o)
                                                  /opt/Espressif/esp-open-sdk/sdk/lib/libphy.a(phy_sleep.o)
                                                  /opt/Espressif/esp-open-sdk/sdk/lib/libphy.a(phy_chip_v6_cal.o)
                                                  /opt/Espressif/esp-open-sdk/sdk/lib/libphy.a(phy_chip_v6_ana.o)
chip6_sleep_params                                /opt/Espressif/esp-open-sdk/sdk/lib/libphy.a(phy_chip_v6.o)
                                                  /opt/Espressif/esp-open-sdk/sdk/lib/libphy.a(phy_sleep.o)
                                                  /opt/Espressif/esp-open-sdk/sdk/lib/libphy.a(phy_chip_v6_unused.o)
                                                  /opt/Espressif/esp-open-sdk/sdk/lib/libphy.a(phy_chip_v6_cal.o)
                                                  /opt/Espressif/esp-open-sdk/sdk/lib/libphy.a(phy_chip_v6_ana.o)
chip_60_set_channel                               /opt/Espressif/esp-open-sdk/sdk/lib/libphy.a(phy_chip_v6_ana.o)
                                                  /opt/Espressif/esp-open-sdk/sdk/lib/libphy.a(phy_chip_v6.o)
chip_v6_get_sense                                 /opt/Espressif/esp-open-sdk/sdk/lib/libphy.a(phy_chip_v6_unused.o)
chip_v6_initialize_bb                             /opt/Espressif/esp-open-sdk/sdk/lib/libphy.a(phy_chip_v6.o)
chip_v6_rf_init                                   /opt/Espressif/esp-open-sdk/sdk/lib/libphy.a(phy_chip_v6_ana.o)
                                                  /opt/Espressif/esp-open-sdk/sdk/lib/libphy.a(phy_chip_v6.o)
chip_v6_rxmax_ext                                 /opt/Espressif/esp-open-sdk/sdk/lib/libphy.a(phy_chip_v6.o)
chip_v6_rxmax_ext_ana                             /opt/Espressif/esp-open-sdk/sdk/lib/libphy.a(phy_chip_v6_ana.o)
                                                  /opt/Espressif/esp-open-sdk/sdk/lib/libphy.a(phy_chip_v6.o)
chip_v6_rxmax_ext_dig                             /opt/Espressif/esp-open-sdk/sdk/lib/libphy.a(phy_chip_v6.o)
chip_v6_set_chan                                  /opt/Espressif/esp-open-sdk/sdk/lib/libphy.a(phy_chip_v6_ana.o)
                                                  /opt/Espressif/esp-open-sdk/sdk/lib/libphy.a(phy_chip_v6.o)
chip_v6_set_chan_misc                             /opt/Espressif/esp-open-sdk/sdk/lib/libphy.a(phy_chip_v6.o)
                                                  /opt/Espressif/esp-open-sdk/sdk/lib/libphy.a(phy_chip_v6_ana.o)
chip_v6_set_chan_offset                           /opt/Espressif/esp-open-sdk/sdk/lib/libphy.a(phy_chip_v6_ana.o)
                                                  /opt/Espressif/esp-open-sdk/sdk/lib/libnet80211.a(ieee80211_scan.o)
                                                  /opt/Espressif/esp-open-sdk/sdk/lib/libnet80211.a(ieee80211_hostap.o)
                                                  /opt/Espressif/esp-open-sdk/sdk/lib/libpp.a(pp.o)
chip_v6_set_chan_rx_cmp                           /opt/Espressif/esp-open-sdk/sdk/lib/libphy.a(phy_chip_v6.o)
chip_v6_set_chan_wakeup                           /opt/Espressif/esp-open-sdk/sdk/lib/libphy.a(phy_chip_v6_ana.o)
chip_v6_set_chanfreq                              /opt/Espressif/esp-open-sdk/sdk/lib/libphy.a(phy_chip_v6.o)
chip_v6_set_sense                                 /opt/Espressif/esp-open-sdk/sdk/lib/libphy.a(phy_chip_v6_unused.o)
                                                  /opt/Espressif/esp-open-sdk/sdk/lib/libphy.a(phy_chip_v6.o)
chip_v6_unset_chanfreq                            /opt/Espressif/esp-open-sdk/sdk/lib/libphy.a(phy_chip_v6_unused.o)
                                                  /opt/Espressif/esp-open-sdk/sdk/lib/libphy.a(phy_chip_v6.o)
chip_version                                      /opt/Espressif/esp-open-sdk/sdk/lib/libphy.a(phy_sleep.o)
chm_acquire_lock                                  /opt/Espressif/esp-open-sdk/sdk/lib/libnet80211.a(wl_chm.o)
                                                  /opt/Espressif/esp-open-sdk/sdk/lib/libnet80211.a(wl_cnx.o)
                                                  /opt/Espressif/esp-open-sdk/sdk/lib/libnet80211.a(ieee80211_scan.o)
chm_cancel_op                                     /opt/Espressif/esp-open-sdk/sdk/lib/libnet80211.a(wl_chm.o)
                                                  /opt/Espressif/esp-open-sdk/sdk/lib/libnet80211.a(ieee80211_scan.o)
chm_check_same_channel                            /opt/Espressif/esp-open-sdk/sdk/lib/libnet80211.a(wl_chm.o)
                                                  /opt/Espressif/esp-open-sdk/sdk/lib/libnet80211.a(ieee80211_power.o)
                                                  /opt/Espressif/esp-open-sdk/sdk/lib/libnet80211.a(ieee80211_output.o)
                                                  /opt/Espressif/esp-open-sdk/sdk/lib/libnet80211.a(ieee80211_hostap.o)
chm_end_op                                        /opt/Espressif/esp-open-sdk/sdk/lib/libnet80211.a(wl_chm.o)
chm_freq2index                                    /opt/Espressif/esp-open-sdk/sdk/lib/libnet80211.a(wl_chm.o)
chm_get_current_channel                           /opt/Espressif/esp-open-sdk/sdk/lib/libnet80211.a(wl_chm.o)
                                                  /opt/Espressif/esp-open-sdk/sdk/lib/libnet80211.a(wl_cnx.o)
                                                  /opt/Espressif/esp-open-sdk/sdk/lib/libnet80211.a(ieee80211_scan.o)
                                                  /opt/Espressif/esp-open-sdk/sdk/lib/libnet80211.a(ieee80211_hostap.o)
                                                  /opt/Espressif/esp-open-sdk/sdk/lib/libpp.a(wdev.o)
                                                  /opt/Espressif/esp-open-sdk/sdk/lib/libpp.a(pp.o)
                                                  /opt/Espressif/esp-open-sdk/sdk/lib/libpp.a(pm.o)
                                                  /opt/Espressif/esp-open-sdk/sdk/lib/libmain.a(user_interface.o)
chm_init                                          /opt/Espressif/esp-open-sdk/sdk/lib/libnet80211.a(wl_chm.o)
                                                  /opt/Espressif/esp-open-sdk/sdk/lib/libnet80211.a(ieee80211.o)
chm_release_lock                                  /opt/Espressif/esp-open-sdk/sdk/lib/libnet80211.a(wl_chm.o)
                                                  /opt/Espressif/esp-open-sdk/sdk/lib/libnet80211.a(wl_cnx.o)
                                                  /opt/Espressif/esp-open-sdk/sdk/lib/libnet80211.a(ieee80211_scan.o)
chm_return_home_channel                           /opt/Espressif/esp-open-sdk/sdk/lib/libnet80211.a(wl_chm.o)
                                                  /opt/Espressif/esp-open-sdk/sdk/lib/libnet80211.a(wl_cnx.o)
                                                  /opt/Espressif/esp-open-sdk/sdk/lib/libnet80211.a(ieee80211_scan.o)
chm_set_current_channel                           /opt/Espressif/esp-open-sdk/sdk/lib/libnet80211.a(wl_chm.o)
                                                  /opt/Espressif/esp-open-sdk/sdk/lib/libnet80211.a(ieee80211_hostap.o)
                                                  /opt/Espressif/esp-open-sdk/sdk/lib/libmain.a(user_interface.o)
chm_start_op                                      /opt/Espressif/esp-open-sdk/sdk/lib/libnet80211.a(wl_chm.o)
                                                  /opt/Espressif/esp-open-sdk/sdk/lib/libnet80211.a(wl_cnx.o)
                                                  /opt/Espressif/esp-open-sdk/sdk/lib/libnet80211.a(ieee80211_scan.o)
clock_clear                                       build/app_app.a(timer_hal.o)
clock_elapsed_begin                               build/app_app.a(timer.o)
clock_elapsed_end                                 build/app_app.a(timer.o)
clock_getres                                      build/app_app.a(timer_hal.o)
clock_gettime                                     build/app_app.a(timer_hal.o)
                                                  build/app_app.a(timer.o)
                                                  build/app_app.a(time.o)
clock_init                                        build/app_app.a(timer_hal.o)
clock_set                                         build/app_app.a(time.o)
clock_settime                                     build/app_app.a(timer_hal.o)
                                                  build/app_app.a(time.o)
clockgate_watchdog                                /opt/Espressif/esp-open-sdk/sdk/lib/libphy.a(phy_sleep.o)
                                                  /opt/Espressif/esp-open-sdk/sdk/lib/libpp.a(pm_for_bcn_only_mode.o)
                                                  /opt/Espressif/esp-open-sdk/sdk/lib/libpp.a(pm.o)
                                                  /opt/Espressif/esp-open-sdk/sdk/lib/libmain.a(user_interface.o)
cnx_add_rc                                        /opt/Espressif/esp-open-sdk/sdk/lib/libnet80211.a(wl_cnx.o)
                                                  /opt/Espressif/esp-open-sdk/sdk/lib/libnet80211.a(ieee80211_scan.o)
cnx_attach                                        /opt/Espressif/esp-open-sdk/sdk/lib/libnet80211.a(wl_cnx.o)
                                                  /opt/Espressif/esp-open-sdk/sdk/lib/libmain.a(app_main.o)
cnx_bss_alloc                                     /opt/Espressif/esp-open-sdk/sdk/lib/libnet80211.a(wl_cnx.o)
                                                  /opt/Espressif/esp-open-sdk/sdk/lib/libnet80211.a(ieee80211_scan.o)
cnx_connect_timeout                               /opt/Espressif/esp-open-sdk/sdk/lib/libnet80211.a(wl_cnx.o)
                                                  /opt/Espressif/esp-open-sdk/sdk/lib/libnet80211.a(ieee80211_sta.o)
                                                  /opt/Espressif/esp-open-sdk/sdk/lib/libnet80211.a(ieee80211_scan.o)
cnx_node_alloc                                    /opt/Espressif/esp-open-sdk/sdk/lib/libnet80211.a(wl_cnx.o)
                                                  /opt/Espressif/esp-open-sdk/sdk/lib/libnet80211.a(ieee80211_hostap.o)
cnx_node_join                                     /opt/Espressif/esp-open-sdk/sdk/lib/libnet80211.a(wl_cnx.o)
                                                  /opt/Espressif/esp-open-sdk/sdk/lib/libnet80211.a(ieee80211_hostap.o)
cnx_node_leave                                    /opt/Espressif/esp-open-sdk/sdk/lib/libnet80211.a(wl_cnx.o)
                                                  /opt/Espressif/esp-open-sdk/sdk/lib/libnet80211.a(ieee80211_hostap.o)
                                                  /opt/Espressif/esp-open-sdk/sdk/lib/libmain.a(user_interface.o)
cnx_node_remove                                   /opt/Espressif/esp-open-sdk/sdk/lib/libnet80211.a(wl_cnx.o)
cnx_node_search                                   /opt/Espressif/esp-open-sdk/sdk/lib/libnet80211.a(wl_cnx.o)
                                                  /opt/Espressif/esp-open-sdk/sdk/lib/libwpa.a(wpa_auth.o)
                                                  /opt/Espressif/esp-open-sdk/sdk/lib/libnet80211.a(ieee80211_output.o)
                                                  /opt/Espressif/esp-open-sdk/sdk/lib/libnet80211.a(ieee80211_hostap.o)
cnx_rc_search                                     /opt/Espressif/esp-open-sdk/sdk/lib/libnet80211.a(wl_cnx.o)
                                                  /opt/Espressif/esp-open-sdk/sdk/lib/libnet80211.a(ieee80211_scan.o)
cnx_rc_update_age                                 /opt/Espressif/esp-open-sdk/sdk/lib/libnet80211.a(wl_cnx.o)
                                                  /opt/Espressif/esp-open-sdk/sdk/lib/libnet80211.a(ieee80211_scan.o)
cnx_rc_update_rssi                                /opt/Espressif/esp-open-sdk/sdk/lib/libnet80211.a(wl_cnx.o)
                                                  /opt/Espressif/esp-open-sdk/sdk/lib/libnet80211.a(ieee80211_scan.o)
cnx_rc_update_state_metric                        /opt/Espressif/esp-open-sdk/sdk/lib/libnet80211.a(wl_cnx.o)
                                                  /opt/Espressif/esp-open-sdk/sdk/lib/libnet80211.a(ieee80211_scan.o)
cnx_remove_rc                                     /opt/Espressif/esp-open-sdk/sdk/lib/libnet80211.a(wl_cnx.o)
                                                  /opt/Espressif/esp-open-sdk/sdk/lib/libnet80211.a(ieee80211_scan.o)
cnx_sta_associated                                /opt/Espressif/esp-open-sdk/sdk/lib/libnet80211.a(wl_cnx.o)
                                                  /opt/Espressif/esp-open-sdk/sdk/lib/libnet80211.a(ieee80211_sta.o)
cnx_sta_connect_cmd                               /opt/Espressif/esp-open-sdk/sdk/lib/libnet80211.a(wl_cnx.o)
                                                  /opt/Espressif/esp-open-sdk/sdk/lib/libmain.a(user_interface.o)
cnx_sta_connect_led_timer_cb                      /opt/Espressif/esp-open-sdk/sdk/lib/libnet80211.a(wl_cnx.o)
cnx_sta_leave                                     /opt/Espressif/esp-open-sdk/sdk/lib/libnet80211.a(wl_cnx.o)
                                                  /opt/Espressif/esp-open-sdk/sdk/lib/libnet80211.a(ieee80211_sta.o)
cnx_sta_scan_cmd                                  /opt/Espressif/esp-open-sdk/sdk/lib/libnet80211.a(wl_cnx.o)
                                                  /opt/Espressif/esp-open-sdk/sdk/lib/libmain.a(user_interface.o)
cnx_start_handoff_cb                              /opt/Espressif/esp-open-sdk/sdk/lib/libnet80211.a(wl_cnx.o)
cnx_update_bss                                    /opt/Espressif/esp-open-sdk/sdk/lib/libnet80211.a(wl_cnx.o)
                                                  /opt/Espressif/esp-open-sdk/sdk/lib/libnet80211.a(ieee80211_scan.o)
cnx_update_bss_more                               /opt/Espressif/esp-open-sdk/sdk/lib/libnet80211.a(wl_cnx.o)
                                                  /opt/Espressif/esp-open-sdk/sdk/lib/libnet80211.a(ieee80211_scan.o)
cordic_deg                                        build/app_app.a(cordic.o)
cordic_quad                                       build/app_app.a(cordic.o)
cordic_rad                                        build/app_app.a(cordic.o)
correct_rf_ana_gain                               /opt/Espressif/esp-open-sdk/sdk/lib/libphy.a(phy_chip_v6_cal.o)
cpu_overclock                                     /opt/Espressif/esp-open-sdk/sdk/lib/libmain.a(user_interface.o)
cpy_flash                                         build/app_app.a(util.o)
                                                  build/app_app.a(font.o)
                                                  build/app_app.a(wire.o)
ctime                                             build/app_app.a(time.o)
                                                  build/app_app.a(user_main.o)
ctime_gm                                          build/app_app.a(time.o)
ctime_r                                           build/app_app.a(time.o)
current_header                                    /opt/Espressif/esp-open-sdk/sdk/lib/liblwip.a(ip.o)
current_iphdr_dest                                /opt/Espressif/esp-open-sdk/sdk/lib/liblwip.a(ip.o)
                                                  /opt/Espressif/esp-open-sdk/sdk/lib/liblwip.a(icmp.o)
                                                  /opt/Espressif/esp-open-sdk/sdk/lib/liblwip.a(udp.o)
                                                  /opt/Espressif/esp-open-sdk/sdk/lib/liblwip.a(tcp_in.o)
                                                  /opt/Espressif/esp-open-sdk/sdk/lib/liblwip.a(raw.o)
current_iphdr_src                                 /opt/Espressif/esp-open-sdk/sdk/lib/liblwip.a(ip.o)
                                                  /opt/Espressif/esp-open-sdk/sdk/lib/liblwip.a(icmp.o)
                                                  /opt/Espressif/esp-open-sdk/sdk/lib/liblwip.a(udp.o)
                                                  /opt/Espressif/esp-open-sdk/sdk/lib/liblwip.a(tcp_in.o)
                                                  /opt/Espressif/esp-open-sdk/sdk/lib/liblwip.a(raw.o)
current_netif                                     /opt/Espressif/esp-open-sdk/sdk/lib/liblwip.a(ip.o)
data_collect                                      /opt/Espressif/esp-open-sdk/sdk/lib/libphy.a(phy_chip_v6_unused.o)
dbg_stop_hw_wdt                                   /opt/Espressif/esp-open-sdk/sdk/lib/libpp.a(pp.o)
dbg_stop_sw_wdt                                   /opt/Espressif/esp-open-sdk/sdk/lib/libpp.a(pp.o)
dcoindex2txbbgain                                 /opt/Espressif/esp-open-sdk/sdk/lib/libphy.a(phy_chip_v6_cal.o)
debug_timer                                       /opt/Espressif/esp-open-sdk/sdk/lib/libmain.a(ets_timer.o)
debug_timerfn                                     /opt/Espressif/esp-open-sdk/sdk/lib/libmain.a(ets_timer.o)
deep_sleep_en                                     /opt/Espressif/esp-open-sdk/sdk/lib/libphy.a(phy_chip_v6.o)
deep_sleep_flag                                   /opt/Espressif/esp-open-sdk/sdk/lib/libmain.a(user_interface.o)
deep_sleep_set_option                             /opt/Espressif/esp-open-sdk/sdk/lib/libphy.a(phy_chip_v6.o)
                                                  /opt/Espressif/esp-open-sdk/sdk/lib/libmain.a(user_interface.o)
default_hostname                                  /opt/Espressif/esp-open-sdk/sdk/lib/libmain.a(eagle_lwip_if.o)
                                                  /opt/Espressif/esp-open-sdk/sdk/lib/libmain.a(user_interface.o)
default_interface                                 /opt/Espressif/esp-open-sdk/sdk/lib/libmain.a(user_interface.o)
                                                  /opt/Espressif/esp-open-sdk/sdk/lib/liblwip.a(espconn_udp.o)
deg2rad                                           build/app_app.a(cordic.o)
delete_all_timers                                 build/app_app.a(timer.o)
                                                  build/app_app.a(timer_hal.o)
dhcp_arp_reply                                    /opt/Espressif/esp-open-sdk/sdk/lib/liblwip.a(dhcp.o)
                                                  /opt/Espressif/esp-open-sdk/sdk/lib/liblwip.a(etharp.o)
dhcp_bind_check                                   /opt/Espressif/esp-open-sdk/sdk/lib/libwpa.a(wpa_main.o)
dhcp_cleanup                                      /opt/Espressif/esp-open-sdk/sdk/lib/liblwip.a(dhcp.o)
dhcp_coarse_tmr                                   /opt/Espressif/esp-open-sdk/sdk/lib/liblwip.a(dhcp.o)
                                                  /opt/Espressif/esp-open-sdk/sdk/lib/liblwip.a(timers.o)
dhcp_fine_tmr                                     /opt/Espressif/esp-open-sdk/sdk/lib/liblwip.a(dhcp.o)
                                                  /opt/Espressif/esp-open-sdk/sdk/lib/liblwip.a(timers.o)
dhcp_inform                                       /opt/Espressif/esp-open-sdk/sdk/lib/liblwip.a(dhcp.o)
dhcp_network_changed                              /opt/Espressif/esp-open-sdk/sdk/lib/liblwip.a(dhcp.o)
                                                  /opt/Espressif/esp-open-sdk/sdk/lib/liblwip.a(netif.o)
dhcp_release                                      /opt/Espressif/esp-open-sdk/sdk/lib/liblwip.a(dhcp.o)
                                                  /opt/Espressif/esp-open-sdk/sdk/lib/libnet80211.a(wl_cnx.o)
dhcp_renew                                        /opt/Espressif/esp-open-sdk/sdk/lib/liblwip.a(dhcp.o)
dhcp_rx_options_given                             /opt/Espressif/esp-open-sdk/sdk/lib/liblwip.a(dhcp.o)
dhcp_rx_options_val                               /opt/Espressif/esp-open-sdk/sdk/lib/liblwip.a(dhcp.o)
dhcp_set_struct                                   /opt/Espressif/esp-open-sdk/sdk/lib/liblwip.a(dhcp.o)
dhcp_start                                        /opt/Espressif/esp-open-sdk/sdk/lib/liblwip.a(dhcp.o)
                                                  /opt/Espressif/esp-open-sdk/sdk/lib/libwpa.a(wpa_main.o)
                                                  /opt/Espressif/esp-open-sdk/sdk/lib/libmain.a(user_interface.o)
dhcp_stop                                         /opt/Espressif/esp-open-sdk/sdk/lib/liblwip.a(dhcp.o)
                                                  /opt/Espressif/esp-open-sdk/sdk/lib/libnet80211.a(wl_cnx.o)
                                                  /opt/Espressif/esp-open-sdk/sdk/lib/libmain.a(user_interface.o)
dhcpc_flag                                        /opt/Espressif/esp-open-sdk/sdk/lib/libmain.a(user_interface.o)
                                                  /opt/Espressif/esp-open-sdk/sdk/lib/libwpa.a(wpa_main.o)
dhcps_coarse_tmr                                  /opt/Espressif/esp-open-sdk/sdk/lib/liblwip.a(dhcpserver.o)
                                                  /opt/Espressif/esp-open-sdk/sdk/lib/liblwip.a(timers.o)
dhcps_flag                                        /opt/Espressif/esp-open-sdk/sdk/lib/libmain.a(user_interface.o)
                                                  /opt/Espressif/esp-open-sdk/sdk/lib/libmain.a(eagle_lwip_if.o)
dhcps_start                                       /opt/Espressif/esp-open-sdk/sdk/lib/liblwip.a(dhcpserver.o)
                                                  /opt/Espressif/esp-open-sdk/sdk/lib/libmain.a(eagle_lwip_if.o)
                                                  /opt/Espressif/esp-open-sdk/sdk/lib/libmain.a(user_interface.o)
dhcps_stop                                        /opt/Espressif/esp-open-sdk/sdk/lib/liblwip.a(dhcpserver.o)
                                                  /opt/Espressif/esp-open-sdk/sdk/lib/libmain.a(eagle_lwip_if.o)
                                                  /opt/Espressif/esp-open-sdk/sdk/lib/libmain.a(user_interface.o)
disable_timers                                    build/app_app.a(timer_hal.o)
                                                  build/app_app.a(timer.o)
display_ts                                        build/app_app.a(timer.o)
divide                                            /opt/Espressif/esp-open-sdk/sdk/lib/libmain.a(eagle_lib.o)
dns_gethostbyname                                 /opt/Espressif/esp-open-sdk/sdk/lib/liblwip.a(dns.o)
                                                  /opt/Espressif/esp-open-sdk/sdk/lib/liblwip.a(espconn.o)
                                                  /opt/Espressif/esp-open-sdk/sdk/lib/liblwip.a(sntp.o)
dns_getserver                                     /opt/Espressif/esp-open-sdk/sdk/lib/liblwip.a(dns.o)
dns_init                                          /opt/Espressif/esp-open-sdk/sdk/lib/liblwip.a(dns.o)
                                                  /opt/Espressif/esp-open-sdk/sdk/lib/liblwip.a(init.o)
dns_setserver                                     /opt/Espressif/esp-open-sdk/sdk/lib/liblwip.a(dns.o)
                                                  /opt/Espressif/esp-open-sdk/sdk/lib/liblwip.a(espconn.o)
                                                  /opt/Espressif/esp-open-sdk/sdk/lib/liblwip.a(dhcp.o)
dns_tmr                                           /opt/Espressif/esp-open-sdk/sdk/lib/liblwip.a(dns.o)
                                                  /opt/Espressif/esp-open-sdk/sdk/lib/liblwip.a(timers.o)
do_noisefloor                                     /opt/Espressif/esp-open-sdk/sdk/lib/libphy.a(phy_chip_v6.o)
do_noisefloor_lsleep_v50                          /opt/Espressif/esp-open-sdk/sdk/lib/libphy.a(phy_chip_v6.o)
do_pwctrl_flag                                    /opt/Espressif/esp-open-sdk/sdk/lib/libphy.a(phy_chip_v6.o)
                                                  /opt/Espressif/esp-open-sdk/sdk/lib/libphy.a(phy_sleep.o)
done_cb                                           /opt/Espressif/esp-open-sdk/sdk/lib/libmain.a(user_interface.o)
                                                  /opt/Espressif/esp-open-sdk/sdk/lib/libmain.a(app_main.o)
dpd_bypass_original                               /opt/Espressif/esp-open-sdk/sdk/lib/libphy.a(phy_chip_v6.o)
dpd_mem_write                                     /opt/Espressif/esp-open-sdk/sdk/lib/libphy.a(phy_chip_v6_cal.o)
dpd_scale_set                                     /opt/Espressif/esp-open-sdk/sdk/lib/libphy.a(phy_chip_v6_cal.o)
                                                  /opt/Espressif/esp-open-sdk/sdk/lib/libphy.a(phy_chip_v6.o)
eagle_auth_done                                   /opt/Espressif/esp-open-sdk/sdk/lib/libwpa.a(wpa_main.o)
                                                  /opt/Espressif/esp-open-sdk/sdk/lib/libnet80211.a(ieee80211_sta.o)
eagle_lwip_getif                                  /opt/Espressif/esp-open-sdk/sdk/lib/libmain.a(eagle_lwip_if.o)
                                                  /opt/Espressif/esp-open-sdk/sdk/lib/liblwip.a(ip.o)
                                                  /opt/Espressif/esp-open-sdk/sdk/lib/liblwip.a(dhcpserver.o)
                                                  /opt/Espressif/esp-open-sdk/sdk/lib/libmain.a(user_interface.o)
eagle_lwip_if_alloc                               /opt/Espressif/esp-open-sdk/sdk/lib/libmain.a(eagle_lwip_if.o)
                                                  /opt/Espressif/esp-open-sdk/sdk/lib/libnet80211.a(ieee80211_sta.o)
                                                  /opt/Espressif/esp-open-sdk/sdk/lib/libnet80211.a(ieee80211_hostap.o)
eagle_lwip_if_free                                /opt/Espressif/esp-open-sdk/sdk/lib/libmain.a(eagle_lwip_if.o)
                                                  /opt/Espressif/esp-open-sdk/sdk/lib/libnet80211.a(ieee80211_hostap.o)
                                                  /opt/Espressif/esp-open-sdk/sdk/lib/libmain.a(user_interface.o)
eapol_txcb                                        /opt/Espressif/esp-open-sdk/sdk/lib/libwpa.a(wpa.o)
                                                  /opt/Espressif/esp-open-sdk/sdk/lib/libwpa.a(wpa_main.o)
eloop_cancel_timeout                              /opt/Espressif/esp-open-sdk/sdk/lib/libwpa.a(wpa_debug.o)
                                                  /opt/Espressif/esp-open-sdk/sdk/lib/libwpa.a(wpa.o)
                                                  /opt/Espressif/esp-open-sdk/sdk/lib/libwpa.a(wpa_auth.o)
eloop_register_timeout                            /opt/Espressif/esp-open-sdk/sdk/lib/libwpa.a(wpa_debug.o)
                                                  /opt/Espressif/esp-open-sdk/sdk/lib/libwpa.a(wpa.o)
                                                  /opt/Espressif/esp-open-sdk/sdk/lib/libwpa.a(wpa_auth.o)
enable_timers                                     build/app_app.a(timer_hal.o)
                                                  build/app_app.a(timer.o)
esf_buf_alloc                                     /opt/Espressif/esp-open-sdk/sdk/lib/libpp.a(esf_buf.o)
                                                  /opt/Espressif/esp-open-sdk/sdk/lib/libnet80211.a(ieee80211_output.o)
                                                  /opt/Espressif/esp-open-sdk/sdk/lib/libnet80211.a(ieee80211_ets.o)
esf_buf_recycle                                   /opt/Espressif/esp-open-sdk/sdk/lib/libpp.a(esf_buf.o)
                                                  /opt/Espressif/esp-open-sdk/sdk/lib/libnet80211.a(ieee80211_power.o)
                                                  /opt/Espressif/esp-open-sdk/sdk/lib/libnet80211.a(ieee80211_output.o)
                                                  /opt/Espressif/esp-open-sdk/sdk/lib/libnet80211.a(ieee80211_hostap.o)
                                                  /opt/Espressif/esp-open-sdk/sdk/lib/libpp.a(pp.o)
esf_buf_setup                                     /opt/Espressif/esp-open-sdk/sdk/lib/libpp.a(esf_buf.o)
                                                  /opt/Espressif/esp-open-sdk/sdk/lib/libpp.a(pp.o)
esf_rx_buf_alloc                                  /opt/Espressif/esp-open-sdk/sdk/lib/libpp.a(esf_buf.o)
                                                  /opt/Espressif/esp-open-sdk/sdk/lib/libpp.a(wdev.o)
espconn_TaskQueue                                 /opt/Espressif/esp-open-sdk/sdk/lib/liblwip.a(espconn_tcp.o)
espconn_accept                                    /opt/Espressif/esp-open-sdk/sdk/lib/liblwip.a(espconn.o)
espconn_clear_opt                                 /opt/Espressif/esp-open-sdk/sdk/lib/liblwip.a(espconn.o)
espconn_connect                                   /opt/Espressif/esp-open-sdk/sdk/lib/liblwip.a(espconn.o)
espconn_copy_partial                              /opt/Espressif/esp-open-sdk/sdk/lib/liblwip.a(espconn.o)
                                                  /opt/Espressif/esp-open-sdk/sdk/lib/liblwip.a(espconn_tcp.o)
espconn_create                                    /opt/Espressif/esp-open-sdk/sdk/lib/liblwip.a(espconn.o)
espconn_delete                                    /opt/Espressif/esp-open-sdk/sdk/lib/liblwip.a(espconn.o)
espconn_disconnect                                /opt/Espressif/esp-open-sdk/sdk/lib/liblwip.a(espconn.o)
espconn_dns_setserver                             /opt/Espressif/esp-open-sdk/sdk/lib/liblwip.a(espconn.o)
espconn_find_connection                           /opt/Espressif/esp-open-sdk/sdk/lib/liblwip.a(espconn.o)
                                                  /opt/Espressif/esp-open-sdk/sdk/lib/liblwip.a(espconn_tcp.o)
espconn_find_current_pcb                          /opt/Espressif/esp-open-sdk/sdk/lib/liblwip.a(espconn_tcp.o)
espconn_get_connection_info                       /opt/Espressif/esp-open-sdk/sdk/lib/liblwip.a(espconn.o)
                                                  /opt/Espressif/esp-open-sdk/sdk/lib/liblwip.a(espconn_tcp.o)
espconn_get_keepalive                             /opt/Espressif/esp-open-sdk/sdk/lib/liblwip.a(espconn.o)
espconn_get_packet_info                           /opt/Espressif/esp-open-sdk/sdk/lib/liblwip.a(espconn.o)
espconn_gethostbyname                             /opt/Espressif/esp-open-sdk/sdk/lib/liblwip.a(espconn.o)
espconn_igmp_join                                 /opt/Espressif/esp-open-sdk/sdk/lib/liblwip.a(espconn_udp.o)
espconn_igmp_leave                                /opt/Espressif/esp-open-sdk/sdk/lib/liblwip.a(espconn_udp.o)
espconn_init                                      /opt/Espressif/esp-open-sdk/sdk/lib/liblwip.a(espconn_tcp.o)
                                                  /opt/Espressif/esp-open-sdk/sdk/lib/libmain.a(app_main.o)
espconn_kill_oldest_pcb                           /opt/Espressif/esp-open-sdk/sdk/lib/liblwip.a(espconn_tcp.o)
espconn_kill_pcb                                  /opt/Espressif/esp-open-sdk/sdk/lib/liblwip.a(espconn_tcp.o)
espconn_list_creat                                /opt/Espressif/esp-open-sdk/sdk/lib/liblwip.a(espconn.o)
                                                  /opt/Espressif/esp-open-sdk/sdk/lib/liblwip.a(espconn_udp.o)
                                                  /opt/Espressif/esp-open-sdk/sdk/lib/liblwip.a(espconn_tcp.o)
espconn_list_delete                               /opt/Espressif/esp-open-sdk/sdk/lib/liblwip.a(espconn.o)
                                                  /opt/Espressif/esp-open-sdk/sdk/lib/liblwip.a(espconn_udp.o)
                                                  /opt/Espressif/esp-open-sdk/sdk/lib/liblwip.a(espconn_tcp.o)
espconn_mdns_close                                /opt/Espressif/esp-open-sdk/sdk/lib/liblwip.a(espconn_udp.o)
espconn_mdns_disable                              /opt/Espressif/esp-open-sdk/sdk/lib/liblwip.a(espconn_udp.o)
espconn_mdns_enable                               /opt/Espressif/esp-open-sdk/sdk/lib/liblwip.a(espconn_udp.o)
espconn_mdns_get_hostname                         /opt/Espressif/esp-open-sdk/sdk/lib/liblwip.a(espconn_udp.o)
espconn_mdns_get_servername                       /opt/Espressif/esp-open-sdk/sdk/lib/liblwip.a(espconn_udp.o)
espconn_mdns_init                                 /opt/Espressif/esp-open-sdk/sdk/lib/liblwip.a(espconn_udp.o)
espconn_mdns_server_register                      /opt/Espressif/esp-open-sdk/sdk/lib/liblwip.a(espconn_udp.o)
espconn_mdns_server_unregister                    /opt/Espressif/esp-open-sdk/sdk/lib/liblwip.a(espconn_udp.o)
espconn_mdns_set_hostname                         /opt/Espressif/esp-open-sdk/sdk/lib/liblwip.a(espconn_udp.o)
espconn_mdns_set_servername                       /opt/Espressif/esp-open-sdk/sdk/lib/liblwip.a(espconn_udp.o)
espconn_pbuf_create                               /opt/Espressif/esp-open-sdk/sdk/lib/liblwip.a(espconn.o)
espconn_pbuf_delete                               /opt/Espressif/esp-open-sdk/sdk/lib/liblwip.a(espconn.o)
                                                  /opt/Espressif/esp-open-sdk/sdk/lib/liblwip.a(espconn_tcp.o)
espconn_port                                      /opt/Espressif/esp-open-sdk/sdk/lib/liblwip.a(espconn.o)
espconn_recv_hold                                 /opt/Espressif/esp-open-sdk/sdk/lib/liblwip.a(espconn_tcp.o)
espconn_recv_unhold                               /opt/Espressif/esp-open-sdk/sdk/lib/liblwip.a(espconn_tcp.o)
espconn_regist_connectcb                          /opt/Espressif/esp-open-sdk/sdk/lib/liblwip.a(espconn.o)
espconn_regist_disconcb                           /opt/Espressif/esp-open-sdk/sdk/lib/liblwip.a(espconn.o)
espconn_regist_reconcb                            /opt/Espressif/esp-open-sdk/sdk/lib/liblwip.a(espconn.o)
espconn_regist_recvcb                             /opt/Espressif/esp-open-sdk/sdk/lib/liblwip.a(espconn.o)
espconn_regist_sentcb                             /opt/Espressif/esp-open-sdk/sdk/lib/liblwip.a(espconn.o)
espconn_regist_time                               /opt/Espressif/esp-open-sdk/sdk/lib/liblwip.a(espconn.o)
espconn_regist_write_finish                       /opt/Espressif/esp-open-sdk/sdk/lib/liblwip.a(espconn.o)
espconn_sent                                      /opt/Espressif/esp-open-sdk/sdk/lib/liblwip.a(espconn.o)
espconn_set_keepalive                             /opt/Espressif/esp-open-sdk/sdk/lib/liblwip.a(espconn.o)
espconn_set_opt                                   /opt/Espressif/esp-open-sdk/sdk/lib/liblwip.a(espconn.o)
espconn_tcp_client                                /opt/Espressif/esp-open-sdk/sdk/lib/liblwip.a(espconn_tcp.o)
                                                  /opt/Espressif/esp-open-sdk/sdk/lib/liblwip.a(espconn.o)
espconn_tcp_delete                                /opt/Espressif/esp-open-sdk/sdk/lib/liblwip.a(espconn_tcp.o)
                                                  /opt/Espressif/esp-open-sdk/sdk/lib/liblwip.a(espconn.o)
espconn_tcp_disconnect                            /opt/Espressif/esp-open-sdk/sdk/lib/liblwip.a(espconn_tcp.o)
                                                  /opt/Espressif/esp-open-sdk/sdk/lib/liblwip.a(espconn.o)
espconn_tcp_get_max_con                           /opt/Espressif/esp-open-sdk/sdk/lib/liblwip.a(espconn.o)
espconn_tcp_get_max_con_allow                     /opt/Espressif/esp-open-sdk/sdk/lib/liblwip.a(espconn.o)
                                                  /opt/Espressif/esp-open-sdk/sdk/lib/liblwip.a(espconn_tcp.o)
espconn_tcp_get_mss                               /opt/Espressif/esp-open-sdk/sdk/lib/liblwip.a(espconn.o)
espconn_tcp_get_wnd                               /opt/Espressif/esp-open-sdk/sdk/lib/liblwip.a(espconn.o)
espconn_tcp_sent                                  /opt/Espressif/esp-open-sdk/sdk/lib/liblwip.a(espconn_tcp.o)
espconn_tcp_server                                /opt/Espressif/esp-open-sdk/sdk/lib/liblwip.a(espconn_tcp.o)
                                                  /opt/Espressif/esp-open-sdk/sdk/lib/liblwip.a(espconn.o)
espconn_tcp_set_max_con                           /opt/Espressif/esp-open-sdk/sdk/lib/liblwip.a(espconn.o)
espconn_tcp_set_max_con_allow                     /opt/Espressif/esp-open-sdk/sdk/lib/liblwip.a(espconn.o)
espconn_tcp_set_wnd                               /opt/Espressif/esp-open-sdk/sdk/lib/liblwip.a(espconn.o)
espconn_tcp_write                                 /opt/Espressif/esp-open-sdk/sdk/lib/liblwip.a(espconn_tcp.o)
                                                  /opt/Espressif/esp-open-sdk/sdk/lib/liblwip.a(espconn.o)
espconn_udp_disconnect                            /opt/Espressif/esp-open-sdk/sdk/lib/liblwip.a(espconn_udp.o)
                                                  /opt/Espressif/esp-open-sdk/sdk/lib/liblwip.a(espconn.o)
espconn_udp_sent                                  /opt/Espressif/esp-open-sdk/sdk/lib/liblwip.a(espconn_udp.o)
                                                  /opt/Espressif/esp-open-sdk/sdk/lib/liblwip.a(espconn.o)
espconn_udp_server                                /opt/Espressif/esp-open-sdk/sdk/lib/liblwip.a(espconn_udp.o)
                                                  /opt/Espressif/esp-open-sdk/sdk/lib/liblwip.a(espconn.o)
etharp_cleanup_netif                              /opt/Espressif/esp-open-sdk/sdk/lib/liblwip.a(etharp.o)
                                                  /opt/Espressif/esp-open-sdk/sdk/lib/liblwip.a(netif.o)
etharp_find_addr                                  /opt/Espressif/esp-open-sdk/sdk/lib/liblwip.a(etharp.o)
etharp_output                                     /opt/Espressif/esp-open-sdk/sdk/lib/liblwip.a(etharp.o)
                                                  /opt/Espressif/esp-open-sdk/sdk/lib/libmain.a(eagle_lwip_if.o)
etharp_query                                      /opt/Espressif/esp-open-sdk/sdk/lib/liblwip.a(etharp.o)
                                                  /opt/Espressif/esp-open-sdk/sdk/lib/liblwip.a(dhcp.o)
etharp_request                                    /opt/Espressif/esp-open-sdk/sdk/lib/liblwip.a(etharp.o)
                                                  /opt/Espressif/esp-open-sdk/sdk/lib/liblwip.a(netif.o)
etharp_tmr                                        /opt/Espressif/esp-open-sdk/sdk/lib/liblwip.a(etharp.o)
                                                  /opt/Espressif/esp-open-sdk/sdk/lib/liblwip.a(timers.o)
ethbroadcast                                      /opt/Espressif/esp-open-sdk/sdk/lib/liblwip.a(etharp.o)
ethernet_input                                    /opt/Espressif/esp-open-sdk/sdk/lib/liblwip.a(etharp.o)
                                                  /opt/Espressif/esp-open-sdk/sdk/lib/libmain.a(eagle_lwip_if.o)
ethzero                                           /opt/Espressif/esp-open-sdk/sdk/lib/liblwip.a(etharp.o)
ets_bzero                                         /opt/Espressif/esp-open-sdk/sdk/lib/libwpa.a(wpa_main.o)
                                                  /opt/Espressif/esp-open-sdk/sdk/lib/libwpa.a(wpa.o)
                                                  /opt/Espressif/esp-open-sdk/sdk/lib/libwpa.a(wpa_auth.o)
                                                  /opt/Espressif/esp-open-sdk/sdk/lib/libwpa.a(ap_config.o)
                                                  /opt/Espressif/esp-open-sdk/sdk/lib/liblwip.a(espconn_tcp.o)
                                                  /opt/Espressif/esp-open-sdk/sdk/lib/liblwip.a(dhcpserver.o)
                                                  /opt/Espressif/esp-open-sdk/sdk/lib/libnet80211.a(wl_cnx.o)
                                                  /opt/Espressif/esp-open-sdk/sdk/lib/libnet80211.a(wl_chm.o)
                                                  /opt/Espressif/esp-open-sdk/sdk/lib/libnet80211.a(ieee80211_sta.o)
                                                  /opt/Espressif/esp-open-sdk/sdk/lib/libnet80211.a(ieee80211_scan.o)
                                                  /opt/Espressif/esp-open-sdk/sdk/lib/libnet80211.a(ieee80211_input.o)
                                                  /opt/Espressif/esp-open-sdk/sdk/lib/libpp.a(trc.o)
                                                  /opt/Espressif/esp-open-sdk/sdk/lib/libpp.a(pm.o)
                                                  /opt/Espressif/esp-open-sdk/sdk/lib/libmain.a(user_interface.o)
                                                  /opt/Espressif/esp-open-sdk/sdk/lib/libmain.a(app_main.o)
ets_delay_us                                      /opt/Espressif/esp-open-sdk/sdk/lib/libwpa.a(wpa.o)
                                                  /opt/Espressif/esp-open-sdk/sdk/lib/libnet80211.a(ieee80211_hostap.o)
                                                  /opt/Espressif/esp-open-sdk/sdk/lib/libpp.a(wdev.o)
                                                  /opt/Espressif/esp-open-sdk/sdk/lib/libphy.a(phy_sleep.o)
                                                  /opt/Espressif/esp-open-sdk/sdk/lib/libphy.a(phy_chip_v6_cal.o)
                                                  /opt/Espressif/esp-open-sdk/sdk/lib/libphy.a(phy_chip_v6.o)
                                                  /opt/Espressif/esp-open-sdk/sdk/lib/libphy.a(phy_chip_v6_ana.o)
                                                  build/app_app.a(ili9341_adafruit.o)
                                                  build/app_app.a(ili9341.o)
                                                  build/app_app.a(user_main.o)
                                                  /opt/Espressif/esp-open-sdk/sdk/lib/libmain.a(user_interface.o)
ets_get_cpu_frequency                             /opt/Espressif/esp-open-sdk/sdk/lib/libmain.a(user_interface.o)
ets_install_putc1                                 build/app_app.a(uart.o)
                                                  /opt/Espressif/esp-open-sdk/sdk/lib/libmain.a(app_main.o)
ets_intr_lock                                     /opt/Espressif/esp-open-sdk/sdk/lib/libnet80211.a(wl_cnx.o)
                                                  /opt/Espressif/esp-open-sdk/sdk/lib/libnet80211.a(wl_chm.o)
                                                  /opt/Espressif/esp-open-sdk/sdk/lib/libnet80211.a(ieee80211_scan.o)
                                                  /opt/Espressif/esp-open-sdk/sdk/lib/libnet80211.a(ieee80211_hostap.o)
                                                  /opt/Espressif/esp-open-sdk/sdk/lib/libpp.a(esf_buf.o)
                                                  /opt/Espressif/esp-open-sdk/sdk/lib/libpp.a(wdev.o)
                                                  /opt/Espressif/esp-open-sdk/sdk/lib/libpp.a(pp.o)
                                                  /opt/Espressif/esp-open-sdk/sdk/lib/libpp.a(pm_for_bcn_only_mode.o)
                                                  /opt/Espressif/esp-open-sdk/sdk/lib/libpp.a(pm.o)
                                                  /opt/Espressif/esp-open-sdk/sdk/lib/libpp.a(lmac.o)
                                                  /opt/Espressif/esp-open-sdk/sdk/lib/libpp.a(if_hwctrl.o)
                                                  /opt/Espressif/esp-open-sdk/sdk/lib/libmain.a(user_interface.o)
                                                  /opt/Espressif/esp-open-sdk/sdk/lib/libmain.a(mem_manager.o)
                                                  /opt/Espressif/esp-open-sdk/sdk/lib/libmain.a(ets_timer.o)
ets_intr_unlock                                   /opt/Espressif/esp-open-sdk/sdk/lib/libnet80211.a(wl_cnx.o)
                                                  /opt/Espressif/esp-open-sdk/sdk/lib/libnet80211.a(wl_chm.o)
                                                  /opt/Espressif/esp-open-sdk/sdk/lib/libnet80211.a(ieee80211_scan.o)
                                                  /opt/Espressif/esp-open-sdk/sdk/lib/libnet80211.a(ieee80211_hostap.o)
                                                  /opt/Espressif/esp-open-sdk/sdk/lib/libpp.a(esf_buf.o)
                                                  /opt/Espressif/esp-open-sdk/sdk/lib/libpp.a(wdev.o)
                                                  /opt/Espressif/esp-open-sdk/sdk/lib/libpp.a(pp.o)
                                                  /opt/Espressif/esp-open-sdk/sdk/lib/libpp.a(pm_for_bcn_only_mode.o)
                                                  /opt/Espressif/esp-open-sdk/sdk/lib/libpp.a(pm.o)
                                                  /opt/Espressif/esp-open-sdk/sdk/lib/libpp.a(lmac.o)
                                                  /opt/Espressif/esp-open-sdk/sdk/lib/libpp.a(if_hwctrl.o)
                                                  /opt/Espressif/esp-open-sdk/sdk/lib/libmain.a(user_interface.o)
                                                  /opt/Espressif/esp-open-sdk/sdk/lib/libmain.a(mem_manager.o)
                                                  /opt/Espressif/esp-open-sdk/sdk/lib/libmain.a(ets_timer.o)
ets_isr_attach                                    build/app_app.a(uart.o)
                                                  /opt/Espressif/esp-open-sdk/sdk/lib/libmain.a(ets_timer.o)
                                                  /opt/Espressif/esp-open-sdk/sdk/lib/libmain.a(app_main.o)
ets_isr_mask                                      build/app_app.a(uart.o)
                                                  /opt/Espressif/esp-open-sdk/sdk/lib/libmain.a(user_interface.o)
ets_isr_unmask                                    build/app_app.a(uart.o)
                                                  /opt/Espressif/esp-open-sdk/sdk/lib/libmain.a(ets_timer.o)
                                                  /opt/Espressif/esp-open-sdk/sdk/lib/libmain.a(app_main.o)
ets_memcmp                                        /opt/Espressif/esp-open-sdk/sdk/lib/libwpa.a(wpa_common.o)
                                                  /opt/Espressif/esp-open-sdk/sdk/lib/libwpa.a(wpa.o)
                                                  /opt/Espressif/esp-open-sdk/sdk/lib/libwpa.a(wpa_auth.o)
                                                  /opt/Espressif/esp-open-sdk/sdk/lib/libwpa.a(ap_config.o)
                                                  /opt/Espressif/esp-open-sdk/sdk/lib/liblwip.a(dhcpserver.o)
                                                  /opt/Espressif/esp-open-sdk/sdk/lib/libnet80211.a(wl_cnx.o)
                                                  /opt/Espressif/esp-open-sdk/sdk/lib/libnet80211.a(ieee80211_sta.o)
                                                  /opt/Espressif/esp-open-sdk/sdk/lib/libnet80211.a(ieee80211_scan.o)
                                                  /opt/Espressif/esp-open-sdk/sdk/lib/libnet80211.a(ieee80211_input.o)
                                                  /opt/Espressif/esp-open-sdk/sdk/lib/libnet80211.a(ieee80211_hostap.o)
                                                  /opt/Espressif/esp-open-sdk/sdk/lib/libpp.a(trc.o)
                                                  /opt/Espressif/esp-open-sdk/sdk/lib/libpp.a(pp.o)
                                                  /opt/Espressif/esp-open-sdk/sdk/lib/libpp.a(pm.o)
                                                  /opt/Espressif/esp-open-sdk/sdk/lib/libmain.a(user_interface.o)
ets_memcpy                                        /opt/Espressif/esp-open-sdk/sdk/lib/libwpa.a(aes-wrap.o)
                                                  /opt/Espressif/esp-open-sdk/sdk/lib/libwpa.a(wpas_glue.o)
                                                  /opt/Espressif/esp-open-sdk/sdk/lib/libwpa.a(wpa_main.o)
                                                  /opt/Espressif/esp-open-sdk/sdk/lib/libwpa.a(wpa_common.o)
                                                  /opt/Espressif/esp-open-sdk/sdk/lib/libwpa.a(wpa.o)
                                                  /opt/Espressif/esp-open-sdk/sdk/lib/libwpa.a(wpa_auth_ie.o)
                                                  /opt/Espressif/esp-open-sdk/sdk/lib/libwpa.a(wpa_auth.o)
                                                  /opt/Espressif/esp-open-sdk/sdk/lib/libwpa.a(os_xtensa.o)
                                                  /opt/Espressif/esp-open-sdk/sdk/lib/libwpa.a(common.o)
                                                  /opt/Espressif/esp-open-sdk/sdk/lib/libwpa.a(ap_config.o)
                                                  /opt/Espressif/esp-open-sdk/sdk/lib/liblwip.a(mdns.o)
                                                  /opt/Espressif/esp-open-sdk/sdk/lib/liblwip.a(icmp.o)
                                                  /opt/Espressif/esp-open-sdk/sdk/lib/liblwip.a(espconn_udp.o)
                                                  /opt/Espressif/esp-open-sdk/sdk/lib/liblwip.a(espconn.o)
                                                  /opt/Espressif/esp-open-sdk/sdk/lib/liblwip.a(tcp_out.o)
                                                  /opt/Espressif/esp-open-sdk/sdk/lib/liblwip.a(pbuf.o)
                                                  /opt/Espressif/esp-open-sdk/sdk/lib/liblwip.a(ip.o)
                                                  /opt/Espressif/esp-open-sdk/sdk/lib/liblwip.a(etharp.o)
                                                  /opt/Espressif/esp-open-sdk/sdk/lib/liblwip.a(espconn_tcp.o)
                                                  /opt/Espressif/esp-open-sdk/sdk/lib/liblwip.a(dns.o)
                                                  /opt/Espressif/esp-open-sdk/sdk/lib/liblwip.a(dhcpserver.o)
                                                  /opt/Espressif/esp-open-sdk/sdk/lib/libnet80211.a(ieee80211_ie_vendor.o)
                                                  /opt/Espressif/esp-open-sdk/sdk/lib/libnet80211.a(ieee80211_action_vendor.o)
                                                  /opt/Espressif/esp-open-sdk/sdk/lib/libnet80211.a(wl_cnx.o)
                                                  /opt/Espressif/esp-open-sdk/sdk/lib/libnet80211.a(ieee80211_sta.o)
                                                  /opt/Espressif/esp-open-sdk/sdk/lib/libnet80211.a(ieee80211_scan.o)
                                                  /opt/Espressif/esp-open-sdk/sdk/lib/libnet80211.a(ieee80211_proto.o)
                                                  /opt/Espressif/esp-open-sdk/sdk/lib/libnet80211.a(ieee80211_output.o)
                                                  /opt/Espressif/esp-open-sdk/sdk/lib/libnet80211.a(ieee80211_input.o)
                                                  /opt/Espressif/esp-open-sdk/sdk/lib/libnet80211.a(ieee80211_hostap.o)
                                                  /opt/Espressif/esp-open-sdk/sdk/lib/libnet80211.a(ieee80211.o)
                                                  /opt/Espressif/esp-open-sdk/sdk/lib/libpp.a(wdev.o)
                                                  /opt/Espressif/esp-open-sdk/sdk/lib/libpp.a(trc.o)
                                                  /opt/Espressif/esp-open-sdk/sdk/lib/libpp.a(pm.o)
                                                  /opt/Espressif/esp-open-sdk/sdk/lib/libpp.a(if_hwctrl.o)
                                                  /opt/Espressif/esp-open-sdk/sdk/lib/libmain.a(eagle_lwip_if.o)
                                                  /opt/Espressif/esp-open-sdk/sdk/lib/libmain.a(user_interface.o)
                                                  /opt/Espressif/esp-open-sdk/sdk/lib/libmain.a(mem_manager.o)
                                                  /opt/Espressif/esp-open-sdk/sdk/lib/libmain.a(app_main.o)
ets_memset                                        /opt/Espressif/esp-open-sdk/sdk/lib/libwpa.a(aes-internal-enc.o)
                                                  /opt/Espressif/esp-open-sdk/sdk/lib/libwpa.a(aes-wrap.o)
                                                  /opt/Espressif/esp-open-sdk/sdk/lib/libwpa.a(wpas_glue.o)
                                                  /opt/Espressif/esp-open-sdk/sdk/lib/libwpa.a(wpa_ie.o)
                                                  /opt/Espressif/esp-open-sdk/sdk/lib/libwpa.a(wpa_common.o)
                                                  /opt/Espressif/esp-open-sdk/sdk/lib/libwpa.a(wpa.o)
                                                  /opt/Espressif/esp-open-sdk/sdk/lib/libwpa.a(wpa_auth_ie.o)
                                                  /opt/Espressif/esp-open-sdk/sdk/lib/libwpa.a(wpa_auth.o)
                                                  /opt/Espressif/esp-open-sdk/sdk/lib/liblwip.a(mdns.o)
                                                  /opt/Espressif/esp-open-sdk/sdk/lib/liblwip.a(espconn.o)
                                                  /opt/Espressif/esp-open-sdk/sdk/lib/liblwip.a(udp.o)
                                                  /opt/Espressif/esp-open-sdk/sdk/lib/liblwip.a(tcp.o)
                                                  /opt/Espressif/esp-open-sdk/sdk/lib/liblwip.a(sntp.o)
                                                  /opt/Espressif/esp-open-sdk/sdk/lib/liblwip.a(raw.o)
                                                  /opt/Espressif/esp-open-sdk/sdk/lib/liblwip.a(ip.o)
                                                  /opt/Espressif/esp-open-sdk/sdk/lib/liblwip.a(dns.o)
                                                  /opt/Espressif/esp-open-sdk/sdk/lib/liblwip.a(dhcpserver.o)
                                                  /opt/Espressif/esp-open-sdk/sdk/lib/liblwip.a(dhcp.o)
                                                  /opt/Espressif/esp-open-sdk/sdk/lib/libnet80211.a(wl_cnx.o)
                                                  /opt/Espressif/esp-open-sdk/sdk/lib/libnet80211.a(ieee80211_power.o)
                                                  /opt/Espressif/esp-open-sdk/sdk/lib/libnet80211.a(ieee80211_output.o)
                                                  /opt/Espressif/esp-open-sdk/sdk/lib/libnet80211.a(ieee80211_input.o)
                                                  /opt/Espressif/esp-open-sdk/sdk/lib/libnet80211.a(ieee80211_ht.o)
                                                  /opt/Espressif/esp-open-sdk/sdk/lib/libpp.a(esf_buf.o)
                                                  build/app_app.a(network.o)
                                                  /opt/Espressif/esp-open-sdk/sdk/lib/libmain.a(user_interface.o)
                                                  /opt/Espressif/esp-open-sdk/sdk/lib/libmain.a(mem_manager.o)
                                                  /opt/Espressif/esp-open-sdk/sdk/lib/libmain.a(app_main.o)
ets_post                                          /opt/Espressif/esp-open-sdk/sdk/lib/liblwip.a(espconn_tcp.o)
                                                  /opt/Espressif/esp-open-sdk/sdk/lib/libnet80211.a(ieee80211_input.o)
                                                  /opt/Espressif/esp-open-sdk/sdk/lib/libnet80211.a(ieee80211_hostap.o)
                                                  /opt/Espressif/esp-open-sdk/sdk/lib/libpp.a(pp.o)
                                                  /opt/Espressif/esp-open-sdk/sdk/lib/libpp.a(pm.o)
                                                  /opt/Espressif/esp-open-sdk/sdk/lib/libpp.a(lmac.o)
                                                  /opt/Espressif/esp-open-sdk/sdk/lib/libmain.a(user_interface.o)
                                                  /opt/Espressif/esp-open-sdk/sdk/lib/libmain.a(ets_timer.o)
ets_printf                                        /opt/Espressif/esp-open-sdk/sdk/lib/libnet80211.a(ieee80211_scan.o)
                                                  /opt/Espressif/esp-open-sdk/sdk/lib/libpp.a(wdev.o)
                                                  /opt/Espressif/esp-open-sdk/sdk/lib/libpp.a(pp.o)
                                                  /opt/Espressif/esp-open-sdk/sdk/lib/libpp.a(pm.o)
                                                  /opt/Espressif/esp-open-sdk/sdk/lib/libpp.a(lmac.o)
                                                  /opt/Espressif/esp-open-sdk/sdk/lib/libmain.a(mem_manager.o)
                                                  /opt/Espressif/esp-open-sdk/sdk/lib/libmain.a(ets_timer.o)
                                                  /opt/Espressif/esp-open-sdk/sdk/lib/libmain.a(app_main.o)
ets_run                                           /opt/Espressif/esp-open-sdk/sdk/lib/libmain.a(app_main.o)
ets_set_idle_cb                                   /opt/Espressif/esp-open-sdk/sdk/lib/libpp.a(pm_for_bcn_only_mode.o)
                                                  /opt/Espressif/esp-open-sdk/sdk/lib/libpp.a(pm.o)
ets_sprintf                                       /opt/Espressif/esp-open-sdk/sdk/lib/libmain.a(eagle_lib.o)
                                                  /opt/Espressif/esp-open-sdk/sdk/lib/liblwip.a(mdns.o)
                                                  /opt/Espressif/esp-open-sdk/sdk/lib/liblwip.a(sntp.o)
                                                  build/app_app.a(network.o)
                                                  /opt/Espressif/esp-open-sdk/sdk/lib/libmain.a(user_interface.o)
ets_strcat                                        /opt/Espressif/esp-open-sdk/sdk/lib/libmain.a(eagle_lib.o)
                                                  /opt/Espressif/esp-open-sdk/sdk/lib/liblwip.a(mdns.o)
ets_strchr                                        /opt/Espressif/esp-open-sdk/sdk/lib/libmain.a(eagle_lib.o)
ets_strcpy                                        /opt/Espressif/esp-open-sdk/sdk/lib/liblwip.a(mdns.o)
                                                  /opt/Espressif/esp-open-sdk/sdk/lib/libmain.a(user_interface.o)
ets_strdup                                        /opt/Espressif/esp-open-sdk/sdk/lib/libwpa.a(os_xtensa.o)
ets_strlen                                        /opt/Espressif/esp-open-sdk/sdk/lib/libwpa.a(wpa.o)
                                                  /opt/Espressif/esp-open-sdk/sdk/lib/libwpa.a(os_xtensa.o)
                                                  /opt/Espressif/esp-open-sdk/sdk/lib/libwpa.a(common.o)
                                                  /opt/Espressif/esp-open-sdk/sdk/lib/libwpa.a(ap_config.o)
                                                  /opt/Espressif/esp-open-sdk/sdk/lib/liblwip.a(mdns.o)
                                                  /opt/Espressif/esp-open-sdk/sdk/lib/liblwip.a(pbuf.o)
                                                  /opt/Espressif/esp-open-sdk/sdk/lib/liblwip.a(dns.o)
                                                  /opt/Espressif/esp-open-sdk/sdk/lib/liblwip.a(dhcp.o)
                                                  /opt/Espressif/esp-open-sdk/sdk/lib/libnet80211.a(wl_cnx.o)
                                                  /opt/Espressif/esp-open-sdk/sdk/lib/libnet80211.a(ieee80211_scan.o)
                                                  /opt/Espressif/esp-open-sdk/sdk/lib/libnet80211.a(ieee80211_hostap.o)
                                                  /opt/Espressif/esp-open-sdk/sdk/lib/libmain.a(eagle_lib.o)
                                                  /opt/Espressif/esp-open-sdk/sdk/lib/libmain.a(user_interface.o)
ets_strncmp                                       /opt/Espressif/esp-open-sdk/sdk/lib/libnet80211.a(ieee80211_scan.o)
                                                  /opt/Espressif/esp-open-sdk/sdk/lib/libmain.a(user_interface.o)
ets_strncpy                                       /opt/Espressif/esp-open-sdk/sdk/lib/liblwip.a(mdns.o)
                                                  /opt/Espressif/esp-open-sdk/sdk/lib/libnet80211.a(ieee80211_scan.o)
ets_strrchr                                       /opt/Espressif/esp-open-sdk/sdk/lib/libmain.a(eagle_lib.o)
                                                  /opt/Espressif/esp-open-sdk/sdk/lib/libwpa.a(common.o)
ets_task                                          /opt/Espressif/esp-open-sdk/sdk/lib/liblwip.a(espconn_tcp.o)
                                                  /opt/Espressif/esp-open-sdk/sdk/lib/libpp.a(pp.o)
                                                  /opt/Espressif/esp-open-sdk/sdk/lib/libpp.a(pm.o)
                                                  /opt/Espressif/esp-open-sdk/sdk/lib/libmain.a(eagle_lwip_if.o)
                                                  /opt/Espressif/esp-open-sdk/sdk/lib/libmain.a(user_interface.o)
                                                  /opt/Espressif/esp-open-sdk/sdk/lib/libmain.a(ets_timer.o)
ets_timer_arm_new                                 /opt/Espressif/esp-open-sdk/sdk/lib/libmain.a(ets_timer.o)
                                                  /opt/Espressif/esp-open-sdk/sdk/lib/libwpa.a(wpa_main.o)
                                                  /opt/Espressif/esp-open-sdk/sdk/lib/libwpa.a(wpa.o)
                                                  /opt/Espressif/esp-open-sdk/sdk/lib/liblwip.a(mdns.o)
                                                  /opt/Espressif/esp-open-sdk/sdk/lib/liblwip.a(sntp.o)
                                                  /opt/Espressif/esp-open-sdk/sdk/lib/libnet80211.a(wl_cnx.o)
                                                  /opt/Espressif/esp-open-sdk/sdk/lib/libnet80211.a(wl_chm.o)
                                                  /opt/Espressif/esp-open-sdk/sdk/lib/libnet80211.a(ieee80211_sta.o)
                                                  /opt/Espressif/esp-open-sdk/sdk/lib/libnet80211.a(ieee80211_scan.o)
                                                  /opt/Espressif/esp-open-sdk/sdk/lib/libnet80211.a(ieee80211_hostap.o)
                                                  /opt/Espressif/esp-open-sdk/sdk/lib/libpp.a(pp.o)
                                                  /opt/Espressif/esp-open-sdk/sdk/lib/libpp.a(pm_for_bcn_only_mode.o)
                                                  /opt/Espressif/esp-open-sdk/sdk/lib/libpp.a(pm.o)
                                                  build/app_app.a(timer_hal.o)
                                                  build/app_app.a(user_main.o)
                                                  /opt/Espressif/esp-open-sdk/sdk/lib/libmain.a(user_interface.o)
                                                  /opt/Espressif/esp-open-sdk/sdk/lib/libmain.a(app_main.o)
ets_timer_disarm                                  /opt/Espressif/esp-open-sdk/sdk/lib/libmain.a(ets_timer.o)
                                                  /opt/Espressif/esp-open-sdk/sdk/lib/libwpa.a(wpa_main.o)
                                                  /opt/Espressif/esp-open-sdk/sdk/lib/libwpa.a(wpa.o)
                                                  /opt/Espressif/esp-open-sdk/sdk/lib/liblwip.a(mdns.o)
                                                  /opt/Espressif/esp-open-sdk/sdk/lib/liblwip.a(sntp.o)
                                                  /opt/Espressif/esp-open-sdk/sdk/lib/libnet80211.a(wl_cnx.o)
                                                  /opt/Espressif/esp-open-sdk/sdk/lib/libnet80211.a(wl_chm.o)
                                                  /opt/Espressif/esp-open-sdk/sdk/lib/libnet80211.a(ieee80211_sta.o)
                                                  /opt/Espressif/esp-open-sdk/sdk/lib/libnet80211.a(ieee80211_scan.o)
                                                  /opt/Espressif/esp-open-sdk/sdk/lib/libnet80211.a(ieee80211_hostap.o)
                                                  /opt/Espressif/esp-open-sdk/sdk/lib/libpp.a(pp.o)
                                                  /opt/Espressif/esp-open-sdk/sdk/lib/libpp.a(pm_for_bcn_only_mode.o)
                                                  /opt/Espressif/esp-open-sdk/sdk/lib/libpp.a(pm.o)
                                                  build/app_app.a(timer_hal.o)
                                                  build/app_app.a(user_main.o)
                                                  /opt/Espressif/esp-open-sdk/sdk/lib/libmain.a(user_interface.o)
                                                  /opt/Espressif/esp-open-sdk/sdk/lib/libmain.a(app_main.o)
ets_timer_done                                    /opt/Espressif/esp-open-sdk/sdk/lib/libmain.a(ets_timer.o)
ets_timer_handler_isr                             /opt/Espressif/esp-open-sdk/sdk/lib/libmain.a(ets_timer.o)
ets_timer_init                                    /opt/Espressif/esp-open-sdk/sdk/lib/libmain.a(ets_timer.o)
                                                  /opt/Espressif/esp-open-sdk/sdk/lib/libmain.a(app_main.o)
ets_timer_setfn                                   /opt/Espressif/esp-open-sdk/sdk/lib/libmain.a(ets_timer.o)
                                                  /opt/Espressif/esp-open-sdk/sdk/lib/libwpa.a(wpa_main.o)
                                                  /opt/Espressif/esp-open-sdk/sdk/lib/libwpa.a(wpa.o)
                                                  /opt/Espressif/esp-open-sdk/sdk/lib/liblwip.a(mdns.o)
                                                  /opt/Espressif/esp-open-sdk/sdk/lib/liblwip.a(sntp.o)
                                                  /opt/Espressif/esp-open-sdk/sdk/lib/libnet80211.a(wl_cnx.o)
                                                  /opt/Espressif/esp-open-sdk/sdk/lib/libnet80211.a(wl_chm.o)
                                                  /opt/Espressif/esp-open-sdk/sdk/lib/libnet80211.a(ieee80211_sta.o)
                                                  /opt/Espressif/esp-open-sdk/sdk/lib/libnet80211.a(ieee80211_scan.o)
                                                  /opt/Espressif/esp-open-sdk/sdk/lib/libnet80211.a(ieee80211_hostap.o)
                                                  /opt/Espressif/esp-open-sdk/sdk/lib/libpp.a(pp.o)
                                                  /opt/Espressif/esp-open-sdk/sdk/lib/libpp.a(pm_for_bcn_only_mode.o)
                                                  /opt/Espressif/esp-open-sdk/sdk/lib/libpp.a(pm.o)
                                                  build/app_app.a(timer_hal.o)
                                                  build/app_app.a(user_main.o)
                                                  /opt/Espressif/esp-open-sdk/sdk/lib/libmain.a(user_interface.o)
                                                  /opt/Espressif/esp-open-sdk/sdk/lib/libmain.a(app_main.o)
ets_update_cpu_frequency                          /opt/Espressif/esp-open-sdk/sdk/lib/libpp.a(pm_for_bcn_only_mode.o)
                                                  /opt/Espressif/esp-open-sdk/sdk/lib/libpp.a(pm.o)
                                                  /opt/Espressif/esp-open-sdk/sdk/lib/libphy.a(phy_chip_v6.o)
                                                  /opt/Espressif/esp-open-sdk/sdk/lib/libmain.a(user_interface.o)
ets_vprintf                                       /opt/Espressif/esp-open-sdk/sdk/lib/libmain.a(user_interface.o)
ets_vsnprintf                                     /opt/Espressif/esp-open-sdk/sdk/lib/libmain.a(eagle_lib.o)
                                                  /opt/Espressif/esp-open-sdk/sdk/lib/libwpa.a(wpa_debug.o)
ets_vsprintf                                      /opt/Espressif/esp-open-sdk/sdk/lib/libmain.a(eagle_lib.o)
ets_wdt_disable                                   build/app_app.a(ili9341.o)
ets_write_char                                    /opt/Espressif/esp-open-sdk/sdk/lib/libmain.a(user_interface.o)
event_cb                                          /opt/Espressif/esp-open-sdk/sdk/lib/libmain.a(user_interface.o)
                                                  /opt/Espressif/esp-open-sdk/sdk/lib/libwpa.a(wpa_main.o)
                                                  /opt/Espressif/esp-open-sdk/sdk/lib/libnet80211.a(wl_cnx.o)
                                                  /opt/Espressif/esp-open-sdk/sdk/lib/libnet80211.a(ieee80211_sta.o)
execute_timers                                    build/app_app.a(timer_hal.o)
flash_read                                        /opt/Espressif/esp-open-sdk/sdk/lib/libmain.a(spi_flash.o)
flashchip                                         /opt/Espressif/esp-open-sdk/sdk/lib/libmain.a(user_interface.o)
                                                  /opt/Espressif/esp-open-sdk/sdk/lib/libmain.a(spi_flash.o)
                                                  /opt/Espressif/esp-open-sdk/sdk/lib/libmain.a(app_main.o)
floor                                             /opt/Espressif/esp-open-sdk/xtensa-lx106-elf/lib/gcc/xtensa-lx106-elf/4.8.2/../../../../xtensa-lx106-elf/lib/libm.a(lib_a-s_floor.o)
                                                  build/app_app.a(printf.o)
font_attr                                         build/app_app.a(font.o)
                                                  build/app_app.a(ili9341.o)
fpm_allow_tx                                      /opt/Espressif/esp-open-sdk/sdk/lib/libpp.a(pm_for_bcn_only_mode.o)
                                                  /opt/Espressif/esp-open-sdk/sdk/lib/libnet80211.a(ieee80211_scan.o)
                                                  /opt/Espressif/esp-open-sdk/sdk/lib/libpp.a(pp.o)
                                                  /opt/Espressif/esp-open-sdk/sdk/lib/libmain.a(user_interface.o)
fpm_attach                                        /opt/Espressif/esp-open-sdk/sdk/lib/libpp.a(pm_for_bcn_only_mode.o)
                                                  /opt/Espressif/esp-open-sdk/sdk/lib/libmain.a(app_main.o)
fpm_close                                         /opt/Espressif/esp-open-sdk/sdk/lib/libpp.a(pm_for_bcn_only_mode.o)
                                                  /opt/Espressif/esp-open-sdk/sdk/lib/libnet80211.a(ieee80211_hostap.o)
                                                  /opt/Espressif/esp-open-sdk/sdk/lib/libpp.a(pm.o)
fpm_do_sleep                                      /opt/Espressif/esp-open-sdk/sdk/lib/libpp.a(pm_for_bcn_only_mode.o)
                                                  /opt/Espressif/esp-open-sdk/sdk/lib/libnet80211.a(ieee80211_hostap.o)
fpm_do_wakeup                                     /opt/Espressif/esp-open-sdk/sdk/lib/libpp.a(pm_for_bcn_only_mode.o)
                                                  /opt/Espressif/esp-open-sdk/sdk/lib/libnet80211.a(ieee80211_scan.o)
                                                  /opt/Espressif/esp-open-sdk/sdk/lib/libpp.a(pp.o)
                                                  /opt/Espressif/esp-open-sdk/sdk/lib/libmain.a(user_interface.o)
fpm_get_slp_type                                  /opt/Espressif/esp-open-sdk/sdk/lib/libpp.a(pm_for_bcn_only_mode.o)
fpm_is_open                                       /opt/Espressif/esp-open-sdk/sdk/lib/libpp.a(pm_for_bcn_only_mode.o)
                                                  /opt/Espressif/esp-open-sdk/sdk/lib/libnet80211.a(ieee80211_hostap.o)
                                                  /opt/Espressif/esp-open-sdk/sdk/lib/libpp.a(pm.o)
fpm_open                                          /opt/Espressif/esp-open-sdk/sdk/lib/libpp.a(pm_for_bcn_only_mode.o)
                                                  /opt/Espressif/esp-open-sdk/sdk/lib/libnet80211.a(ieee80211_hostap.o)
fpm_rf_is_closed                                  /opt/Espressif/esp-open-sdk/sdk/lib/libpp.a(pm_for_bcn_only_mode.o)
                                                  /opt/Espressif/esp-open-sdk/sdk/lib/libpp.a(pp.o)
fpm_set_type_from_upper                           /opt/Espressif/esp-open-sdk/sdk/lib/libpp.a(pm_for_bcn_only_mode.o)
free                                              build/app_app.a(util.o)
                                                  build/app_app.a(queue.o)
frexp                                             /opt/Espressif/esp-open-sdk/xtensa-lx106-elf/lib/gcc/xtensa-lx106-elf/4.8.2/../../../../xtensa-lx106-elf/lib/libm.a(lib_a-s_frexp.o)
                                                  build/app_app.a(printf.o)
gScanStruct                                       /opt/Espressif/esp-open-sdk/sdk/lib/libnet80211.a(ieee80211_scan.o)
                                                  /opt/Espressif/esp-open-sdk/sdk/lib/libnet80211.a(wl_cnx.o)
                                                  /opt/Espressif/esp-open-sdk/sdk/lib/libnet80211.a(ieee80211_sta.o)
                                                  /opt/Espressif/esp-open-sdk/sdk/lib/libnet80211.a(ieee80211_hostap.o)
                                                  /opt/Espressif/esp-open-sdk/sdk/lib/libpp.a(pp.o)
g_cnx_probe_rc_list_cb                            /opt/Espressif/esp-open-sdk/sdk/lib/libnet80211.a(wl_cnx.o)
g_ic                                              /opt/Espressif/esp-open-sdk/sdk/lib/libnet80211.a(ieee80211.o)
                                                  /opt/Espressif/esp-open-sdk/sdk/lib/libnet80211.a(ieee80211_crypto_tkip.o)
                                                  /opt/Espressif/esp-open-sdk/sdk/lib/libwpa.a(wpa_main.o)
                                                  /opt/Espressif/esp-open-sdk/sdk/lib/libwpa.a(wpa.o)
                                                  /opt/Espressif/esp-open-sdk/sdk/lib/libwpa.a(wpa_auth.o)
                                                  /opt/Espressif/esp-open-sdk/sdk/lib/libwpa.a(ap_config.o)
                                                  /opt/Espressif/esp-open-sdk/sdk/lib/liblwip.a(espconn_udp.o)
                                                  /opt/Espressif/esp-open-sdk/sdk/lib/libnet80211.a(ieee80211_action_vendor.o)
                                                  /opt/Espressif/esp-open-sdk/sdk/lib/libnet80211.a(wl_cnx.o)
                                                  /opt/Espressif/esp-open-sdk/sdk/lib/libnet80211.a(wl_chm.o)
                                                  /opt/Espressif/esp-open-sdk/sdk/lib/libnet80211.a(ieee80211_sta.o)
                                                  /opt/Espressif/esp-open-sdk/sdk/lib/libnet80211.a(ieee80211_scan.o)
                                                  /opt/Espressif/esp-open-sdk/sdk/lib/libnet80211.a(ieee80211_proto.o)
                                                  /opt/Espressif/esp-open-sdk/sdk/lib/libnet80211.a(ieee80211_power.o)
                                                  /opt/Espressif/esp-open-sdk/sdk/lib/libnet80211.a(ieee80211_phy.o)
                                                  /opt/Espressif/esp-open-sdk/sdk/lib/libnet80211.a(ieee80211_output.o)
                                                  /opt/Espressif/esp-open-sdk/sdk/lib/libnet80211.a(ieee80211_input.o)
                                                  /opt/Espressif/esp-open-sdk/sdk/lib/libnet80211.a(ieee80211_ht.o)
                                                  /opt/Espressif/esp-open-sdk/sdk/lib/libnet80211.a(ieee80211_hostap.o)
                                                  /opt/Espressif/esp-open-sdk/sdk/lib/libnet80211.a(ieee80211_crypto.o)
                                                  /opt/Espressif/esp-open-sdk/sdk/lib/libpp.a(wdev.o)
                                                  /opt/Espressif/esp-open-sdk/sdk/lib/libpp.a(pp.o)
                                                  /opt/Espressif/esp-open-sdk/sdk/lib/libpp.a(pm.o)
                                                  /opt/Espressif/esp-open-sdk/sdk/lib/libpp.a(if_hwctrl.o)
                                                  /opt/Espressif/esp-open-sdk/sdk/lib/libmain.a(eagle_lwip_if.o)
                                                  /opt/Espressif/esp-open-sdk/sdk/lib/libmain.a(user_interface.o)
                                                  /opt/Espressif/esp-open-sdk/sdk/lib/libmain.a(app_main.o)
g_phyFuns                                         /opt/Espressif/esp-open-sdk/sdk/lib/libphy.a(phy_chip_v6.o)
                                                  /opt/Espressif/esp-open-sdk/sdk/lib/libpp.a(pm.o)
                                                  /opt/Espressif/esp-open-sdk/sdk/lib/libphy.a(phy_sleep.o)
                                                  /opt/Espressif/esp-open-sdk/sdk/lib/libphy.a(phy_chip_v6_unused.o)
                                                  /opt/Espressif/esp-open-sdk/sdk/lib/libphy.a(phy_chip_v6_cal.o)
                                                  /opt/Espressif/esp-open-sdk/sdk/lib/libphy.a(phy_chip_v6_ana.o)
gen_rx_gain_table                                 /opt/Espressif/esp-open-sdk/sdk/lib/libphy.a(phy_chip_v6.o)
getPcb                                            /opt/Espressif/esp-open-sdk/sdk/lib/liblwip.a(mdns.o)
get_adc_rand                                      /opt/Espressif/esp-open-sdk/sdk/lib/libphy.a(phy_chip_v6.o)
                                                  /opt/Espressif/esp-open-sdk/sdk/lib/libphy.a(phy_sleep.o)
get_chip_version                                  /opt/Espressif/esp-open-sdk/sdk/lib/libphy.a(phy_sleep.o)
                                                  /opt/Espressif/esp-open-sdk/sdk/lib/libphy.a(phy_chip_v6.o)
get_fcc_1m2m_pwr_offset                           /opt/Espressif/esp-open-sdk/sdk/lib/libphy.a(phy_chip_v6_cal.o)
get_iav_key                                       /opt/Espressif/esp-open-sdk/sdk/lib/libnet80211.a(ieee80211_action_vendor.o)
get_noisefloor_sat                                /opt/Espressif/esp-open-sdk/sdk/lib/libphy.a(phy_chip_v6.o)
get_phy_target_power                              /opt/Espressif/esp-open-sdk/sdk/lib/libphy.a(phy_chip_v6.o)
                                                  /opt/Espressif/esp-open-sdk/sdk/lib/libphy.a(phy_chip_v6_cal.o)
get_pwctrl_correct                                /opt/Espressif/esp-open-sdk/sdk/lib/libphy.a(phy_chip_v6_cal.o)
get_rf_gain_qdb                                   /opt/Espressif/esp-open-sdk/sdk/lib/libphy.a(phy_chip_v6_cal.o)
get_sar_dout                                      /opt/Espressif/esp-open-sdk/sdk/lib/libphy.a(phy_chip_v6_cal.o)
get_target_power_offset                           /opt/Espressif/esp-open-sdk/sdk/lib/libphy.a(phy_chip_v6_cal.o)
get_token                                         build/app_app.a(util.o)
get_vdd33_offset                                  /opt/Espressif/esp-open-sdk/sdk/lib/libphy.a(phy_chip_v6.o)
gettimeofday                                      build/app_app.a(time.o)
gettimezone                                       build/app_app.a(time.o)
gmtime                                            build/app_app.a(time.o)
gmtime_r                                          build/app_app.a(time.o)
gpio_output_set                                   /opt/Espressif/esp-open-sdk/sdk/lib/libnet80211.a(wl_cnx.o)
                                                  /opt/Espressif/esp-open-sdk/sdk/lib/libnet80211.a(ieee80211_hostap.o)
                                                  /opt/Espressif/esp-open-sdk/sdk/lib/libphy.a(phy_sleep.o)
                                                  /opt/Espressif/esp-open-sdk/sdk/lib/libphy.a(phy_chip_v6.o)
                                                  build/app_app.a(ili9341.o)
                                                  build/app_app.a(hspi.o)
                                                  /opt/Espressif/esp-open-sdk/sdk/lib/libmain.a(user_interface.o)
hardware_reject                                   /opt/Espressif/esp-open-sdk/sdk/lib/libphy.a(phy_sleep.o)
hex2byte                                          /opt/Espressif/esp-open-sdk/sdk/lib/libwpa.a(common.o)
hexd                                              build/app_app.a(util.o)
hexstr2bin                                        /opt/Espressif/esp-open-sdk/sdk/lib/libwpa.a(common.o)
                                                  /opt/Espressif/esp-open-sdk/sdk/lib/libwpa.a(wpa.o)
                                                  /opt/Espressif/esp-open-sdk/sdk/lib/libmain.a(user_interface.o)
hmac_md5                                          /opt/Espressif/esp-open-sdk/sdk/lib/libwpa.a(wpa_common.o)
hmac_sha1                                         /opt/Espressif/esp-open-sdk/sdk/lib/libwpa.a(wpa_common.o)
hmac_sha1_vector                                  /opt/Espressif/esp-open-sdk/sdk/lib/libwpa.a(wpa_common.o)
hostap_handle_timer                               /opt/Espressif/esp-open-sdk/sdk/lib/libnet80211.a(ieee80211_hostap.o)
hostap_input                                      /opt/Espressif/esp-open-sdk/sdk/lib/libnet80211.a(ieee80211_hostap.o)
                                                  /opt/Espressif/esp-open-sdk/sdk/lib/libpp.a(pp.o)
hostapd_config_defaults                           /opt/Espressif/esp-open-sdk/sdk/lib/libwpa.a(ap_config.o)
hostapd_config_defaults_bss                       /opt/Espressif/esp-open-sdk/sdk/lib/libwpa.a(ap_config.o)
hostapd_get_psk                                   /opt/Espressif/esp-open-sdk/sdk/lib/libwpa.a(ap_config.o)
                                                  /opt/Espressif/esp-open-sdk/sdk/lib/libwpa.a(wpa_auth.o)
hostapd_mac_comp                                  /opt/Espressif/esp-open-sdk/sdk/lib/libwpa.a(ap_config.o)
hostapd_mac_comp_empty                            /opt/Espressif/esp-open-sdk/sdk/lib/libwpa.a(ap_config.o)
hostapd_maclist_found                             /opt/Espressif/esp-open-sdk/sdk/lib/libwpa.a(ap_config.o)
hostapd_rate_found                                /opt/Espressif/esp-open-sdk/sdk/lib/libwpa.a(ap_config.o)
hostapd_setup_wpa_psk                             /opt/Espressif/esp-open-sdk/sdk/lib/libwpa.a(ap_config.o)
                                                  /opt/Espressif/esp-open-sdk/sdk/lib/libnet80211.a(ieee80211_hostap.o)
hostapd_wep_key_cmp                               /opt/Espressif/esp-open-sdk/sdk/lib/libwpa.a(ap_config.o)
hostname                                          /opt/Espressif/esp-open-sdk/sdk/lib/libmain.a(eagle_lwip_if.o)
                                                  /opt/Espressif/esp-open-sdk/sdk/lib/libmain.a(user_interface.o)
hspi_RX                                           build/app_app.a(hspi.o)
                                                  build/app_app.a(ili9341.o)
hspi_TX                                           build/app_app.a(hspi.o)
                                                  build/app_app.a(ili9341.o)
hspi_TXRX                                         build/app_app.a(hspi.o)
                                                  build/app_app.a(ili9341.o)
hspi_clock                                        build/app_app.a(hspi.o)
hspi_cs_disable                                   build/app_app.a(hspi.o)
                                                  build/app_app.a(ili9341.o)
hspi_cs_enable                                    build/app_app.a(hspi.o)
                                                  build/app_app.a(ili9341.o)
hspi_init                                         build/app_app.a(hspi.o)
                                                  build/app_app.a(ili9341.o)
                                                  build/app_app.a(user_main.o)
hspi_waitReady                                    build/app_app.a(hspi.o)
                                                  build/app_app.a(ili9341.o)
ic_bss_info_update                                /opt/Espressif/esp-open-sdk/sdk/lib/libpp.a(if_hwctrl.o)
                                                  /opt/Espressif/esp-open-sdk/sdk/lib/libnet80211.a(ieee80211_sta.o)
                                                  /opt/Espressif/esp-open-sdk/sdk/lib/libnet80211.a(ieee80211_hostap.o)
ic_disable_interface                              /opt/Espressif/esp-open-sdk/sdk/lib/libpp.a(if_hwctrl.o)
ic_enable_interface                               /opt/Espressif/esp-open-sdk/sdk/lib/libpp.a(if_hwctrl.o)
ic_get_addr                                       /opt/Espressif/esp-open-sdk/sdk/lib/libpp.a(if_hwctrl.o)
                                                  /opt/Espressif/esp-open-sdk/sdk/lib/libpp.a(pm.o)
ic_get_gtk_alg                                    /opt/Espressif/esp-open-sdk/sdk/lib/libpp.a(if_hwctrl.o)
                                                  /opt/Espressif/esp-open-sdk/sdk/lib/libpp.a(pp.o)
ic_get_ptk_alg                                    /opt/Espressif/esp-open-sdk/sdk/lib/libpp.a(if_hwctrl.o)
                                                  /opt/Espressif/esp-open-sdk/sdk/lib/libpp.a(pp.o)
ic_get_rssi                                       /opt/Espressif/esp-open-sdk/sdk/lib/libpp.a(if_hwctrl.o)
                                                  /opt/Espressif/esp-open-sdk/sdk/lib/libmain.a(user_interface.o)
ic_interface_enabled                              /opt/Espressif/esp-open-sdk/sdk/lib/libpp.a(if_hwctrl.o)
ic_interface_is_p2p                               /opt/Espressif/esp-open-sdk/sdk/lib/libpp.a(if_hwctrl.o)
ic_is_pure_sta                                    /opt/Espressif/esp-open-sdk/sdk/lib/libpp.a(if_hwctrl.o)
                                                  /opt/Espressif/esp-open-sdk/sdk/lib/libpp.a(pp.o)
ic_remove_key                                     /opt/Espressif/esp-open-sdk/sdk/lib/libpp.a(if_hwctrl.o)
                                                  /opt/Espressif/esp-open-sdk/sdk/lib/libwpa.a(wpa_auth.o)
ic_set_gtk_alg                                    /opt/Espressif/esp-open-sdk/sdk/lib/libpp.a(if_hwctrl.o)
ic_set_key                                        /opt/Espressif/esp-open-sdk/sdk/lib/libpp.a(if_hwctrl.o)
                                                  /opt/Espressif/esp-open-sdk/sdk/lib/libwpa.a(wpa_main.o)
                                                  /opt/Espressif/esp-open-sdk/sdk/lib/libwpa.a(wpa_auth.o)
ic_set_opmode                                     /opt/Espressif/esp-open-sdk/sdk/lib/libpp.a(if_hwctrl.o)
ic_set_ptk_alg                                    /opt/Espressif/esp-open-sdk/sdk/lib/libpp.a(if_hwctrl.o)
ic_set_sta                                        /opt/Espressif/esp-open-sdk/sdk/lib/libpp.a(if_hwctrl.o)
                                                  /opt/Espressif/esp-open-sdk/sdk/lib/libnet80211.a(wl_cnx.o)
ic_set_vif                                        /opt/Espressif/esp-open-sdk/sdk/lib/libpp.a(if_hwctrl.o)
                                                  /opt/Espressif/esp-open-sdk/sdk/lib/libnet80211.a(ieee80211_sta.o)
                                                  /opt/Espressif/esp-open-sdk/sdk/lib/libnet80211.a(ieee80211_hostap.o)
                                                  /opt/Espressif/esp-open-sdk/sdk/lib/libmain.a(user_interface.o)
icmp_dest_unreach                                 /opt/Espressif/esp-open-sdk/sdk/lib/liblwip.a(icmp.o)
                                                  /opt/Espressif/esp-open-sdk/sdk/lib/liblwip.a(udp.o)
                                                  /opt/Espressif/esp-open-sdk/sdk/lib/liblwip.a(ip.o)
icmp_input                                        /opt/Espressif/esp-open-sdk/sdk/lib/liblwip.a(icmp.o)
                                                  /opt/Espressif/esp-open-sdk/sdk/lib/liblwip.a(ip.o)
idle_timer_reopen_flag                            /opt/Espressif/esp-open-sdk/sdk/lib/libpp.a(pp.o)
                                                  /opt/Espressif/esp-open-sdk/sdk/lib/libpp.a(pm.o)
ieee80211_action_vendor_spec_attach               /opt/Espressif/esp-open-sdk/sdk/lib/libnet80211.a(ieee80211_action_vendor.o)
                                                  /opt/Espressif/esp-open-sdk/sdk/lib/libnet80211.a(ieee80211.o)
ieee80211_add_action_vendor_spec_esp              /opt/Espressif/esp-open-sdk/sdk/lib/libnet80211.a(ieee80211_action_vendor.o)
ieee80211_add_htcap                               /opt/Espressif/esp-open-sdk/sdk/lib/libnet80211.a(ieee80211_ht.o)
                                                  /opt/Espressif/esp-open-sdk/sdk/lib/libnet80211.a(ieee80211_output.o)
ieee80211_add_htcap_vendor                        /opt/Espressif/esp-open-sdk/sdk/lib/libnet80211.a(ieee80211_ht.o)
                                                  /opt/Espressif/esp-open-sdk/sdk/lib/libnet80211.a(ieee80211_output.o)
ieee80211_add_htinfo                              /opt/Espressif/esp-open-sdk/sdk/lib/libnet80211.a(ieee80211_ht.o)
                                                  /opt/Espressif/esp-open-sdk/sdk/lib/libnet80211.a(ieee80211_output.o)
ieee80211_add_htinfo_vendor                       /opt/Espressif/esp-open-sdk/sdk/lib/libnet80211.a(ieee80211_ht.o)
                                                  /opt/Espressif/esp-open-sdk/sdk/lib/libnet80211.a(ieee80211_output.o)
ieee80211_add_ie_vendor_esp_freq_annon            /opt/Espressif/esp-open-sdk/sdk/lib/libnet80211.a(ieee80211_ie_vendor.o)
ieee80211_add_ie_vendor_esp_head                  /opt/Espressif/esp-open-sdk/sdk/lib/libnet80211.a(ieee80211_ie_vendor.o)
ieee80211_add_ie_vendor_esp_manufacturer          /opt/Espressif/esp-open-sdk/sdk/lib/libnet80211.a(ieee80211_ie_vendor.o)
ieee80211_add_ie_vendor_esp_mesh_assoc            /opt/Espressif/esp-open-sdk/sdk/lib/libnet80211.a(ieee80211_ie_vendor.o)
ieee80211_add_ie_vendor_esp_mesh_group            /opt/Espressif/esp-open-sdk/sdk/lib/libnet80211.a(ieee80211_ie_vendor.o)
ieee80211_add_ie_vendor_esp_now                   /opt/Espressif/esp-open-sdk/sdk/lib/libnet80211.a(ieee80211_ie_vendor.o)
                                                  /opt/Espressif/esp-open-sdk/sdk/lib/libnet80211.a(ieee80211_action_vendor.o)
ieee80211_add_ie_vendor_esp_simple_pair           /opt/Espressif/esp-open-sdk/sdk/lib/libnet80211.a(ieee80211_ie_vendor.o)
ieee80211_add_rates                               /opt/Espressif/esp-open-sdk/sdk/lib/libnet80211.a(ieee80211_output.o)
ieee80211_add_xrates                              /opt/Espressif/esp-open-sdk/sdk/lib/libnet80211.a(ieee80211_output.o)
ieee80211_addbasicrates                           /opt/Espressif/esp-open-sdk/sdk/lib/libnet80211.a(ieee80211_proto.o)
ieee80211_addr_bcast                              /opt/Espressif/esp-open-sdk/sdk/lib/libnet80211.a(ieee80211_proto.o)
                                                  /opt/Espressif/esp-open-sdk/sdk/lib/libnet80211.a(wl_cnx.o)
                                                  /opt/Espressif/esp-open-sdk/sdk/lib/libnet80211.a(ieee80211_scan.o)
                                                  /opt/Espressif/esp-open-sdk/sdk/lib/libnet80211.a(ieee80211_hostap.o)
                                                  /opt/Espressif/esp-open-sdk/sdk/lib/libpp.a(wdev.o)
ieee80211_alloc_action_vendor_spec                /opt/Espressif/esp-open-sdk/sdk/lib/libnet80211.a(ieee80211_action_vendor.o)
ieee80211_alloc_challenge                         /opt/Espressif/esp-open-sdk/sdk/lib/libnet80211.a(ieee80211_input.o)
                                                  /opt/Espressif/esp-open-sdk/sdk/lib/libnet80211.a(ieee80211_sta.o)
ieee80211_alloc_proberesp                         /opt/Espressif/esp-open-sdk/sdk/lib/libnet80211.a(ieee80211_output.o)
ieee80211_beacon_alloc                            /opt/Espressif/esp-open-sdk/sdk/lib/libnet80211.a(ieee80211_output.o)
                                                  /opt/Espressif/esp-open-sdk/sdk/lib/libnet80211.a(ieee80211_hostap.o)
ieee80211_chan2ieee                               /opt/Espressif/esp-open-sdk/sdk/lib/libnet80211.a(ieee80211.o)
                                                  /opt/Espressif/esp-open-sdk/sdk/lib/libnet80211.a(wl_chm.o)
                                                  /opt/Espressif/esp-open-sdk/sdk/lib/libnet80211.a(ieee80211_scan.o)
                                                  /opt/Espressif/esp-open-sdk/sdk/lib/libnet80211.a(ieee80211_output.o)
                                                  /opt/Espressif/esp-open-sdk/sdk/lib/libnet80211.a(ieee80211_input.o)
                                                  /opt/Espressif/esp-open-sdk/sdk/lib/libnet80211.a(ieee80211_ht.o)
                                                  /opt/Espressif/esp-open-sdk/sdk/lib/libnet80211.a(ieee80211_hostap.o)
ieee80211_compute_duration                        /opt/Espressif/esp-open-sdk/sdk/lib/libnet80211.a(ieee80211_phy.o)
ieee80211_crypto_attach                           /opt/Espressif/esp-open-sdk/sdk/lib/libnet80211.a(ieee80211_crypto.o)
                                                  /opt/Espressif/esp-open-sdk/sdk/lib/libnet80211.a(ieee80211.o)
ieee80211_crypto_available                        /opt/Espressif/esp-open-sdk/sdk/lib/libnet80211.a(ieee80211_crypto.o)
ieee80211_crypto_decap                            /opt/Espressif/esp-open-sdk/sdk/lib/libnet80211.a(ieee80211_crypto.o)
                                                  /opt/Espressif/esp-open-sdk/sdk/lib/libnet80211.a(ieee80211_sta.o)
                                                  /opt/Espressif/esp-open-sdk/sdk/lib/libnet80211.a(ieee80211_hostap.o)
ieee80211_crypto_encap                            /opt/Espressif/esp-open-sdk/sdk/lib/libnet80211.a(ieee80211_crypto.o)
                                                  /opt/Espressif/esp-open-sdk/sdk/lib/libnet80211.a(ieee80211_output.o)
ieee80211_crypto_setkey                           /opt/Espressif/esp-open-sdk/sdk/lib/libnet80211.a(ieee80211_crypto.o)
ieee80211_decap                                   /opt/Espressif/esp-open-sdk/sdk/lib/libnet80211.a(ieee80211_input.o)
                                                  /opt/Espressif/esp-open-sdk/sdk/lib/libnet80211.a(ieee80211_sta.o)
                                                  /opt/Espressif/esp-open-sdk/sdk/lib/libnet80211.a(ieee80211_hostap.o)
ieee80211_deliver_data                            /opt/Espressif/esp-open-sdk/sdk/lib/libnet80211.a(ieee80211_input.o)
                                                  /opt/Espressif/esp-open-sdk/sdk/lib/libnet80211.a(ieee80211_sta.o)
ieee80211_dot11Rate_rix                           /opt/Espressif/esp-open-sdk/sdk/lib/libnet80211.a(ieee80211_phy.o)
ieee80211_find_channel                            /opt/Espressif/esp-open-sdk/sdk/lib/libnet80211.a(ieee80211.o)
                                                  /opt/Espressif/esp-open-sdk/sdk/lib/libnet80211.a(ieee80211_ht.o)
ieee80211_find_channel_byieee                     /opt/Espressif/esp-open-sdk/sdk/lib/libnet80211.a(ieee80211.o)
ieee80211_get_11g_ratetable                       /opt/Espressif/esp-open-sdk/sdk/lib/libnet80211.a(ieee80211_phy.o)
ieee80211_get_ratetable                           /opt/Espressif/esp-open-sdk/sdk/lib/libnet80211.a(ieee80211_phy.o)
                                                  /opt/Espressif/esp-open-sdk/sdk/lib/libnet80211.a(ieee80211.o)
ieee80211_getcapinfo                              /opt/Espressif/esp-open-sdk/sdk/lib/libnet80211.a(ieee80211_output.o)
ieee80211_getmgtframe                             /opt/Espressif/esp-open-sdk/sdk/lib/libnet80211.a(ieee80211_ets.o)
                                                  /opt/Espressif/esp-open-sdk/sdk/lib/libnet80211.a(ieee80211_action_vendor.o)
                                                  /opt/Espressif/esp-open-sdk/sdk/lib/libnet80211.a(ieee80211_output.o)
                                                  /opt/Espressif/esp-open-sdk/sdk/lib/libnet80211.a(ieee80211_ht.o)
                                                  /opt/Espressif/esp-open-sdk/sdk/lib/libpp.a(pm.o)
ieee80211_hostap_attach                           /opt/Espressif/esp-open-sdk/sdk/lib/libnet80211.a(ieee80211_hostap.o)
ieee80211_ht_attach                               /opt/Espressif/esp-open-sdk/sdk/lib/libnet80211.a(ieee80211_ht.o)
                                                  /opt/Espressif/esp-open-sdk/sdk/lib/libnet80211.a(ieee80211.o)
                                                  /opt/Espressif/esp-open-sdk/sdk/lib/libmain.a(user_interface.o)
ieee80211_ht_node_cleanup                         /opt/Espressif/esp-open-sdk/sdk/lib/libnet80211.a(ieee80211_ht.o)
ieee80211_ht_node_init                            /opt/Espressif/esp-open-sdk/sdk/lib/libnet80211.a(ieee80211_ht.o)
                                                  /opt/Espressif/esp-open-sdk/sdk/lib/libnet80211.a(ieee80211_sta.o)
ieee80211_ht_updateparams                         /opt/Espressif/esp-open-sdk/sdk/lib/libnet80211.a(ieee80211_ht.o)
                                                  /opt/Espressif/esp-open-sdk/sdk/lib/libnet80211.a(wl_cnx.o)
                                                  /opt/Espressif/esp-open-sdk/sdk/lib/libnet80211.a(ieee80211_sta.o)
ieee80211_ieee2mhz                                /opt/Espressif/esp-open-sdk/sdk/lib/libnet80211.a(ieee80211.o)
ieee80211_ifattach                                /opt/Espressif/esp-open-sdk/sdk/lib/libnet80211.a(ieee80211.o)
                                                  /opt/Espressif/esp-open-sdk/sdk/lib/libmain.a(app_main.o)
ieee80211_iserp_rateset                           /opt/Espressif/esp-open-sdk/sdk/lib/libnet80211.a(ieee80211_proto.o)
ieee80211_mgmt_output                             /opt/Espressif/esp-open-sdk/sdk/lib/libnet80211.a(ieee80211_output.o)
                                                  /opt/Espressif/esp-open-sdk/sdk/lib/libnet80211.a(ieee80211_ht.o)
ieee80211_mhz2ieee                                /opt/Espressif/esp-open-sdk/sdk/lib/libnet80211.a(ieee80211.o)
ieee80211_mlme_connect_bss                        /opt/Espressif/esp-open-sdk/sdk/lib/libnet80211.a(ieee80211_proto.o)
                                                  /opt/Espressif/esp-open-sdk/sdk/lib/libnet80211.a(wl_cnx.o)
ieee80211_node_pwrsave                            /opt/Espressif/esp-open-sdk/sdk/lib/libnet80211.a(ieee80211_power.o)
                                                  /opt/Espressif/esp-open-sdk/sdk/lib/libnet80211.a(ieee80211_hostap.o)
ieee80211_opcap                                   /opt/Espressif/esp-open-sdk/sdk/lib/libnet80211.a(ieee80211.o)
ieee80211_output_pbuf                             /opt/Espressif/esp-open-sdk/sdk/lib/libnet80211.a(ieee80211_output.o)
                                                  /opt/Espressif/esp-open-sdk/sdk/lib/libwpa.a(wpa_main.o)
                                                  /opt/Espressif/esp-open-sdk/sdk/lib/libwpa.a(wpa_auth.o)
                                                  /opt/Espressif/esp-open-sdk/sdk/lib/libmain.a(eagle_lwip_if.o)
ieee80211_parse_action                            /opt/Espressif/esp-open-sdk/sdk/lib/libnet80211.a(ieee80211_input.o)
                                                  /opt/Espressif/esp-open-sdk/sdk/lib/libnet80211.a(ieee80211_sta.o)
ieee80211_parse_beacon                            /opt/Espressif/esp-open-sdk/sdk/lib/libnet80211.a(ieee80211_input.o)
                                                  /opt/Espressif/esp-open-sdk/sdk/lib/libnet80211.a(ieee80211_sta.o)
                                                  /opt/Espressif/esp-open-sdk/sdk/lib/libnet80211.a(ieee80211_hostap.o)
ieee80211_parse_htcap                             /opt/Espressif/esp-open-sdk/sdk/lib/libnet80211.a(ieee80211_ht.o)
ieee80211_parse_rsn                               /opt/Espressif/esp-open-sdk/sdk/lib/libnet80211.a(ieee80211_input.o)
                                                  /opt/Espressif/esp-open-sdk/sdk/lib/libnet80211.a(ieee80211_scan.o)
ieee80211_parse_wmeparams                         /opt/Espressif/esp-open-sdk/sdk/lib/libnet80211.a(ieee80211_sta.o)
                                                  /opt/Espressif/esp-open-sdk/sdk/lib/libnet80211.a(wl_cnx.o)
ieee80211_parse_wpa                               /opt/Espressif/esp-open-sdk/sdk/lib/libnet80211.a(ieee80211_input.o)
                                                  /opt/Espressif/esp-open-sdk/sdk/lib/libnet80211.a(ieee80211_scan.o)
ieee80211_phy_init                                /opt/Espressif/esp-open-sdk/sdk/lib/libnet80211.a(ieee80211_phy.o)
                                                  /opt/Espressif/esp-open-sdk/sdk/lib/libmain.a(user_interface.o)
                                                  /opt/Espressif/esp-open-sdk/sdk/lib/libmain.a(app_main.o)
ieee80211_phy_type_get                            /opt/Espressif/esp-open-sdk/sdk/lib/libnet80211.a(ieee80211_phy.o)
                                                  /opt/Espressif/esp-open-sdk/sdk/lib/libnet80211.a(wl_cnx.o)
ieee80211_proto_attach                            /opt/Espressif/esp-open-sdk/sdk/lib/libnet80211.a(ieee80211_proto.o)
                                                  /opt/Espressif/esp-open-sdk/sdk/lib/libnet80211.a(ieee80211.o)
ieee80211_psq_cleanup                             /opt/Espressif/esp-open-sdk/sdk/lib/libnet80211.a(ieee80211_power.o)
ieee80211_psq_init                                /opt/Espressif/esp-open-sdk/sdk/lib/libnet80211.a(ieee80211_power.o)
                                                  /opt/Espressif/esp-open-sdk/sdk/lib/libnet80211.a(ieee80211_hostap.o)
ieee80211_pwrsave                                 /opt/Espressif/esp-open-sdk/sdk/lib/libnet80211.a(ieee80211_power.o)
                                                  /opt/Espressif/esp-open-sdk/sdk/lib/libnet80211.a(ieee80211_output.o)
ieee80211_recv_action                             /opt/Espressif/esp-open-sdk/sdk/lib/libnet80211.a(ieee80211_action.o)
                                                  /opt/Espressif/esp-open-sdk/sdk/lib/libnet80211.a(ieee80211_sta.o)
                                                  /opt/Espressif/esp-open-sdk/sdk/lib/libnet80211.a(ieee80211_hostap.o)
ieee80211_recv_action_register                    /opt/Espressif/esp-open-sdk/sdk/lib/libnet80211.a(ieee80211_action.o)
                                                  /opt/Espressif/esp-open-sdk/sdk/lib/libnet80211.a(ieee80211_action_vendor.o)
                                                  /opt/Espressif/esp-open-sdk/sdk/lib/libnet80211.a(ieee80211_ht.o)
ieee80211_recv_action_unregister                  /opt/Espressif/esp-open-sdk/sdk/lib/libnet80211.a(ieee80211_action.o)
ieee80211_recv_action_vendor_spec                 /opt/Espressif/esp-open-sdk/sdk/lib/libnet80211.a(ieee80211_action_vendor.o)
ieee80211_scan_attach                             /opt/Espressif/esp-open-sdk/sdk/lib/libnet80211.a(ieee80211_scan.o)
                                                  /opt/Espressif/esp-open-sdk/sdk/lib/libnet80211.a(ieee80211.o)
ieee80211_send_action                             /opt/Espressif/esp-open-sdk/sdk/lib/libnet80211.a(ieee80211_action.o)
                                                  /opt/Espressif/esp-open-sdk/sdk/lib/libnet80211.a(ieee80211_ht.o)
ieee80211_send_action_register                    /opt/Espressif/esp-open-sdk/sdk/lib/libnet80211.a(ieee80211_action.o)
                                                  /opt/Espressif/esp-open-sdk/sdk/lib/libnet80211.a(ieee80211_ht.o)
ieee80211_send_action_unregister                  /opt/Espressif/esp-open-sdk/sdk/lib/libnet80211.a(ieee80211_action.o)
ieee80211_send_action_vendor_spec                 /opt/Espressif/esp-open-sdk/sdk/lib/libnet80211.a(ieee80211_action_vendor.o)
ieee80211_send_mgmt                               /opt/Espressif/esp-open-sdk/sdk/lib/libnet80211.a(ieee80211_output.o)
                                                  /opt/Espressif/esp-open-sdk/sdk/lib/libwpa.a(wpa_main.o)
                                                  /opt/Espressif/esp-open-sdk/sdk/lib/libnet80211.a(wl_cnx.o)
                                                  /opt/Espressif/esp-open-sdk/sdk/lib/libnet80211.a(ieee80211_sta.o)
                                                  /opt/Espressif/esp-open-sdk/sdk/lib/libnet80211.a(ieee80211_hostap.o)
                                                  /opt/Espressif/esp-open-sdk/sdk/lib/libmain.a(user_interface.o)
ieee80211_send_nulldata                           /opt/Espressif/esp-open-sdk/sdk/lib/libnet80211.a(ieee80211_output.o)
                                                  /opt/Espressif/esp-open-sdk/sdk/lib/libnet80211.a(ieee80211_hostap.o)
ieee80211_send_probereq                           /opt/Espressif/esp-open-sdk/sdk/lib/libnet80211.a(ieee80211_output.o)
                                                  /opt/Espressif/esp-open-sdk/sdk/lib/libnet80211.a(wl_cnx.o)
                                                  /opt/Espressif/esp-open-sdk/sdk/lib/libnet80211.a(ieee80211_scan.o)
ieee80211_send_proberesp                          /opt/Espressif/esp-open-sdk/sdk/lib/libnet80211.a(ieee80211_output.o)
                                                  /opt/Espressif/esp-open-sdk/sdk/lib/libnet80211.a(ieee80211_hostap.o)
ieee80211_send_setup                              /opt/Espressif/esp-open-sdk/sdk/lib/libnet80211.a(ieee80211_output.o)
                                                  /opt/Espressif/esp-open-sdk/sdk/lib/libnet80211.a(ieee80211_action_vendor.o)
                                                  /opt/Espressif/esp-open-sdk/sdk/lib/libpp.a(pm.o)
ieee80211_set_shortslottime                       /opt/Espressif/esp-open-sdk/sdk/lib/libnet80211.a(ieee80211_proto.o)
                                                  /opt/Espressif/esp-open-sdk/sdk/lib/libnet80211.a(wl_cnx.o)
                                                  /opt/Espressif/esp-open-sdk/sdk/lib/libnet80211.a(ieee80211_sta.o)
ieee80211_set_tim                                 /opt/Espressif/esp-open-sdk/sdk/lib/libnet80211.a(ieee80211_power.o)
                                                  /opt/Espressif/esp-open-sdk/sdk/lib/libnet80211.a(ieee80211_hostap.o)
ieee80211_setbasicrates                           /opt/Espressif/esp-open-sdk/sdk/lib/libnet80211.a(ieee80211_proto.o)
ieee80211_setup_basic_htrates                     /opt/Espressif/esp-open-sdk/sdk/lib/libnet80211.a(ieee80211_ht.o)
                                                  /opt/Espressif/esp-open-sdk/sdk/lib/libnet80211.a(ieee80211_sta.o)
ieee80211_setup_htrates                           /opt/Espressif/esp-open-sdk/sdk/lib/libnet80211.a(ieee80211_ht.o)
                                                  /opt/Espressif/esp-open-sdk/sdk/lib/libnet80211.a(ieee80211_sta.o)
ieee80211_setup_rates                             /opt/Espressif/esp-open-sdk/sdk/lib/libnet80211.a(ieee80211_input.o)
                                                  /opt/Espressif/esp-open-sdk/sdk/lib/libnet80211.a(ieee80211_sta.o)
                                                  /opt/Espressif/esp-open-sdk/sdk/lib/libnet80211.a(ieee80211_hostap.o)
ieee80211_setup_rateset                           /opt/Espressif/esp-open-sdk/sdk/lib/libnet80211.a(ieee80211_input.o)
                                                  /opt/Espressif/esp-open-sdk/sdk/lib/libnet80211.a(wl_cnx.o)
ieee80211_setup_ratetable                         /opt/Espressif/esp-open-sdk/sdk/lib/libnet80211.a(ieee80211_phy.o)
ieee80211_sta_new_state                           /opt/Espressif/esp-open-sdk/sdk/lib/libnet80211.a(ieee80211_sta.o)
                                                  /opt/Espressif/esp-open-sdk/sdk/lib/libwpa.a(wpa_main.o)
                                                  /opt/Espressif/esp-open-sdk/sdk/lib/libnet80211.a(wl_cnx.o)
                                                  /opt/Espressif/esp-open-sdk/sdk/lib/libnet80211.a(ieee80211_proto.o)
                                                  /opt/Espressif/esp-open-sdk/sdk/lib/libmain.a(user_interface.o)
ieee80211_tx_mgt_cb                               /opt/Espressif/esp-open-sdk/sdk/lib/libnet80211.a(ieee80211_output.o)
                                                  /opt/Espressif/esp-open-sdk/sdk/lib/libnet80211.a(ieee80211_proto.o)
ieee80211_wme_initparams                          /opt/Espressif/esp-open-sdk/sdk/lib/libnet80211.a(ieee80211_proto.o)
ieee80211_wme_updateparams                        /opt/Espressif/esp-open-sdk/sdk/lib/libnet80211.a(ieee80211_proto.o)
                                                  /opt/Espressif/esp-open-sdk/sdk/lib/libnet80211.a(wl_cnx.o)
                                                  /opt/Espressif/esp-open-sdk/sdk/lib/libnet80211.a(ieee80211_sta.o)
if_ctrl                                           /opt/Espressif/esp-open-sdk/sdk/lib/libpp.a(if_hwctrl.o)
igmp_init                                         /opt/Espressif/esp-open-sdk/sdk/lib/liblwip.a(igmp.o)
                                                  /opt/Espressif/esp-open-sdk/sdk/lib/liblwip.a(init.o)
igmp_input                                        /opt/Espressif/esp-open-sdk/sdk/lib/liblwip.a(igmp.o)
                                                  /opt/Espressif/esp-open-sdk/sdk/lib/liblwip.a(ip.o)
igmp_joingroup                                    /opt/Espressif/esp-open-sdk/sdk/lib/liblwip.a(igmp.o)
                                                  /opt/Espressif/esp-open-sdk/sdk/lib/liblwip.a(mdns.o)
                                                  /opt/Espressif/esp-open-sdk/sdk/lib/liblwip.a(espconn_udp.o)
igmp_leavegroup                                   /opt/Espressif/esp-open-sdk/sdk/lib/liblwip.a(igmp.o)
                                                  /opt/Espressif/esp-open-sdk/sdk/lib/liblwip.a(mdns.o)
                                                  /opt/Espressif/esp-open-sdk/sdk/lib/liblwip.a(espconn_udp.o)
igmp_lookfor_group                                /opt/Espressif/esp-open-sdk/sdk/lib/liblwip.a(igmp.o)
                                                  /opt/Espressif/esp-open-sdk/sdk/lib/liblwip.a(ip.o)
igmp_report_groups                                /opt/Espressif/esp-open-sdk/sdk/lib/liblwip.a(igmp.o)
                                                  /opt/Espressif/esp-open-sdk/sdk/lib/liblwip.a(netif.o)
igmp_start                                        /opt/Espressif/esp-open-sdk/sdk/lib/liblwip.a(igmp.o)
                                                  /opt/Espressif/esp-open-sdk/sdk/lib/liblwip.a(netif.o)
igmp_stop                                         /opt/Espressif/esp-open-sdk/sdk/lib/liblwip.a(igmp.o)
                                                  /opt/Espressif/esp-open-sdk/sdk/lib/liblwip.a(netif.o)
igmp_tmr                                          /opt/Espressif/esp-open-sdk/sdk/lib/liblwip.a(igmp.o)
                                                  /opt/Espressif/esp-open-sdk/sdk/lib/liblwip.a(timers.o)
inc_byte_array                                    /opt/Espressif/esp-open-sdk/sdk/lib/libwpa.a(common.o)
                                                  /opt/Espressif/esp-open-sdk/sdk/lib/libwpa.a(wpa.o)
                                                  /opt/Espressif/esp-open-sdk/sdk/lib/libwpa.a(wpa_auth.o)
inet_chksum                                       /opt/Espressif/esp-open-sdk/sdk/lib/liblwip.a(inet_chksum.o)
                                                  /opt/Espressif/esp-open-sdk/sdk/lib/liblwip.a(igmp.o)
                                                  /opt/Espressif/esp-open-sdk/sdk/lib/liblwip.a(icmp.o)
                                                  /opt/Espressif/esp-open-sdk/sdk/lib/liblwip.a(ip.o)
inet_chksum_pbuf                                  /opt/Espressif/esp-open-sdk/sdk/lib/liblwip.a(inet_chksum.o)
                                                  /opt/Espressif/esp-open-sdk/sdk/lib/liblwip.a(icmp.o)
inet_chksum_pseudo                                /opt/Espressif/esp-open-sdk/sdk/lib/liblwip.a(inet_chksum.o)
                                                  /opt/Espressif/esp-open-sdk/sdk/lib/liblwip.a(udp.o)
                                                  /opt/Espressif/esp-open-sdk/sdk/lib/liblwip.a(tcp_out.o)
                                                  /opt/Espressif/esp-open-sdk/sdk/lib/liblwip.a(tcp_in.o)
inet_chksum_pseudo_partial                        /opt/Espressif/esp-open-sdk/sdk/lib/liblwip.a(inet_chksum.o)
info                                              /opt/Espressif/esp-open-sdk/sdk/lib/libmain.a(app_main.o)
                                                  /opt/Espressif/esp-open-sdk/sdk/lib/libwpa.a(wpa_main.o)
                                                  /opt/Espressif/esp-open-sdk/sdk/lib/libnet80211.a(ieee80211_sta.o)
                                                  /opt/Espressif/esp-open-sdk/sdk/lib/libnet80211.a(ieee80211_hostap.o)
                                                  /opt/Espressif/esp-open-sdk/sdk/lib/libnet80211.a(ieee80211.o)
                                                  /opt/Espressif/esp-open-sdk/sdk/lib/libmain.a(user_interface.o)
init_cal_dcoffset                                 /opt/Espressif/esp-open-sdk/sdk/lib/libphy.a(phy_chip_v6_cal.o)
                                                  /opt/Espressif/esp-open-sdk/sdk/lib/libphy.a(phy_chip_v6.o)
init_timers                                       build/app_app.a(timer_hal.o)
interface_mask                                    /opt/Espressif/esp-open-sdk/sdk/lib/libpp.a(if_hwctrl.o)
ip4_addr_isbroadcast                              /opt/Espressif/esp-open-sdk/sdk/lib/liblwip.a(ip_addr.o)
                                                  /opt/Espressif/esp-open-sdk/sdk/lib/liblwip.a(icmp.o)
                                                  /opt/Espressif/esp-open-sdk/sdk/lib/liblwip.a(espconn_udp.o)
                                                  /opt/Espressif/esp-open-sdk/sdk/lib/liblwip.a(udp.o)
                                                  /opt/Espressif/esp-open-sdk/sdk/lib/liblwip.a(tcp_in.o)
                                                  /opt/Espressif/esp-open-sdk/sdk/lib/liblwip.a(ip.o)
                                                  /opt/Espressif/esp-open-sdk/sdk/lib/liblwip.a(etharp.o)
ip4_addr_netmask_valid                            /opt/Espressif/esp-open-sdk/sdk/lib/liblwip.a(ip_addr.o)
ip_addr_any                                       /opt/Espressif/esp-open-sdk/sdk/lib/liblwip.a(ip_addr.o)
                                                  /opt/Espressif/esp-open-sdk/sdk/lib/liblwip.a(mdns.o)
                                                  /opt/Espressif/esp-open-sdk/sdk/lib/liblwip.a(igmp.o)
                                                  /opt/Espressif/esp-open-sdk/sdk/lib/liblwip.a(espconn_udp.o)
                                                  /opt/Espressif/esp-open-sdk/sdk/lib/liblwip.a(sntp.o)
                                                  /opt/Espressif/esp-open-sdk/sdk/lib/liblwip.a(espconn_tcp.o)
                                                  /opt/Espressif/esp-open-sdk/sdk/lib/liblwip.a(dns.o)
                                                  /opt/Espressif/esp-open-sdk/sdk/lib/liblwip.a(dhcpserver.o)
                                                  /opt/Espressif/esp-open-sdk/sdk/lib/liblwip.a(dhcp.o)
ip_addr_broadcast                                 /opt/Espressif/esp-open-sdk/sdk/lib/liblwip.a(ip_addr.o)
                                                  /opt/Espressif/esp-open-sdk/sdk/lib/liblwip.a(dhcp.o)
ip_input                                          /opt/Espressif/esp-open-sdk/sdk/lib/liblwip.a(ip.o)
                                                  /opt/Espressif/esp-open-sdk/sdk/lib/liblwip.a(etharp.o)
ip_msg                                            build/app_app.a(network.o)
                                                  build/app_app.a(user_main.o)
ip_output                                         /opt/Espressif/esp-open-sdk/sdk/lib/liblwip.a(ip.o)
                                                  /opt/Espressif/esp-open-sdk/sdk/lib/liblwip.a(icmp.o)
                                                  /opt/Espressif/esp-open-sdk/sdk/lib/liblwip.a(tcp_out.o)
ip_output_if                                      /opt/Espressif/esp-open-sdk/sdk/lib/liblwip.a(ip.o)
                                                  /opt/Espressif/esp-open-sdk/sdk/lib/liblwip.a(icmp.o)
                                                  /opt/Espressif/esp-open-sdk/sdk/lib/liblwip.a(udp.o)
                                                  /opt/Espressif/esp-open-sdk/sdk/lib/liblwip.a(raw.o)
ip_output_if_opt                                  /opt/Espressif/esp-open-sdk/sdk/lib/liblwip.a(ip.o)
                                                  /opt/Espressif/esp-open-sdk/sdk/lib/liblwip.a(igmp.o)
ip_route                                          /opt/Espressif/esp-open-sdk/sdk/lib/liblwip.a(ip.o)
                                                  /opt/Espressif/esp-open-sdk/sdk/lib/liblwip.a(udp.o)
                                                  /opt/Espressif/esp-open-sdk/sdk/lib/liblwip.a(tcp_out.o)
                                                  /opt/Espressif/esp-open-sdk/sdk/lib/liblwip.a(tcp.o)
                                                  /opt/Espressif/esp-open-sdk/sdk/lib/liblwip.a(raw.o)
ip_router                                         /opt/Espressif/esp-open-sdk/sdk/lib/liblwip.a(ip.o)
ip_xpos                                           build/app_app.a(user_main.o)
ip_ypos                                           build/app_app.a(user_main.o)
ipaddr_addr                                       /opt/Espressif/esp-open-sdk/sdk/lib/liblwip.a(ip_addr.o)
                                                  /opt/Espressif/esp-open-sdk/sdk/lib/liblwip.a(mdns.o)
                                                  /opt/Espressif/esp-open-sdk/sdk/lib/liblwip.a(dns.o)
ipaddr_aton                                       /opt/Espressif/esp-open-sdk/sdk/lib/liblwip.a(ip_addr.o)
                                                  build/app_app.a(user_main.o)
ipaddr_ntoa                                       /opt/Espressif/esp-open-sdk/sdk/lib/liblwip.a(ip_addr.o)
ipaddr_ntoa_r                                     /opt/Espressif/esp-open-sdk/sdk/lib/liblwip.a(ip_addr.o)
kill_timer                                        build/app_app.a(timer.o)
lldesc_build_chain                                /opt/Espressif/esp-open-sdk/sdk/lib/libpp.a(wdev.o)
lldesc_num2link                                   /opt/Espressif/esp-open-sdk/sdk/lib/libpp.a(pp.o)
lmacConfMib                                       /opt/Espressif/esp-open-sdk/sdk/lib/libpp.a(lmac.o)
                                                  /opt/Espressif/esp-open-sdk/sdk/lib/libpp.a(trc.o)
lmacDiscardAgedMSDU                               /opt/Espressif/esp-open-sdk/sdk/lib/libpp.a(lmac.o)
                                                  /opt/Espressif/esp-open-sdk/sdk/lib/libpp.a(pp.o)
lmacInit                                          /opt/Espressif/esp-open-sdk/sdk/lib/libpp.a(lmac.o)
                                                  /opt/Espressif/esp-open-sdk/sdk/lib/libmain.a(app_main.o)
lmacInitAc                                        /opt/Espressif/esp-open-sdk/sdk/lib/libpp.a(lmac.o)
lmacIsActive                                      /opt/Espressif/esp-open-sdk/sdk/lib/libpp.a(lmac.o)
                                                  /opt/Espressif/esp-open-sdk/sdk/lib/libpp.a(wdev.o)
lmacIsIdle                                        /opt/Espressif/esp-open-sdk/sdk/lib/libpp.a(lmac.o)
                                                  /opt/Espressif/esp-open-sdk/sdk/lib/libpp.a(pp.o)
lmacMSDUAged                                      /opt/Espressif/esp-open-sdk/sdk/lib/libpp.a(lmac.o)
                                                  /opt/Espressif/esp-open-sdk/sdk/lib/libpp.a(pp.o)
lmacProcessAckTimeout                             /opt/Espressif/esp-open-sdk/sdk/lib/libpp.a(lmac.o)
                                                  /opt/Espressif/esp-open-sdk/sdk/lib/libpp.a(wdev.o)
lmacProcessCollision                              /opt/Espressif/esp-open-sdk/sdk/lib/libpp.a(lmac.o)
lmacProcessCollisions                             /opt/Espressif/esp-open-sdk/sdk/lib/libpp.a(lmac.o)
                                                  /opt/Espressif/esp-open-sdk/sdk/lib/libpp.a(wdev.o)
lmacProcessCtsTimeout                             /opt/Espressif/esp-open-sdk/sdk/lib/libpp.a(lmac.o)
                                                  /opt/Espressif/esp-open-sdk/sdk/lib/libpp.a(wdev.o)
lmacProcessRtsStart                               /opt/Espressif/esp-open-sdk/sdk/lib/libpp.a(lmac.o)
                                                  /opt/Espressif/esp-open-sdk/sdk/lib/libpp.a(wdev.o)
lmacProcessTXStartData                            /opt/Espressif/esp-open-sdk/sdk/lib/libpp.a(lmac.o)
                                                  /opt/Espressif/esp-open-sdk/sdk/lib/libpp.a(wdev.o)
lmacProcessTxError                                /opt/Espressif/esp-open-sdk/sdk/lib/libpp.a(lmac.o)
                                                  /opt/Espressif/esp-open-sdk/sdk/lib/libpp.a(wdev.o)
lmacProcessTxRtsError                             /opt/Espressif/esp-open-sdk/sdk/lib/libpp.a(lmac.o)
                                                  /opt/Espressif/esp-open-sdk/sdk/lib/libpp.a(wdev.o)
lmacProcessTxSuccess                              /opt/Espressif/esp-open-sdk/sdk/lib/libpp.a(lmac.o)
                                                  /opt/Espressif/esp-open-sdk/sdk/lib/libpp.a(wdev.o)
lmacRecycleMPDU                                   /opt/Espressif/esp-open-sdk/sdk/lib/libpp.a(lmac.o)
lmacRxDone                                        /opt/Espressif/esp-open-sdk/sdk/lib/libpp.a(lmac.o)
                                                  /opt/Espressif/esp-open-sdk/sdk/lib/libpp.a(wdev.o)
lmacSetAcParam                                    /opt/Espressif/esp-open-sdk/sdk/lib/libpp.a(lmac.o)
lmacSetRetryLimit                                 /opt/Espressif/esp-open-sdk/sdk/lib/libpp.a(lmac.o)
lmacTxFrame                                       /opt/Espressif/esp-open-sdk/sdk/lib/libpp.a(lmac.o)
                                                  /opt/Espressif/esp-open-sdk/sdk/lib/libpp.a(pp.o)
localtime                                         build/app_app.a(time.o)
localtime_r                                       build/app_app.a(time.o)
loop_pwctrl_correct_atten_high_power              /opt/Espressif/esp-open-sdk/sdk/lib/libphy.a(phy_chip_v6_cal.o)
                                                  /opt/Espressif/esp-open-sdk/sdk/lib/libphy.a(phy_chip_v6.o)
loop_pwctrl_pwdet_error_accum_high_power          /opt/Espressif/esp-open-sdk/sdk/lib/libphy.a(phy_chip_v6_cal.o)
                                                  /opt/Espressif/esp-open-sdk/sdk/lib/libphy.a(phy_chip_v6.o)
low_power_set                                     /opt/Espressif/esp-open-sdk/sdk/lib/libphy.a(phy_chip_v6_ana.o)
                                                  /opt/Espressif/esp-open-sdk/sdk/lib/libphy.a(phy_chip_v6.o)
lslp_mem_opt_8266                                 /opt/Espressif/esp-open-sdk/sdk/lib/libphy.a(phy_sleep.o)
lwip_init                                         /opt/Espressif/esp-open-sdk/sdk/lib/liblwip.a(init.o)
                                                  /opt/Espressif/esp-open-sdk/sdk/lib/libmain.a(app_main.o)
lwip_timer_interval                               /opt/Espressif/esp-open-sdk/sdk/lib/libmain.a(app_main.o)
                                                  /opt/Espressif/esp-open-sdk/sdk/lib/libpp.a(pm.o)
malloc                                            build/app_app.a(util.o)
master                                            build/app_app.a(user_main.o)
mdns_close                                        /opt/Espressif/esp-open-sdk/sdk/lib/liblwip.a(mdns.o)
                                                  /opt/Espressif/esp-open-sdk/sdk/lib/liblwip.a(espconn_udp.o)
mdns_disable                                      /opt/Espressif/esp-open-sdk/sdk/lib/liblwip.a(mdns.o)
                                                  /opt/Espressif/esp-open-sdk/sdk/lib/liblwip.a(espconn_udp.o)
mdns_enable                                       /opt/Espressif/esp-open-sdk/sdk/lib/liblwip.a(mdns.o)
                                                  /opt/Espressif/esp-open-sdk/sdk/lib/liblwip.a(espconn_udp.o)
mdns_get_hostname                                 /opt/Espressif/esp-open-sdk/sdk/lib/liblwip.a(mdns.o)
                                                  /opt/Espressif/esp-open-sdk/sdk/lib/liblwip.a(espconn_udp.o)
mdns_get_servername                               /opt/Espressif/esp-open-sdk/sdk/lib/liblwip.a(mdns.o)
                                                  /opt/Espressif/esp-open-sdk/sdk/lib/liblwip.a(espconn_udp.o)
mdns_init                                         /opt/Espressif/esp-open-sdk/sdk/lib/liblwip.a(mdns.o)
                                                  /opt/Espressif/esp-open-sdk/sdk/lib/liblwip.a(espconn_udp.o)
mdns_reg                                          /opt/Espressif/esp-open-sdk/sdk/lib/liblwip.a(mdns.o)
mdns_server_register                              /opt/Espressif/esp-open-sdk/sdk/lib/liblwip.a(mdns.o)
                                                  /opt/Espressif/esp-open-sdk/sdk/lib/liblwip.a(espconn_udp.o)
mdns_server_unregister                            /opt/Espressif/esp-open-sdk/sdk/lib/liblwip.a(mdns.o)
                                                  /opt/Espressif/esp-open-sdk/sdk/lib/liblwip.a(espconn_udp.o)
mdns_set_hostname                                 /opt/Espressif/esp-open-sdk/sdk/lib/liblwip.a(mdns.o)
                                                  /opt/Espressif/esp-open-sdk/sdk/lib/liblwip.a(espconn_udp.o)
mdns_set_name                                     /opt/Espressif/esp-open-sdk/sdk/lib/liblwip.a(mdns.o)
mdns_set_servername                               /opt/Espressif/esp-open-sdk/sdk/lib/liblwip.a(mdns.o)
                                                  /opt/Espressif/esp-open-sdk/sdk/lib/liblwip.a(espconn_udp.o)
mdns_timer                                        /opt/Espressif/esp-open-sdk/sdk/lib/liblwip.a(mdns.o)
meas_tone_pwr_db                                  /opt/Espressif/esp-open-sdk/sdk/lib/libphy.a(phy_chip_v6_cal.o)
memcpy                                            build/app_app.a(network.o)
memp_sizes                                        /opt/Espressif/esp-open-sdk/sdk/lib/liblwip.a(memp.o)
                                                  /opt/Espressif/esp-open-sdk/sdk/lib/liblwip.a(igmp.o)
                                                  /opt/Espressif/esp-open-sdk/sdk/lib/liblwip.a(udp.o)
                                                  /opt/Espressif/esp-open-sdk/sdk/lib/liblwip.a(timers.o)
                                                  /opt/Espressif/esp-open-sdk/sdk/lib/liblwip.a(tcp_out.o)
                                                  /opt/Espressif/esp-open-sdk/sdk/lib/liblwip.a(tcp.o)
                                                  /opt/Espressif/esp-open-sdk/sdk/lib/liblwip.a(raw.o)
                                                  /opt/Espressif/esp-open-sdk/sdk/lib/liblwip.a(pbuf.o)
                                                  /opt/Espressif/esp-open-sdk/sdk/lib/liblwip.a(etharp.o)
memp_sizes_test                                   /opt/Espressif/esp-open-sdk/sdk/lib/liblwip.a(memp.o)
memset                                            build/app_app.a(hspi.o)
                                                  build/app_app.a(time.o)
mktime                                            build/app_app.a(time.o)
modf                                              /opt/Espressif/esp-open-sdk/xtensa-lx106-elf/lib/gcc/xtensa-lx106-elf/4.8.2/../../../../xtensa-lx106-elf/lib/libm.a(lib_a-s_modf.o)
                                                  build/app_app.a(cordic.o)
                                                  build/app_app.a(printf.o)
netif_add                                         /opt/Espressif/esp-open-sdk/sdk/lib/liblwip.a(netif.o)
                                                  /opt/Espressif/esp-open-sdk/sdk/lib/libmain.a(eagle_lwip_if.o)
netif_default                                     /opt/Espressif/esp-open-sdk/sdk/lib/liblwip.a(netif.o)
                                                  /opt/Espressif/esp-open-sdk/sdk/lib/liblwip.a(ip.o)
                                                  /opt/Espressif/esp-open-sdk/sdk/lib/libmain.a(user_interface.o)
netif_find                                        /opt/Espressif/esp-open-sdk/sdk/lib/liblwip.a(netif.o)
netif_init                                        /opt/Espressif/esp-open-sdk/sdk/lib/liblwip.a(netif.o)
                                                  /opt/Espressif/esp-open-sdk/sdk/lib/liblwip.a(init.o)
netif_list                                        /opt/Espressif/esp-open-sdk/sdk/lib/liblwip.a(netif.o)
                                                  /opt/Espressif/esp-open-sdk/sdk/lib/liblwip.a(igmp.o)
                                                  /opt/Espressif/esp-open-sdk/sdk/lib/liblwip.a(ip.o)
                                                  /opt/Espressif/esp-open-sdk/sdk/lib/liblwip.a(dhcp.o)
netif_remove                                      /opt/Espressif/esp-open-sdk/sdk/lib/liblwip.a(netif.o)
                                                  /opt/Espressif/esp-open-sdk/sdk/lib/libmain.a(eagle_lwip_if.o)
netif_set_addr                                    /opt/Espressif/esp-open-sdk/sdk/lib/liblwip.a(netif.o)
                                                  /opt/Espressif/esp-open-sdk/sdk/lib/libwpa.a(wpa_main.o)
                                                  /opt/Espressif/esp-open-sdk/sdk/lib/libmain.a(eagle_lwip_if.o)
                                                  /opt/Espressif/esp-open-sdk/sdk/lib/libmain.a(user_interface.o)
netif_set_default                                 /opt/Espressif/esp-open-sdk/sdk/lib/liblwip.a(netif.o)
                                                  /opt/Espressif/esp-open-sdk/sdk/lib/liblwip.a(espconn_udp.o)
                                                  /opt/Espressif/esp-open-sdk/sdk/lib/libnet80211.a(ieee80211_hostap.o)
                                                  /opt/Espressif/esp-open-sdk/sdk/lib/libmain.a(user_interface.o)
                                                  /opt/Espressif/esp-open-sdk/sdk/lib/libmain.a(app_main.o)
netif_set_down                                    /opt/Espressif/esp-open-sdk/sdk/lib/liblwip.a(netif.o)
                                                  /opt/Espressif/esp-open-sdk/sdk/lib/liblwip.a(dhcp.o)
                                                  /opt/Espressif/esp-open-sdk/sdk/lib/libnet80211.a(wl_cnx.o)
                                                  /opt/Espressif/esp-open-sdk/sdk/lib/libnet80211.a(ieee80211_hostap.o)
netif_set_gw                                      /opt/Espressif/esp-open-sdk/sdk/lib/liblwip.a(netif.o)
                                                  /opt/Espressif/esp-open-sdk/sdk/lib/liblwip.a(dhcp.o)
netif_set_ipaddr                                  /opt/Espressif/esp-open-sdk/sdk/lib/liblwip.a(netif.o)
                                                  /opt/Espressif/esp-open-sdk/sdk/lib/liblwip.a(dhcp.o)
netif_set_link_down                               /opt/Espressif/esp-open-sdk/sdk/lib/liblwip.a(netif.o)
netif_set_link_up                                 /opt/Espressif/esp-open-sdk/sdk/lib/liblwip.a(netif.o)
netif_set_netmask                                 /opt/Espressif/esp-open-sdk/sdk/lib/liblwip.a(netif.o)
                                                  /opt/Espressif/esp-open-sdk/sdk/lib/liblwip.a(dhcp.o)
netif_set_up                                      /opt/Espressif/esp-open-sdk/sdk/lib/liblwip.a(netif.o)
                                                  /opt/Espressif/esp-open-sdk/sdk/lib/libwpa.a(wpa_main.o)
                                                  /opt/Espressif/esp-open-sdk/sdk/lib/liblwip.a(dhcp.o)
                                                  /opt/Espressif/esp-open-sdk/sdk/lib/libnet80211.a(ieee80211_hostap.o)
network_init                                      build/app_app.a(network.o)
                                                  build/app_app.a(user_main.o)
nextspace                                         build/app_app.a(util.o)
node_insert_to_list                               /opt/Espressif/esp-open-sdk/sdk/lib/liblwip.a(dhcpserver.o)
node_remove_from_list                             /opt/Espressif/esp-open-sdk/sdk/lib/liblwip.a(dhcpserver.o)
noise_array                                       /opt/Espressif/esp-open-sdk/sdk/lib/libphy.a(phy_chip_v6.o)
noise_check_loop                                  /opt/Espressif/esp-open-sdk/sdk/lib/libphy.a(phy_chip_v6.o)
                                                  /opt/Espressif/esp-open-sdk/sdk/lib/libnet80211.a(ieee80211_hostap.o)
                                                  /opt/Espressif/esp-open-sdk/sdk/lib/libpp.a(pp.o)
                                                  /opt/Espressif/esp-open-sdk/sdk/lib/libpp.a(pm_for_bcn_only_mode.o)
                                                  /opt/Espressif/esp-open-sdk/sdk/lib/libpp.a(pm.o)
                                                  /opt/Espressif/esp-open-sdk/sdk/lib/libphy.a(phy_sleep.o)
noise_init                                        /opt/Espressif/esp-open-sdk/sdk/lib/libphy.a(phy_chip_v6.o)
ntp_init                                          build/app_app.a(user_main.o)
ntp_setup                                         build/app_app.a(user_main.o)
operation_test                                    /opt/Espressif/esp-open-sdk/sdk/lib/libphy.a(phy_chip_v6_unused.o)
os_get_random                                     /opt/Espressif/esp-open-sdk/sdk/lib/libwpa.a(os_xtensa.o)
                                                  /opt/Espressif/esp-open-sdk/sdk/lib/libwpa.a(wpa.o)
                                                  /opt/Espressif/esp-open-sdk/sdk/lib/libwpa.a(wpa_auth.o)
os_get_time                                       /opt/Espressif/esp-open-sdk/sdk/lib/libwpa.a(os_xtensa.o)
                                                  /opt/Espressif/esp-open-sdk/sdk/lib/libwpa.a(common.o)
os_printf_plus                                    /opt/Espressif/esp-open-sdk/sdk/lib/libmain.a(user_interface.o)
                                                  /opt/Espressif/esp-open-sdk/sdk/lib/libwpa.a(wpa_main.o)
                                                  /opt/Espressif/esp-open-sdk/sdk/lib/liblwip.a(mdns.o)
                                                  /opt/Espressif/esp-open-sdk/sdk/lib/liblwip.a(sntp.o)
                                                  /opt/Espressif/esp-open-sdk/sdk/lib/liblwip.a(ip.o)
                                                  /opt/Espressif/esp-open-sdk/sdk/lib/liblwip.a(espconn_tcp.o)
                                                  /opt/Espressif/esp-open-sdk/sdk/lib/liblwip.a(dhcpserver.o)
                                                  /opt/Espressif/esp-open-sdk/sdk/lib/libnet80211.a(ieee80211_action_vendor.o)
                                                  /opt/Espressif/esp-open-sdk/sdk/lib/libnet80211.a(wl_cnx.o)
                                                  /opt/Espressif/esp-open-sdk/sdk/lib/libnet80211.a(ieee80211_scan.o)
                                                  /opt/Espressif/esp-open-sdk/sdk/lib/libnet80211.a(ieee80211_output.o)
                                                  /opt/Espressif/esp-open-sdk/sdk/lib/libnet80211.a(ieee80211_ht.o)
                                                  /opt/Espressif/esp-open-sdk/sdk/lib/libnet80211.a(ieee80211_hostap.o)
                                                  /opt/Espressif/esp-open-sdk/sdk/lib/libnet80211.a(ieee80211.o)
                                                  /opt/Espressif/esp-open-sdk/sdk/lib/libpp.a(trc.o)
                                                  /opt/Espressif/esp-open-sdk/sdk/lib/libpp.a(pp.o)
                                                  /opt/Espressif/esp-open-sdk/sdk/lib/libpp.a(pm_for_bcn_only_mode.o)
                                                  /opt/Espressif/esp-open-sdk/sdk/lib/libpp.a(pm.o)
                                                  /opt/Espressif/esp-open-sdk/sdk/lib/libpp.a(lmac.o)
                                                  /opt/Espressif/esp-open-sdk/sdk/lib/libpp.a(if_hwctrl.o)
                                                  /opt/Espressif/esp-open-sdk/sdk/lib/libphy.a(phy_chip_v6_unused.o)
                                                  /opt/Espressif/esp-open-sdk/sdk/lib/libphy.a(phy_chip_v6_cal.o)
                                                  /opt/Espressif/esp-open-sdk/sdk/lib/libphy.a(phy_chip_v6.o)
                                                  /opt/Espressif/esp-open-sdk/sdk/lib/libphy.a(phy_chip_v6_ana.o)
                                                  /opt/Espressif/esp-open-sdk/sdk/lib/libmain.a(eagle_lwip_if.o)
                                                  /opt/Espressif/esp-open-sdk/sdk/lib/libmain.a(app_main.o)
os_random                                         /opt/Espressif/esp-open-sdk/sdk/lib/libwpa.a(os_xtensa.o)
                                                  /opt/Espressif/esp-open-sdk/sdk/lib/liblwip.a(dns.o)
p8                                                build/app_app.a(util.o)
pbkdf2_sha1                                       /opt/Espressif/esp-open-sdk/sdk/lib/libwpa.a(wpa.o)
                                                  /opt/Espressif/esp-open-sdk/sdk/lib/libmain.a(user_interface.o)
pbuf_alloc                                        /opt/Espressif/esp-open-sdk/sdk/lib/liblwip.a(pbuf.o)
                                                  /opt/Espressif/esp-open-sdk/sdk/lib/libwpa.a(wpas_glue.o)
                                                  /opt/Espressif/esp-open-sdk/sdk/lib/libwpa.a(wpa_auth.o)
                                                  /opt/Espressif/esp-open-sdk/sdk/lib/liblwip.a(mdns.o)
                                                  /opt/Espressif/esp-open-sdk/sdk/lib/liblwip.a(igmp.o)
                                                  /opt/Espressif/esp-open-sdk/sdk/lib/liblwip.a(icmp.o)
                                                  /opt/Espressif/esp-open-sdk/sdk/lib/liblwip.a(espconn_udp.o)
                                                  /opt/Espressif/esp-open-sdk/sdk/lib/liblwip.a(udp.o)
                                                  /opt/Espressif/esp-open-sdk/sdk/lib/liblwip.a(tcp_out.o)
                                                  /opt/Espressif/esp-open-sdk/sdk/lib/liblwip.a(sntp.o)
                                                  /opt/Espressif/esp-open-sdk/sdk/lib/liblwip.a(raw.o)
                                                  /opt/Espressif/esp-open-sdk/sdk/lib/liblwip.a(etharp.o)
                                                  /opt/Espressif/esp-open-sdk/sdk/lib/liblwip.a(dns.o)
                                                  /opt/Espressif/esp-open-sdk/sdk/lib/liblwip.a(dhcpserver.o)
                                                  /opt/Espressif/esp-open-sdk/sdk/lib/liblwip.a(dhcp.o)
                                                  /opt/Espressif/esp-open-sdk/sdk/lib/libnet80211.a(ieee80211_input.o)
                                                  /opt/Espressif/esp-open-sdk/sdk/lib/libnet80211.a(ieee80211_hostap.o)
pbuf_cat                                          /opt/Espressif/esp-open-sdk/sdk/lib/liblwip.a(pbuf.o)
                                                  /opt/Espressif/esp-open-sdk/sdk/lib/liblwip.a(tcp_out.o)
pbuf_chain                                        /opt/Espressif/esp-open-sdk/sdk/lib/liblwip.a(pbuf.o)
                                                  /opt/Espressif/esp-open-sdk/sdk/lib/liblwip.a(udp.o)
                                                  /opt/Espressif/esp-open-sdk/sdk/lib/liblwip.a(raw.o)
pbuf_clen                                         /opt/Espressif/esp-open-sdk/sdk/lib/liblwip.a(pbuf.o)
                                                  /opt/Espressif/esp-open-sdk/sdk/lib/liblwip.a(tcp_out.o)
                                                  /opt/Espressif/esp-open-sdk/sdk/lib/liblwip.a(tcp_in.o)
pbuf_coalesce                                     /opt/Espressif/esp-open-sdk/sdk/lib/liblwip.a(pbuf.o)
pbuf_copy                                         /opt/Espressif/esp-open-sdk/sdk/lib/liblwip.a(pbuf.o)
                                                  /opt/Espressif/esp-open-sdk/sdk/lib/liblwip.a(icmp.o)
                                                  /opt/Espressif/esp-open-sdk/sdk/lib/liblwip.a(espconn_udp.o)
                                                  /opt/Espressif/esp-open-sdk/sdk/lib/liblwip.a(etharp.o)
pbuf_copy_partial                                 /opt/Espressif/esp-open-sdk/sdk/lib/liblwip.a(pbuf.o)
                                                  /opt/Espressif/esp-open-sdk/sdk/lib/liblwip.a(mdns.o)
                                                  /opt/Espressif/esp-open-sdk/sdk/lib/liblwip.a(espconn_udp.o)
                                                  /opt/Espressif/esp-open-sdk/sdk/lib/liblwip.a(tcp_out.o)
                                                  /opt/Espressif/esp-open-sdk/sdk/lib/liblwip.a(sntp.o)
                                                  /opt/Espressif/esp-open-sdk/sdk/lib/liblwip.a(espconn_tcp.o)
                                                  /opt/Espressif/esp-open-sdk/sdk/lib/liblwip.a(dns.o)
                                                  /opt/Espressif/esp-open-sdk/sdk/lib/liblwip.a(dhcp.o)
pbuf_dechain                                      /opt/Espressif/esp-open-sdk/sdk/lib/liblwip.a(pbuf.o)
pbuf_free                                         /opt/Espressif/esp-open-sdk/sdk/lib/liblwip.a(pbuf.o)
                                                  /opt/Espressif/esp-open-sdk/sdk/lib/liblwip.a(mdns.o)
                                                  /opt/Espressif/esp-open-sdk/sdk/lib/liblwip.a(igmp.o)
                                                  /opt/Espressif/esp-open-sdk/sdk/lib/liblwip.a(icmp.o)
                                                  /opt/Espressif/esp-open-sdk/sdk/lib/liblwip.a(espconn_udp.o)
                                                  /opt/Espressif/esp-open-sdk/sdk/lib/liblwip.a(udp.o)
                                                  /opt/Espressif/esp-open-sdk/sdk/lib/liblwip.a(tcp_out.o)
                                                  /opt/Espressif/esp-open-sdk/sdk/lib/liblwip.a(tcp.o)
                                                  /opt/Espressif/esp-open-sdk/sdk/lib/liblwip.a(tcp_in.o)
                                                  /opt/Espressif/esp-open-sdk/sdk/lib/liblwip.a(sntp.o)
                                                  /opt/Espressif/esp-open-sdk/sdk/lib/liblwip.a(raw.o)
                                                  /opt/Espressif/esp-open-sdk/sdk/lib/liblwip.a(ip.o)
                                                  /opt/Espressif/esp-open-sdk/sdk/lib/liblwip.a(etharp.o)
                                                  /opt/Espressif/esp-open-sdk/sdk/lib/liblwip.a(espconn_tcp.o)
                                                  /opt/Espressif/esp-open-sdk/sdk/lib/liblwip.a(dns.o)
                                                  /opt/Espressif/esp-open-sdk/sdk/lib/liblwip.a(dhcpserver.o)
                                                  /opt/Espressif/esp-open-sdk/sdk/lib/liblwip.a(dhcp.o)
                                                  /opt/Espressif/esp-open-sdk/sdk/lib/libnet80211.a(ieee80211_power.o)
                                                  /opt/Espressif/esp-open-sdk/sdk/lib/libpp.a(pp.o)
                                                  /opt/Espressif/esp-open-sdk/sdk/lib/libmain.a(eagle_lwip_if.o)
pbuf_get_at                                       /opt/Espressif/esp-open-sdk/sdk/lib/liblwip.a(pbuf.o)
pbuf_header                                       /opt/Espressif/esp-open-sdk/sdk/lib/liblwip.a(pbuf.o)
                                                  /opt/Espressif/esp-open-sdk/sdk/lib/liblwip.a(igmp.o)
                                                  /opt/Espressif/esp-open-sdk/sdk/lib/liblwip.a(icmp.o)
                                                  /opt/Espressif/esp-open-sdk/sdk/lib/liblwip.a(udp.o)
                                                  /opt/Espressif/esp-open-sdk/sdk/lib/liblwip.a(tcp_out.o)
                                                  /opt/Espressif/esp-open-sdk/sdk/lib/liblwip.a(tcp_in.o)
                                                  /opt/Espressif/esp-open-sdk/sdk/lib/liblwip.a(raw.o)
                                                  /opt/Espressif/esp-open-sdk/sdk/lib/liblwip.a(ip.o)
                                                  /opt/Espressif/esp-open-sdk/sdk/lib/liblwip.a(etharp.o)
pbuf_memcmp                                       /opt/Espressif/esp-open-sdk/sdk/lib/liblwip.a(pbuf.o)
pbuf_memfind                                      /opt/Espressif/esp-open-sdk/sdk/lib/liblwip.a(pbuf.o)
pbuf_realloc                                      /opt/Espressif/esp-open-sdk/sdk/lib/liblwip.a(pbuf.o)
                                                  /opt/Espressif/esp-open-sdk/sdk/lib/liblwip.a(mdns.o)
                                                  /opt/Espressif/esp-open-sdk/sdk/lib/liblwip.a(tcp_in.o)
                                                  /opt/Espressif/esp-open-sdk/sdk/lib/liblwip.a(ip.o)
                                                  /opt/Espressif/esp-open-sdk/sdk/lib/liblwip.a(dns.o)
                                                  /opt/Espressif/esp-open-sdk/sdk/lib/liblwip.a(dhcp.o)
pbuf_ref                                          /opt/Espressif/esp-open-sdk/sdk/lib/liblwip.a(pbuf.o)
                                                  /opt/Espressif/esp-open-sdk/sdk/lib/liblwip.a(etharp.o)
                                                  /opt/Espressif/esp-open-sdk/sdk/lib/libnet80211.a(ieee80211_output.o)
pbuf_strstr                                       /opt/Espressif/esp-open-sdk/sdk/lib/liblwip.a(pbuf.o)
pbuf_take                                         /opt/Espressif/esp-open-sdk/sdk/lib/liblwip.a(pbuf.o)
pbus_set_rxbbgain                                 /opt/Espressif/esp-open-sdk/sdk/lib/libphy.a(phy_chip_v6.o)
pend_flag_noise_check                             /opt/Espressif/esp-open-sdk/sdk/lib/libpp.a(pp.o)
                                                  /opt/Espressif/esp-open-sdk/sdk/lib/libpp.a(pm_for_bcn_only_mode.o)
                                                  /opt/Espressif/esp-open-sdk/sdk/lib/libpp.a(pm.o)
pend_flag_periodic_cal                            /opt/Espressif/esp-open-sdk/sdk/lib/libpp.a(pp.o)
                                                  /opt/Espressif/esp-open-sdk/sdk/lib/libpp.a(pm_for_bcn_only_mode.o)
                                                  /opt/Espressif/esp-open-sdk/sdk/lib/libpp.a(pm.o)
periodic_cal                                      /opt/Espressif/esp-open-sdk/sdk/lib/libphy.a(phy_chip_v6.o)
                                                  /opt/Espressif/esp-open-sdk/sdk/lib/libphy.a(phy_sleep.o)
periodic_cal_dc_num                               /opt/Espressif/esp-open-sdk/sdk/lib/libphy.a(phy_chip_v6.o)
periodic_cal_flag                                 /opt/Espressif/esp-open-sdk/sdk/lib/libphy.a(phy_chip_v6.o)
                                                  /opt/Espressif/esp-open-sdk/sdk/lib/libphy.a(phy_sleep.o)
periodic_cal_sat                                  /opt/Espressif/esp-open-sdk/sdk/lib/libphy.a(phy_sleep.o)
periodic_cal_top                                  /opt/Espressif/esp-open-sdk/sdk/lib/libphy.a(phy_chip_v6.o)
                                                  /opt/Espressif/esp-open-sdk/sdk/lib/libnet80211.a(ieee80211_hostap.o)
                                                  /opt/Espressif/esp-open-sdk/sdk/lib/libpp.a(pp.o)
                                                  /opt/Espressif/esp-open-sdk/sdk/lib/libpp.a(pm_for_bcn_only_mode.o)
                                                  /opt/Espressif/esp-open-sdk/sdk/lib/libpp.a(pm.o)
                                                  /opt/Espressif/esp-open-sdk/sdk/lib/libphy.a(phy_chip_v6_cal.o)
phy_afterwake_set_rfoption                        /opt/Espressif/esp-open-sdk/sdk/lib/libphy.a(phy_chip_v6.o)
                                                  /opt/Espressif/esp-open-sdk/sdk/lib/libmain.a(user_interface.o)
phy_bb_rx_cfg                                     /opt/Espressif/esp-open-sdk/sdk/lib/libphy.a(phy_chip_v6.o)
phy_change_channel                                /opt/Espressif/esp-open-sdk/sdk/lib/libphy.a(phy.o)
                                                  /opt/Espressif/esp-open-sdk/sdk/lib/libnet80211.a(wl_chm.o)
phy_delete_channel                                /opt/Espressif/esp-open-sdk/sdk/lib/libphy.a(phy.o)
phy_dig_spur_prot                                 /opt/Espressif/esp-open-sdk/sdk/lib/libphy.a(phy_chip_v6.o)
                                                  /opt/Espressif/esp-open-sdk/sdk/lib/libphy.a(phy_chip_v6_ana.o)
phy_dig_spur_set                                  /opt/Espressif/esp-open-sdk/sdk/lib/libphy.a(phy_chip_v6.o)
                                                  /opt/Espressif/esp-open-sdk/sdk/lib/libphy.a(phy_chip_v6_ana.o)
phy_disable_agc                                   /opt/Espressif/esp-open-sdk/sdk/lib/libphy.a(phy.o)
                                                  /opt/Espressif/esp-open-sdk/sdk/lib/libmain.a(app_main.o)
phy_enable_agc                                    /opt/Espressif/esp-open-sdk/sdk/lib/libphy.a(phy.o)
                                                  /opt/Espressif/esp-open-sdk/sdk/lib/libmain.a(app_main.o)
phy_freq_offset                                   /opt/Espressif/esp-open-sdk/sdk/lib/libphy.a(phy_chip_v6.o)
                                                  /opt/Espressif/esp-open-sdk/sdk/lib/libphy.a(phy_chip_v6_ana.o)
phy_get_bb_freqoffset                             /opt/Espressif/esp-open-sdk/sdk/lib/libphy.a(phy_chip_v6_cal.o)
                                                  /opt/Espressif/esp-open-sdk/sdk/lib/libpp.a(wdev.o)
phy_get_check_flag                                /opt/Espressif/esp-open-sdk/sdk/lib/libphy.a(phy_chip_v6_ana.o)
                                                  /opt/Espressif/esp-open-sdk/sdk/lib/libmain.a(user_interface.o)
phy_get_mactime                                   /opt/Espressif/esp-open-sdk/sdk/lib/libphy.a(phy.o)
phy_get_rand                                      /opt/Espressif/esp-open-sdk/sdk/lib/libphy.a(phy_chip_v6.o)
                                                  /opt/Espressif/esp-open-sdk/sdk/lib/libwpa.a(os_xtensa.o)
phy_get_romfuncs                                  /opt/Espressif/esp-open-sdk/sdk/lib/libphy.a(phy_chip_v6.o)
phy_get_vdd33                                     /opt/Espressif/esp-open-sdk/sdk/lib/libphy.a(phy_chip_v6_ana.o)
                                                  /opt/Espressif/esp-open-sdk/sdk/lib/libmain.a(user_interface.o)
phy_gpio_cfg                                      /opt/Espressif/esp-open-sdk/sdk/lib/libphy.a(phy_chip_v6.o)
phy_in_most_power                                 /opt/Espressif/esp-open-sdk/sdk/lib/libphy.a(phy_chip_v6.o)
phy_in_vdd33_offset                               /opt/Espressif/esp-open-sdk/sdk/lib/libphy.a(phy_chip_v6.o)
                                                  /opt/Espressif/esp-open-sdk/sdk/lib/libphy.a(phy_chip_v6_cal.o)
phy_init                                          /opt/Espressif/esp-open-sdk/sdk/lib/libphy.a(phy.o)
phy_initialize_bb                                 /opt/Espressif/esp-open-sdk/sdk/lib/libphy.a(phy.o)
phy_pbus_soc_cfg                                  /opt/Espressif/esp-open-sdk/sdk/lib/libphy.a(phy_chip_v6.o)
phy_set_most_tpw                                  /opt/Espressif/esp-open-sdk/sdk/lib/libphy.a(phy_chip_v6.o)
                                                  /opt/Espressif/esp-open-sdk/sdk/lib/libmain.a(user_interface.o)
phy_set_most_tpw_disbg                            /opt/Espressif/esp-open-sdk/sdk/lib/libphy.a(phy_chip_v6.o)
                                                  /opt/Espressif/esp-open-sdk/sdk/lib/libphy.a(phy_chip_v6_cal.o)
phy_set_most_tpw_index                            /opt/Espressif/esp-open-sdk/sdk/lib/libphy.a(phy_chip_v6.o)
                                                  /opt/Espressif/esp-open-sdk/sdk/lib/libphy.a(phy_chip_v6_cal.o)
phy_set_sense                                     /opt/Espressif/esp-open-sdk/sdk/lib/libphy.a(phy.o)
phy_vdd33_set_tpw                                 /opt/Espressif/esp-open-sdk/sdk/lib/libphy.a(phy_chip_v6.o)
                                                  /opt/Espressif/esp-open-sdk/sdk/lib/libmain.a(user_interface.o)
pktinfo                                           /opt/Espressif/esp-open-sdk/sdk/lib/liblwip.a(espconn.o)
                                                  /opt/Espressif/esp-open-sdk/sdk/lib/liblwip.a(espconn_tcp.o)
plink_active                                      /opt/Espressif/esp-open-sdk/sdk/lib/liblwip.a(espconn.o)
                                                  /opt/Espressif/esp-open-sdk/sdk/lib/liblwip.a(espconn_udp.o)
                                                  /opt/Espressif/esp-open-sdk/sdk/lib/liblwip.a(espconn_tcp.o)
pm_allow_tx                                       /opt/Espressif/esp-open-sdk/sdk/lib/libpp.a(pm.o)
                                                  /opt/Espressif/esp-open-sdk/sdk/lib/libpp.a(pp.o)
pm_assoc_parse                                    /opt/Espressif/esp-open-sdk/sdk/lib/libpp.a(pm.o)
                                                  /opt/Espressif/esp-open-sdk/sdk/lib/libpp.a(pp.o)
pm_attach                                         /opt/Espressif/esp-open-sdk/sdk/lib/libpp.a(pm.o)
                                                  /opt/Espressif/esp-open-sdk/sdk/lib/libmain.a(app_main.o)
pm_check_mac_idle                                 /opt/Espressif/esp-open-sdk/sdk/lib/libphy.a(phy_sleep.o)
pm_enable_gpio_wakeup                             /opt/Espressif/esp-open-sdk/sdk/lib/libpp.a(pm.o)
                                                  /opt/Espressif/esp-open-sdk/sdk/lib/libpp.a(pp.o)
pm_force_scan_unlock                              /opt/Espressif/esp-open-sdk/sdk/lib/libpp.a(pm.o)
                                                  /opt/Espressif/esp-open-sdk/sdk/lib/libnet80211.a(ieee80211_scan.o)
                                                  /opt/Espressif/esp-open-sdk/sdk/lib/libpp.a(if_hwctrl.o)
pm_get_ck170_period                               /opt/Espressif/esp-open-sdk/sdk/lib/libpp.a(pm.o)
                                                  /opt/Espressif/esp-open-sdk/sdk/lib/libpp.a(pm_for_bcn_only_mode.o)
pm_get_idle_wait_time                             /opt/Espressif/esp-open-sdk/sdk/lib/libpp.a(pm.o)
pm_get_sleep_type                                 /opt/Espressif/esp-open-sdk/sdk/lib/libpp.a(pm.o)
                                                  /opt/Espressif/esp-open-sdk/sdk/lib/libmain.a(user_interface.o)
pm_goto_sleep                                     /opt/Espressif/esp-open-sdk/sdk/lib/libphy.a(phy_sleep.o)
                                                  /opt/Espressif/esp-open-sdk/sdk/lib/libpp.a(pm_for_bcn_only_mode.o)
                                                  /opt/Espressif/esp-open-sdk/sdk/lib/libpp.a(pm.o)
                                                  /opt/Espressif/esp-open-sdk/sdk/lib/libphy.a(phy_chip_v6_unused.o)
pm_idle_sleep                                     /opt/Espressif/esp-open-sdk/sdk/lib/libpp.a(pm.o)
pm_is_open                                        /opt/Espressif/esp-open-sdk/sdk/lib/libpp.a(pm.o)
                                                  /opt/Espressif/esp-open-sdk/sdk/lib/libnet80211.a(ieee80211_scan.o)
                                                  /opt/Espressif/esp-open-sdk/sdk/lib/libpp.a(pm_for_bcn_only_mode.o)
                                                  /opt/Espressif/esp-open-sdk/sdk/lib/libmain.a(user_interface.o)
pm_is_waked                                       /opt/Espressif/esp-open-sdk/sdk/lib/libpp.a(pm.o)
                                                  /opt/Espressif/esp-open-sdk/sdk/lib/libnet80211.a(ieee80211_scan.o)
                                                  /opt/Espressif/esp-open-sdk/sdk/lib/libpp.a(pp.o)
                                                  /opt/Espressif/esp-open-sdk/sdk/lib/libmain.a(user_interface.o)
pm_onBcnRx                                        /opt/Espressif/esp-open-sdk/sdk/lib/libpp.a(pm.o)
                                                  /opt/Espressif/esp-open-sdk/sdk/lib/libpp.a(pp.o)
pm_open                                           /opt/Espressif/esp-open-sdk/sdk/lib/libpp.a(pm.o)
                                                  /opt/Espressif/esp-open-sdk/sdk/lib/libpp.a(if_hwctrl.o)
pm_open_rf                                        /opt/Espressif/esp-open-sdk/sdk/lib/libphy.a(phy_sleep.o)
                                                  /opt/Espressif/esp-open-sdk/sdk/lib/libmain.a(user_interface.o)
pm_post                                           /opt/Espressif/esp-open-sdk/sdk/lib/libpp.a(pm.o)
                                                  /opt/Espressif/esp-open-sdk/sdk/lib/libnet80211.a(ieee80211_scan.o)
                                                  /opt/Espressif/esp-open-sdk/sdk/lib/libpp.a(pp.o)
                                                  /opt/Espressif/esp-open-sdk/sdk/lib/libmain.a(user_interface.o)
pm_prepare_to_sleep                               /opt/Espressif/esp-open-sdk/sdk/lib/libphy.a(phy_sleep.o)
                                                  /opt/Espressif/esp-open-sdk/sdk/lib/libpp.a(pm_for_bcn_only_mode.o)
                                                  /opt/Espressif/esp-open-sdk/sdk/lib/libpp.a(pm.o)
pm_reset_idle_sleep                               /opt/Espressif/esp-open-sdk/sdk/lib/libpp.a(pm.o)
pm_rf_is_closed                                   /opt/Espressif/esp-open-sdk/sdk/lib/libpp.a(pm.o)
                                                  /opt/Espressif/esp-open-sdk/sdk/lib/libpp.a(pp.o)
pm_rtc2usec                                       /opt/Espressif/esp-open-sdk/sdk/lib/libphy.a(phy_sleep.o)
                                                  /opt/Espressif/esp-open-sdk/sdk/lib/libpp.a(pm_for_bcn_only_mode.o)
                                                  /opt/Espressif/esp-open-sdk/sdk/lib/libpp.a(pm.o)
pm_rtc_clock_cali                                 /opt/Espressif/esp-open-sdk/sdk/lib/libphy.a(phy_sleep.o)
                                                  /opt/Espressif/esp-open-sdk/sdk/lib/libpp.a(pm.o)
pm_rtc_clock_cali_proc                            /opt/Espressif/esp-open-sdk/sdk/lib/libpp.a(pm.o)
                                                  /opt/Espressif/esp-open-sdk/sdk/lib/libpp.a(pm_for_bcn_only_mode.o)
                                                  /opt/Espressif/esp-open-sdk/sdk/lib/libmain.a(user_interface.o)
pm_scan_lock                                      /opt/Espressif/esp-open-sdk/sdk/lib/libpp.a(pm.o)
                                                  /opt/Espressif/esp-open-sdk/sdk/lib/libnet80211.a(ieee80211_scan.o)
pm_scan_unlocked                                  /opt/Espressif/esp-open-sdk/sdk/lib/libpp.a(pm.o)
                                                  /opt/Espressif/esp-open-sdk/sdk/lib/libpp.a(pp.o)
pm_sdio_nidle                                     /opt/Espressif/esp-open-sdk/sdk/lib/libphy.a(phy_sleep.o)
pm_send_nullfunc                                  /opt/Espressif/esp-open-sdk/sdk/lib/libpp.a(pm.o)
pm_set_addr                                       /opt/Espressif/esp-open-sdk/sdk/lib/libpp.a(pm.o)
                                                  /opt/Espressif/esp-open-sdk/sdk/lib/libpp.a(pp.o)
pm_set_pll_xtal_wait_time                         /opt/Espressif/esp-open-sdk/sdk/lib/libphy.a(phy_sleep.o)
pm_set_sleep_btco                                 /opt/Espressif/esp-open-sdk/sdk/lib/libphy.a(phy_sleep.o)
pm_set_sleep_cycles                               /opt/Espressif/esp-open-sdk/sdk/lib/libphy.a(phy_sleep.o)
                                                  /opt/Espressif/esp-open-sdk/sdk/lib/libpp.a(pm_for_bcn_only_mode.o)
                                                  /opt/Espressif/esp-open-sdk/sdk/lib/libpp.a(pm.o)
                                                  /opt/Espressif/esp-open-sdk/sdk/lib/libphy.a(phy_chip_v6_unused.o)
                                                  /opt/Espressif/esp-open-sdk/sdk/lib/libphy.a(phy_chip_v6.o)
pm_set_sleep_mode                                 /opt/Espressif/esp-open-sdk/sdk/lib/libphy.a(phy_sleep.o)
                                                  /opt/Espressif/esp-open-sdk/sdk/lib/libpp.a(pm_for_bcn_only_mode.o)
                                                  /opt/Espressif/esp-open-sdk/sdk/lib/libpp.a(pm.o)
                                                  /opt/Espressif/esp-open-sdk/sdk/lib/libphy.a(phy_chip_v6_unused.o)
                                                  /opt/Espressif/esp-open-sdk/sdk/lib/libphy.a(phy_chip_v6.o)
                                                  /opt/Espressif/esp-open-sdk/sdk/lib/libphy.a(phy_chip_v6_ana.o)
pm_set_sleep_time                                 /opt/Espressif/esp-open-sdk/sdk/lib/libpp.a(pm.o)
                                                  /opt/Espressif/esp-open-sdk/sdk/lib/libmain.a(user_interface.o)
pm_set_sleep_type_from_upper                      /opt/Espressif/esp-open-sdk/sdk/lib/libpp.a(pm.o)
                                                  /opt/Espressif/esp-open-sdk/sdk/lib/libmain.a(user_interface.o)
pm_set_wakeup_btco                                /opt/Espressif/esp-open-sdk/sdk/lib/libphy.a(phy_sleep.o)
pm_set_wakeup_mac                                 /opt/Espressif/esp-open-sdk/sdk/lib/libphy.a(phy_sleep.o)
pm_shutdown                                       /opt/Espressif/esp-open-sdk/sdk/lib/libpp.a(pm.o)
                                                  /opt/Espressif/esp-open-sdk/sdk/lib/libpp.a(pm_for_bcn_only_mode.o)
                                                  /opt/Espressif/esp-open-sdk/sdk/lib/libpp.a(if_hwctrl.o)
pm_sleep_for                                      /opt/Espressif/esp-open-sdk/sdk/lib/libpp.a(pm.o)
                                                  /opt/Espressif/esp-open-sdk/sdk/lib/libpp.a(pp.o)
pm_sleep_opt                                      /opt/Espressif/esp-open-sdk/sdk/lib/libphy.a(phy_sleep.o)
pm_sleep_opt_bb_off                               /opt/Espressif/esp-open-sdk/sdk/lib/libphy.a(phy_sleep.o)
pm_sleep_opt_bb_on                                /opt/Espressif/esp-open-sdk/sdk/lib/libphy.a(phy_sleep.o)
pm_sleep_set_mac                                  /opt/Espressif/esp-open-sdk/sdk/lib/libphy.a(phy_sleep.o)
pm_suspend                                        /opt/Espressif/esp-open-sdk/sdk/lib/libpp.a(pm.o)
pm_try_scan_unlock                                /opt/Espressif/esp-open-sdk/sdk/lib/libpp.a(pm.o)
pm_unmask_bt                                      /opt/Espressif/esp-open-sdk/sdk/lib/libphy.a(phy_sleep.o)
pm_usec2rtc                                       /opt/Espressif/esp-open-sdk/sdk/lib/libphy.a(phy_sleep.o)
                                                  /opt/Espressif/esp-open-sdk/sdk/lib/libpp.a(pm_for_bcn_only_mode.o)
                                                  /opt/Espressif/esp-open-sdk/sdk/lib/libpp.a(pm.o)
pm_wait4wakeup                                    /opt/Espressif/esp-open-sdk/sdk/lib/libphy.a(phy_sleep.o)
                                                  /opt/Espressif/esp-open-sdk/sdk/lib/libpp.a(pm_for_bcn_only_mode.o)
                                                  /opt/Espressif/esp-open-sdk/sdk/lib/libpp.a(pm.o)
                                                  /opt/Espressif/esp-open-sdk/sdk/lib/libphy.a(phy_chip_v6_unused.o)
                                                  /opt/Espressif/esp-open-sdk/sdk/lib/libphy.a(phy_chip_v6.o)
pm_wakeup_init                                    /opt/Espressif/esp-open-sdk/sdk/lib/libphy.a(phy_sleep.o)
                                                  /opt/Espressif/esp-open-sdk/sdk/lib/libpp.a(pm_for_bcn_only_mode.o)
                                                  /opt/Espressif/esp-open-sdk/sdk/lib/libpp.a(pm.o)
                                                  /opt/Espressif/esp-open-sdk/sdk/lib/libphy.a(phy_chip_v6_unused.o)
                                                  /opt/Espressif/esp-open-sdk/sdk/lib/libphy.a(phy_chip_v6.o)
                                                  /opt/Espressif/esp-open-sdk/sdk/lib/libphy.a(phy_chip_v6_ana.o)
pm_wakeup_opt                                     /opt/Espressif/esp-open-sdk/sdk/lib/libphy.a(phy_sleep.o)
                                                  /opt/Espressif/esp-open-sdk/sdk/lib/libpp.a(pm_for_bcn_only_mode.o)
                                                  /opt/Espressif/esp-open-sdk/sdk/lib/libpp.a(pm.o)
                                                  /opt/Espressif/esp-open-sdk/sdk/lib/libphy.a(phy_chip_v6_unused.o)
                                                  /opt/Espressif/esp-open-sdk/sdk/lib/libphy.a(phy_chip_v6.o)
pmc                                               /opt/Espressif/esp-open-sdk/sdk/lib/libpp.a(pm.o)
ppCalFrameTimes                                   /opt/Espressif/esp-open-sdk/sdk/lib/libpp.a(pp.o)
                                                  /opt/Espressif/esp-open-sdk/sdk/lib/libpp.a(lmac.o)
ppCalTxop                                         /opt/Espressif/esp-open-sdk/sdk/lib/libpp.a(pp.o)
                                                  /opt/Espressif/esp-open-sdk/sdk/lib/libpp.a(lmac.o)
ppCheckTxIdle                                     /opt/Espressif/esp-open-sdk/sdk/lib/libpp.a(pp.o)
                                                  /opt/Espressif/esp-open-sdk/sdk/lib/libnet80211.a(ieee80211_scan.o)
                                                  /opt/Espressif/esp-open-sdk/sdk/lib/libpp.a(pm_for_bcn_only_mode.o)
                                                  /opt/Espressif/esp-open-sdk/sdk/lib/libpp.a(pm.o)
ppDequeueTxQ                                      /opt/Espressif/esp-open-sdk/sdk/lib/libpp.a(pp.o)
                                                  /opt/Espressif/esp-open-sdk/sdk/lib/libpp.a(lmac.o)
ppDiscardMPDU                                     /opt/Espressif/esp-open-sdk/sdk/lib/libpp.a(pp.o)
                                                  /opt/Espressif/esp-open-sdk/sdk/lib/libpp.a(lmac.o)
ppEnqueueRxq                                      /opt/Espressif/esp-open-sdk/sdk/lib/libpp.a(pp.o)
                                                  /opt/Espressif/esp-open-sdk/sdk/lib/libpp.a(lmac.o)
ppEnqueueTxDone                                   /opt/Espressif/esp-open-sdk/sdk/lib/libpp.a(pp.o)
                                                  /opt/Espressif/esp-open-sdk/sdk/lib/libpp.a(lmac.o)
ppFetchTxQFirstAvail                              /opt/Espressif/esp-open-sdk/sdk/lib/libpp.a(pp.o)
                                                  /opt/Espressif/esp-open-sdk/sdk/lib/libpp.a(lmac.o)
ppGetTxQFirstAvail_Locked                         /opt/Espressif/esp-open-sdk/sdk/lib/libpp.a(pp.o)
                                                  /opt/Espressif/esp-open-sdk/sdk/lib/libpp.a(lmac.o)
ppInstallKey                                      /opt/Espressif/esp-open-sdk/sdk/lib/libwpa.a(wpa_main.o)
                                                  /opt/Espressif/esp-open-sdk/sdk/lib/libnet80211.a(wl_cnx.o)
ppPeocessRxPktHdr                                 /opt/Espressif/esp-open-sdk/sdk/lib/libpp.a(pp.o)
ppProcessTxQ                                      /opt/Espressif/esp-open-sdk/sdk/lib/libpp.a(pp.o)
                                                  /opt/Espressif/esp-open-sdk/sdk/lib/libpp.a(lmac.o)
ppProcessWaitQ                                    /opt/Espressif/esp-open-sdk/sdk/lib/libpp.a(pp.o)
                                                  /opt/Espressif/esp-open-sdk/sdk/lib/libpp.a(pm_for_bcn_only_mode.o)
                                                  /opt/Espressif/esp-open-sdk/sdk/lib/libpp.a(pm.o)
ppRecordBarRRC                                    /opt/Espressif/esp-open-sdk/sdk/lib/libpp.a(pp.o)
                                                  /opt/Espressif/esp-open-sdk/sdk/lib/libpp.a(lmac.o)
ppRecycleRxPkt                                    /opt/Espressif/esp-open-sdk/sdk/lib/libpp.a(pp.o)
                                                  /opt/Espressif/esp-open-sdk/sdk/lib/libnet80211.a(ieee80211_sta.o)
                                                  /opt/Espressif/esp-open-sdk/sdk/lib/libnet80211.a(ieee80211_input.o)
                                                  /opt/Espressif/esp-open-sdk/sdk/lib/libnet80211.a(ieee80211_hostap.o)
                                                  /opt/Espressif/esp-open-sdk/sdk/lib/libmain.a(eagle_lwip_if.o)
                                                  /opt/Espressif/esp-open-sdk/sdk/lib/libmain.a(user_interface.o)
ppRegisterTxCallback                              /opt/Espressif/esp-open-sdk/sdk/lib/libpp.a(pp.o)
                                                  /opt/Espressif/esp-open-sdk/sdk/lib/libwpa.a(wpa_main.o)
                                                  /opt/Espressif/esp-open-sdk/sdk/lib/libnet80211.a(wl_cnx.o)
                                                  /opt/Espressif/esp-open-sdk/sdk/lib/libnet80211.a(ieee80211_proto.o)
                                                  /opt/Espressif/esp-open-sdk/sdk/lib/libnet80211.a(ieee80211_hostap.o)
                                                  /opt/Espressif/esp-open-sdk/sdk/lib/libpp.a(pm.o)
ppRollBackTxQ                                     /opt/Espressif/esp-open-sdk/sdk/lib/libpp.a(pp.o)
                                                  /opt/Espressif/esp-open-sdk/sdk/lib/libpp.a(lmac.o)
ppTxPkt                                           /opt/Espressif/esp-open-sdk/sdk/lib/libpp.a(pp.o)
                                                  /opt/Espressif/esp-open-sdk/sdk/lib/libnet80211.a(ieee80211_action_vendor.o)
                                                  /opt/Espressif/esp-open-sdk/sdk/lib/libnet80211.a(ieee80211_scan.o)
                                                  /opt/Espressif/esp-open-sdk/sdk/lib/libnet80211.a(ieee80211_power.o)
                                                  /opt/Espressif/esp-open-sdk/sdk/lib/libnet80211.a(ieee80211_output.o)
                                                  /opt/Espressif/esp-open-sdk/sdk/lib/libnet80211.a(ieee80211_hostap.o)
                                                  /opt/Espressif/esp-open-sdk/sdk/lib/libpp.a(pm.o)
ppTxqUpdateBitmap                                 /opt/Espressif/esp-open-sdk/sdk/lib/libpp.a(pp.o)
                                                  /opt/Espressif/esp-open-sdk/sdk/lib/libpp.a(lmac.o)
pp_attach                                         /opt/Espressif/esp-open-sdk/sdk/lib/libpp.a(pp.o)
                                                  /opt/Espressif/esp-open-sdk/sdk/lib/libmain.a(app_main.o)
pp_disable_idle_timer                             /opt/Espressif/esp-open-sdk/sdk/lib/libpp.a(pp.o)
                                                  /opt/Espressif/esp-open-sdk/sdk/lib/libpp.a(pm.o)
pp_disable_noise_timer                            /opt/Espressif/esp-open-sdk/sdk/lib/libpp.a(pp.o)
                                                  /opt/Espressif/esp-open-sdk/sdk/lib/libnet80211.a(ieee80211_hostap.o)
                                                  /opt/Espressif/esp-open-sdk/sdk/lib/libpp.a(pm_for_bcn_only_mode.o)
pp_enable_idle_timer                              /opt/Espressif/esp-open-sdk/sdk/lib/libpp.a(pp.o)
                                                  /opt/Espressif/esp-open-sdk/sdk/lib/libpp.a(pm.o)
pp_enable_noise_timer                             /opt/Espressif/esp-open-sdk/sdk/lib/libpp.a(pp.o)
pp_michael_mic_failure                            /opt/Espressif/esp-open-sdk/sdk/lib/libwpa.a(wpa.o)
pp_noise_test                                     /opt/Espressif/esp-open-sdk/sdk/lib/libpp.a(pp.o)
pp_post                                           /opt/Espressif/esp-open-sdk/sdk/lib/libpp.a(pp.o)
                                                  /opt/Espressif/esp-open-sdk/sdk/lib/libpp.a(lmac.o)
pp_post2                                          /opt/Espressif/esp-open-sdk/sdk/lib/libpp.a(pp.o)
                                                  /opt/Espressif/esp-open-sdk/sdk/lib/libpp.a(wdev.o)
pp_soft_wdt_feed                                  /opt/Espressif/esp-open-sdk/sdk/lib/libpp.a(pp.o)
pp_soft_wdt_init                                  /opt/Espressif/esp-open-sdk/sdk/lib/libpp.a(pp.o)
                                                  /opt/Espressif/esp-open-sdk/sdk/lib/libmain.a(app_main.o)
pp_soft_wdt_restart                               /opt/Espressif/esp-open-sdk/sdk/lib/libpp.a(pp.o)
                                                  /opt/Espressif/esp-open-sdk/sdk/lib/libpp.a(pm_for_bcn_only_mode.o)
                                                  /opt/Espressif/esp-open-sdk/sdk/lib/libpp.a(pm.o)
pp_soft_wdt_stop                                  /opt/Espressif/esp-open-sdk/sdk/lib/libpp.a(pp.o)
                                                  /opt/Espressif/esp-open-sdk/sdk/lib/libpp.a(pm_for_bcn_only_mode.o)
                                                  /opt/Espressif/esp-open-sdk/sdk/lib/libpp.a(pm.o)
pp_try_enable_idle_timer                          /opt/Espressif/esp-open-sdk/sdk/lib/libpp.a(pp.o)
                                                  /opt/Espressif/esp-open-sdk/sdk/lib/libpp.a(pm.o)
pp_tx_idle_timeout                                /opt/Espressif/esp-open-sdk/sdk/lib/libpp.a(pp.o)
premot                                            /opt/Espressif/esp-open-sdk/sdk/lib/liblwip.a(espconn.o)
promiscuous_cb                                    /opt/Espressif/esp-open-sdk/sdk/lib/libmain.a(user_interface.o)
                                                  /opt/Espressif/esp-open-sdk/sdk/lib/libpp.a(pp.o)
pserver_list                                      /opt/Espressif/esp-open-sdk/sdk/lib/liblwip.a(espconn.o)
                                                  /opt/Espressif/esp-open-sdk/sdk/lib/liblwip.a(espconn_tcp.o)
pvPortCalloc                                      /opt/Espressif/esp-open-sdk/sdk/lib/libmain.a(mem_manager.o)
pvPortMalloc                                      /opt/Espressif/esp-open-sdk/sdk/lib/libmain.a(mem_manager.o)
                                                  /opt/Espressif/esp-open-sdk/sdk/lib/libwpa.a(aes-internal-enc.o)
                                                  /opt/Espressif/esp-open-sdk/sdk/lib/libwpa.a(wpa_main.o)
                                                  /opt/Espressif/esp-open-sdk/sdk/lib/libwpa.a(wpa_auth_ie.o)
                                                  /opt/Espressif/esp-open-sdk/sdk/lib/libwpa.a(wpa_auth.o)
                                                  /opt/Espressif/esp-open-sdk/sdk/lib/libwpa.a(os_xtensa.o)
                                                  /opt/Espressif/esp-open-sdk/sdk/lib/libwpa.a(common.o)
                                                  /opt/Espressif/esp-open-sdk/sdk/lib/liblwip.a(igmp.o)
                                                  /opt/Espressif/esp-open-sdk/sdk/lib/liblwip.a(udp.o)
                                                  /opt/Espressif/esp-open-sdk/sdk/lib/liblwip.a(timers.o)
                                                  /opt/Espressif/esp-open-sdk/sdk/lib/liblwip.a(tcp_out.o)
                                                  /opt/Espressif/esp-open-sdk/sdk/lib/liblwip.a(tcp.o)
                                                  /opt/Espressif/esp-open-sdk/sdk/lib/liblwip.a(raw.o)
                                                  /opt/Espressif/esp-open-sdk/sdk/lib/liblwip.a(pbuf.o)
                                                  /opt/Espressif/esp-open-sdk/sdk/lib/liblwip.a(etharp.o)
                                                  /opt/Espressif/esp-open-sdk/sdk/lib/liblwip.a(dhcp.o)
                                                  /opt/Espressif/esp-open-sdk/sdk/lib/libnet80211.a(ieee80211_input.o)
                                                  /opt/Espressif/esp-open-sdk/sdk/lib/libpp.a(esf_buf.o)
                                                  /opt/Espressif/esp-open-sdk/sdk/lib/libpp.a(wdev.o)
                                                  build/app_app.a(util.o)
                                                  /opt/Espressif/esp-open-sdk/sdk/lib/libmain.a(eagle_lwip_if.o)
                                                  /opt/Espressif/esp-open-sdk/sdk/lib/libmain.a(user_interface.o)
                                                  /opt/Espressif/esp-open-sdk/sdk/lib/libmain.a(app_main.o)
pvPortRealloc                                     /opt/Espressif/esp-open-sdk/sdk/lib/libmain.a(mem_manager.o)
pvPortZalloc                                      /opt/Espressif/esp-open-sdk/sdk/lib/libmain.a(mem_manager.o)
                                                  /opt/Espressif/esp-open-sdk/sdk/lib/libwpa.a(wpa_auth.o)
                                                  /opt/Espressif/esp-open-sdk/sdk/lib/libwpa.a(ap_config.o)
                                                  /opt/Espressif/esp-open-sdk/sdk/lib/liblwip.a(mdns.o)
                                                  /opt/Espressif/esp-open-sdk/sdk/lib/liblwip.a(espconn_udp.o)
                                                  /opt/Espressif/esp-open-sdk/sdk/lib/liblwip.a(espconn.o)
                                                  /opt/Espressif/esp-open-sdk/sdk/lib/liblwip.a(espconn_tcp.o)
                                                  /opt/Espressif/esp-open-sdk/sdk/lib/liblwip.a(dhcpserver.o)
                                                  /opt/Espressif/esp-open-sdk/sdk/lib/libnet80211.a(wl_cnx.o)
                                                  /opt/Espressif/esp-open-sdk/sdk/lib/libnet80211.a(ieee80211_scan.o)
                                                  /opt/Espressif/esp-open-sdk/sdk/lib/libnet80211.a(ieee80211_hostap.o)
                                                  /opt/Espressif/esp-open-sdk/sdk/lib/libnet80211.a(ieee80211.o)
                                                  build/app_app.a(util.o)
                                                  build/app_app.a(user_main.o)
                                                  /opt/Espressif/esp-open-sdk/sdk/lib/libmain.a(user_interface.o)
                                                  /opt/Espressif/esp-open-sdk/sdk/lib/libmain.a(app_main.o)
pwctrl_debug                                      /opt/Espressif/esp-open-sdk/sdk/lib/libphy.a(phy_chip_v6.o)
                                                  /opt/Espressif/esp-open-sdk/sdk/lib/libphy.a(phy_chip_v6_cal.o)
pwrsave_flushq                                    /opt/Espressif/esp-open-sdk/sdk/lib/libnet80211.a(ieee80211_power.o)
                                                  /opt/Espressif/esp-open-sdk/sdk/lib/libnet80211.a(wl_cnx.o)
                                                  /opt/Espressif/esp-open-sdk/sdk/lib/libnet80211.a(ieee80211_hostap.o)
queue_del                                         build/app_app.a(queue.o)
queue_empty                                       build/app_app.a(queue.o)
                                                  build/app_app.a(uart.o)
queue_flush                                       build/app_app.a(queue.o)
queue_full                                        build/app_app.a(queue.o)
queue_new                                         build/app_app.a(queue.o)
                                                  build/app_app.a(uart.o)
queue_pop_buffer                                  build/app_app.a(queue.o)
queue_popc                                        build/app_app.a(queue.o)
                                                  build/app_app.a(uart.o)
queue_push_buffer                                 build/app_app.a(queue.o)
queue_pushc                                       build/app_app.a(queue.o)
                                                  build/app_app.a(uart.o)
queue_space                                       build/app_app.a(queue.o)
                                                  build/app_app.a(uart.o)
queue_used                                        build/app_app.a(queue.o)
r_rand                                            /opt/Espressif/esp-open-sdk/sdk/lib/libwpa.a(os_xtensa.o)
                                                  /opt/Espressif/esp-open-sdk/sdk/lib/liblwip.a(igmp.o)
ram_ana_inf_gating_en                             /opt/Espressif/esp-open-sdk/sdk/lib/libphy.a(phy_chip_v6_ana.o)
                                                  /opt/Espressif/esp-open-sdk/sdk/lib/libphy.a(phy_chip_v6.o)
ram_cal_tos_v60                                   /opt/Espressif/esp-open-sdk/sdk/lib/libphy.a(phy_chip_v6_cal.o)
                                                  /opt/Espressif/esp-open-sdk/sdk/lib/libphy.a(phy_chip_v6.o)
ram_chip_v6_rx_init                               /opt/Espressif/esp-open-sdk/sdk/lib/libphy.a(phy_chip_v6_ana.o)
                                                  /opt/Espressif/esp-open-sdk/sdk/lib/libphy.a(phy_chip_v6.o)
ram_get_bb_atten                                  /opt/Espressif/esp-open-sdk/sdk/lib/libphy.a(phy_chip_v6_cal.o)
ram_get_corr_power                                /opt/Espressif/esp-open-sdk/sdk/lib/libphy.a(phy_chip_v6.o)
ram_get_fm_sar_dout                               /opt/Espressif/esp-open-sdk/sdk/lib/libphy.a(phy_chip_v6_cal.o)
                                                  /opt/Espressif/esp-open-sdk/sdk/lib/libphy.a(phy_chip_v6.o)
ram_get_noisefloor                                /opt/Espressif/esp-open-sdk/sdk/lib/libphy.a(phy_chip_v6.o)
ram_pbus_debugmode                                /opt/Espressif/esp-open-sdk/sdk/lib/libphy.a(phy_chip_v6_ana.o)
                                                  /opt/Espressif/esp-open-sdk/sdk/lib/libphy.a(phy_chip_v6.o)
ram_pbus_set_rxgain                               /opt/Espressif/esp-open-sdk/sdk/lib/libphy.a(phy_chip_v6_ana.o)
                                                  /opt/Espressif/esp-open-sdk/sdk/lib/libphy.a(phy_chip_v6.o)
ram_pbus_xpd_tx_on                                /opt/Espressif/esp-open-sdk/sdk/lib/libphy.a(phy_chip_v6_ana.o)
                                                  /opt/Espressif/esp-open-sdk/sdk/lib/libphy.a(phy_chip_v6_cal.o)
                                                  /opt/Espressif/esp-open-sdk/sdk/lib/libphy.a(phy_chip_v6.o)
ram_restart_cal                                   /opt/Espressif/esp-open-sdk/sdk/lib/libphy.a(phy_chip_v6_ana.o)
                                                  /opt/Espressif/esp-open-sdk/sdk/lib/libphy.a(phy_chip_v6.o)
ram_rfcal_pwrctrl                                 /opt/Espressif/esp-open-sdk/sdk/lib/libphy.a(phy_chip_v6_cal.o)
                                                  /opt/Espressif/esp-open-sdk/sdk/lib/libphy.a(phy_chip_v6.o)
ram_rfcal_rxiq                                    /opt/Espressif/esp-open-sdk/sdk/lib/libphy.a(phy_chip_v6_cal.o)
                                                  /opt/Espressif/esp-open-sdk/sdk/lib/libphy.a(phy_chip_v6.o)
ram_rfcal_txcap                                   /opt/Espressif/esp-open-sdk/sdk/lib/libphy.a(phy_chip_v6_cal.o)
                                                  /opt/Espressif/esp-open-sdk/sdk/lib/libphy.a(phy_chip_v6.o)
ram_rfcal_txiq                                    /opt/Espressif/esp-open-sdk/sdk/lib/libphy.a(phy_chip_v6_cal.o)
                                                  /opt/Espressif/esp-open-sdk/sdk/lib/libphy.a(phy_chip_v6.o)
ram_rfpll_set_freq                                /opt/Espressif/esp-open-sdk/sdk/lib/libphy.a(phy_chip_v6_ana.o)
ram_rxiq_cover_mg_mp                              /opt/Espressif/esp-open-sdk/sdk/lib/libphy.a(phy_chip_v6_cal.o)
                                                  /opt/Espressif/esp-open-sdk/sdk/lib/libphy.a(phy_chip_v6.o)
ram_rxiq_get_mis                                  /opt/Espressif/esp-open-sdk/sdk/lib/libphy.a(phy_chip_v6_cal.o)
                                                  /opt/Espressif/esp-open-sdk/sdk/lib/libphy.a(phy_chip_v6.o)
ram_set_channel_freq                              /opt/Espressif/esp-open-sdk/sdk/lib/libphy.a(phy_chip_v6_ana.o)
ram_set_noise_floor                               /opt/Espressif/esp-open-sdk/sdk/lib/libphy.a(phy_chip_v6.o)
ram_set_txbb_atten                                /opt/Espressif/esp-open-sdk/sdk/lib/libphy.a(phy_chip_v6_cal.o)
                                                  /opt/Espressif/esp-open-sdk/sdk/lib/libphy.a(phy_chip_v6.o)
ram_start_noisefloor                              /opt/Espressif/esp-open-sdk/sdk/lib/libphy.a(phy_chip_v6.o)
ram_tx_mac_disable                                /opt/Espressif/esp-open-sdk/sdk/lib/libphy.a(phy_chip_v6.o)
ram_tx_mac_enable                                 /opt/Espressif/esp-open-sdk/sdk/lib/libphy.a(phy_chip_v6.o)
raw_bind                                          /opt/Espressif/esp-open-sdk/sdk/lib/liblwip.a(raw.o)
raw_connect                                       /opt/Espressif/esp-open-sdk/sdk/lib/liblwip.a(raw.o)
raw_input                                         /opt/Espressif/esp-open-sdk/sdk/lib/liblwip.a(raw.o)
                                                  /opt/Espressif/esp-open-sdk/sdk/lib/liblwip.a(ip.o)
raw_new                                           /opt/Espressif/esp-open-sdk/sdk/lib/liblwip.a(raw.o)
raw_recv                                          /opt/Espressif/esp-open-sdk/sdk/lib/liblwip.a(raw.o)
raw_remove                                        /opt/Espressif/esp-open-sdk/sdk/lib/liblwip.a(raw.o)
raw_send                                          /opt/Espressif/esp-open-sdk/sdk/lib/liblwip.a(raw.o)
raw_sendto                                        /opt/Espressif/esp-open-sdk/sdk/lib/liblwip.a(raw.o)
rc4_skip                                          /opt/Espressif/esp-open-sdk/sdk/lib/libwpa.a(wpa.o)
                                                  /opt/Espressif/esp-open-sdk/sdk/lib/libwpa.a(wpa_auth.o)
rcAttach                                          /opt/Espressif/esp-open-sdk/sdk/lib/libpp.a(trc.o)
                                                  /opt/Espressif/esp-open-sdk/sdk/lib/libpp.a(lmac.o)
rcGetRate                                         /opt/Espressif/esp-open-sdk/sdk/lib/libpp.a(trc.o)
                                                  /opt/Espressif/esp-open-sdk/sdk/lib/libpp.a(lmac.o)
rcGetSched                                        /opt/Espressif/esp-open-sdk/sdk/lib/libpp.a(trc.o)
                                                  /opt/Espressif/esp-open-sdk/sdk/lib/libpp.a(pp.o)
rcGetTrc                                          /opt/Espressif/esp-open-sdk/sdk/lib/libpp.a(trc.o)
rcReachRetryLimit                                 /opt/Espressif/esp-open-sdk/sdk/lib/libpp.a(trc.o)
                                                  /opt/Espressif/esp-open-sdk/sdk/lib/libpp.a(lmac.o)
rcUpdateDataRxDone                                /opt/Espressif/esp-open-sdk/sdk/lib/libpp.a(trc.o)
                                                  /opt/Espressif/esp-open-sdk/sdk/lib/libpp.a(wdev.o)
rcUpdatePhyMode                                   /opt/Espressif/esp-open-sdk/sdk/lib/libpp.a(trc.o)
                                                  /opt/Espressif/esp-open-sdk/sdk/lib/libpp.a(if_hwctrl.o)
rcUpdateRxDone                                    /opt/Espressif/esp-open-sdk/sdk/lib/libpp.a(trc.o)
                                                  /opt/Espressif/esp-open-sdk/sdk/lib/libpp.a(pp.o)
rcUpdateTxDone                                    /opt/Espressif/esp-open-sdk/sdk/lib/libpp.a(trc.o)
                                                  /opt/Espressif/esp-open-sdk/sdk/lib/libpp.a(lmac.o)
rc_cal                                            /opt/Espressif/esp-open-sdk/sdk/lib/libphy.a(phy_chip_v6_cal.o)
                                                  /opt/Espressif/esp-open-sdk/sdk/lib/libphy.a(phy_chip_v6.o)
rc_disable_trc                                    /opt/Espressif/esp-open-sdk/sdk/lib/libpp.a(trc.o)
                                                  /opt/Espressif/esp-open-sdk/sdk/lib/libpp.a(if_hwctrl.o)
rc_disable_trc_by_interface                       /opt/Espressif/esp-open-sdk/sdk/lib/libpp.a(trc.o)
                                                  /opt/Espressif/esp-open-sdk/sdk/lib/libpp.a(if_hwctrl.o)
rc_enable_trc                                     /opt/Espressif/esp-open-sdk/sdk/lib/libpp.a(trc.o)
                                                  /opt/Espressif/esp-open-sdk/sdk/lib/libpp.a(if_hwctrl.o)
rc_get_mask                                       /opt/Espressif/esp-open-sdk/sdk/lib/libpp.a(trc.o)
                                                  /opt/Espressif/esp-open-sdk/sdk/lib/libpp.a(pm.o)
rc_get_sta_trc                                    /opt/Espressif/esp-open-sdk/sdk/lib/libpp.a(trc.o)
                                                  /opt/Espressif/esp-open-sdk/sdk/lib/libpp.a(pm.o)
rc_get_trc                                        /opt/Espressif/esp-open-sdk/sdk/lib/libpp.a(trc.o)
                                                  /opt/Espressif/esp-open-sdk/sdk/lib/libpp.a(pp.o)
                                                  /opt/Espressif/esp-open-sdk/sdk/lib/libpp.a(pm.o)
                                                  /opt/Espressif/esp-open-sdk/sdk/lib/libpp.a(if_hwctrl.o)
rc_get_trc_by_index                               /opt/Espressif/esp-open-sdk/sdk/lib/libpp.a(trc.o)
                                                  /opt/Espressif/esp-open-sdk/sdk/lib/libnet80211.a(ieee80211_action_vendor.o)
                                                  /opt/Espressif/esp-open-sdk/sdk/lib/libnet80211.a(ieee80211_output.o)
                                                  /opt/Espressif/esp-open-sdk/sdk/lib/libnet80211.a(ieee80211_ht.o)
rc_only_sta_trc                                   /opt/Espressif/esp-open-sdk/sdk/lib/libpp.a(trc.o)
                                                  /opt/Espressif/esp-open-sdk/sdk/lib/libpp.a(if_hwctrl.o)
read_flash16                                      build/app_app.a(util.o)
read_flash32                                      build/app_app.a(util.o)
read_flash64                                      build/app_app.a(util.o)
read_flash8                                       build/app_app.a(util.o)
read_flash_ptr                                    build/app_app.a(util.o)
read_hw_noisefloor                                /opt/Espressif/esp-open-sdk/sdk/lib/libphy.a(phy_chip_v6.o)
                                                  /opt/Espressif/esp-open-sdk/sdk/lib/libpp.a(pp.o)
read_sar_dout                                     /opt/Espressif/esp-open-sdk/sdk/lib/libphy.a(phy_chip_v6_cal.o)
                                                  /opt/Espressif/esp-open-sdk/sdk/lib/libphy.a(phy_chip_v6_ana.o)
readvdd33                                         /opt/Espressif/esp-open-sdk/sdk/lib/libphy.a(phy_chip_v6_ana.o)
realtime_stamp                                    /opt/Espressif/esp-open-sdk/sdk/lib/liblwip.a(sntp.o)
reconnect_internal                                /opt/Espressif/esp-open-sdk/sdk/lib/libmain.a(user_interface.o)
reduce_current_init                               /opt/Espressif/esp-open-sdk/sdk/lib/libphy.a(phy_chip_v6.o)
register_chipv6_phy                               /opt/Espressif/esp-open-sdk/sdk/lib/libphy.a(phy_chip_v6.o)
                                                  /opt/Espressif/esp-open-sdk/sdk/lib/libphy.a(phy_sleep.o)
                                                  /opt/Espressif/esp-open-sdk/sdk/lib/libmain.a(app_main.o)
register_chipv6_phy_init_param                    /opt/Espressif/esp-open-sdk/sdk/lib/libphy.a(phy_chip_v6.o)
register_get_phy_addr                             /opt/Espressif/esp-open-sdk/sdk/lib/libphy.a(phy.o)
                                                  /opt/Espressif/esp-open-sdk/sdk/lib/libphy.a(phy_chip_v6.o)
register_ieee80211_action_vendor_get_key_cb       /opt/Espressif/esp-open-sdk/sdk/lib/libnet80211.a(ieee80211_action_vendor.o)
register_ieee80211_action_vendor_spec_cb          /opt/Espressif/esp-open-sdk/sdk/lib/libnet80211.a(ieee80211_action_vendor.o)
register_phy_ops                                  /opt/Espressif/esp-open-sdk/sdk/lib/libphy.a(phy.o)
                                                  /opt/Espressif/esp-open-sdk/sdk/lib/libphy.a(phy_chip_v6.o)
res_buf                                           /opt/Espressif/esp-open-sdk/sdk/lib/liblwip.a(sntp.o)
reset                                             build/app_app.a(util.o)
                                                  build/app_app.a(uart.o)
reset_noise_timer                                 /opt/Espressif/esp-open-sdk/sdk/lib/libpp.a(pp.o)
                                                  /opt/Espressif/esp-open-sdk/sdk/lib/libnet80211.a(ieee80211_hostap.o)
                                                  /opt/Espressif/esp-open-sdk/sdk/lib/libpp.a(pm_for_bcn_only_mode.o)
                                                  /opt/Espressif/esp-open-sdk/sdk/lib/libpp.a(pm.o)
reult                                             /opt/Espressif/esp-open-sdk/sdk/lib/liblwip.a(sntp.o)
rf_init                                           /opt/Espressif/esp-open-sdk/sdk/lib/libphy.a(phy.o)
rijndaelEncrypt                                   /opt/Espressif/esp-open-sdk/sdk/lib/libwpa.a(aes-internal-enc.o)
rijndaelKeySetupEnc                               /opt/Espressif/esp-open-sdk/sdk/lib/libwpa.a(aes-internal-enc.o)
rom_chip_v5_disable_cca                           /opt/Espressif/esp-open-sdk/sdk/lib/libphy.a(phy_chip_v6.o)
rom_chip_v5_enable_cca                            /opt/Espressif/esp-open-sdk/sdk/lib/libphy.a(phy_chip_v6.o)
rotate                                            build/app_app.a(cordic.o)
                                                  build/app_app.a(wire.o)
roundup2                                          /opt/Espressif/esp-open-sdk/sdk/lib/libnet80211.a(ieee80211_ets.o)
                                                  /opt/Espressif/esp-open-sdk/sdk/lib/libpp.a(wdev.o)
rsn_cipher_put_suites                             /opt/Espressif/esp-open-sdk/sdk/lib/libwpa.a(wpa_common.o)
                                                  /opt/Espressif/esp-open-sdk/sdk/lib/libwpa.a(wpa_auth_ie.o)
rsn_pmkid                                         /opt/Espressif/esp-open-sdk/sdk/lib/libwpa.a(wpa_common.o)
                                                  /opt/Espressif/esp-open-sdk/sdk/lib/libwpa.a(wpa_auth.o)
rst_if                                            /opt/Espressif/esp-open-sdk/sdk/lib/libmain.a(user_interface.o)
                                                  /opt/Espressif/esp-open-sdk/sdk/lib/libmain.a(app_main.o)
rtc_get_reset_reason                              /opt/Espressif/esp-open-sdk/sdk/lib/libphy.a(phy_chip_v6_unused.o)
rtc_mem_backup                                    /opt/Espressif/esp-open-sdk/sdk/lib/libphy.a(phy_chip_v6.o)
                                                  /opt/Espressif/esp-open-sdk/sdk/lib/libphy.a(phy_chip_v6_unused.o)
rtc_mem_check                                     /opt/Espressif/esp-open-sdk/sdk/lib/libphy.a(phy_chip_v6.o)
rtc_mem_check_fail                                /opt/Espressif/esp-open-sdk/sdk/lib/libphy.a(phy_chip_v6.o)
                                                  /opt/Espressif/esp-open-sdk/sdk/lib/libphy.a(phy_chip_v6_ana.o)
rtc_mem_recovery                                  /opt/Espressif/esp-open-sdk/sdk/lib/libphy.a(phy_chip_v6.o)
rtc_recovery_en                                   /opt/Espressif/esp-open-sdk/sdk/lib/libphy.a(phy_chip_v6.o)
rx_fifo_empty                                     build/app_app.a(uart.o)
rx_fifo_flush                                     build/app_app.a(uart.o)
rx_fifo_free                                      build/app_app.a(uart.o)
rx_fifo_getc                                      build/app_app.a(uart.o)
rx_fifo_read                                      build/app_app.a(uart.o)
rx_fifo_used                                      build/app_app.a(uart.o)
rx_gain_swp                                       /opt/Espressif/esp-open-sdk/sdk/lib/libphy.a(phy_chip_v6.o)
rxdc_init_flag                                    /opt/Espressif/esp-open-sdk/sdk/lib/libphy.a(phy_chip_v6.o)
rxiq_compute_num                                  /opt/Espressif/esp-open-sdk/sdk/lib/libphy.a(phy_chip_v6.o)
rxiq_cover_fail_num                               /opt/Espressif/esp-open-sdk/sdk/lib/libphy.a(phy_chip_v6_cal.o)
s                                                 /opt/Espressif/esp-open-sdk/sdk/lib/liblwip.a(dhcpserver.o)
scale_point                                       build/app_app.a(cordic.o)
scan_add_bssid                                    /opt/Espressif/esp-open-sdk/sdk/lib/libnet80211.a(ieee80211_scan.o)
                                                  /opt/Espressif/esp-open-sdk/sdk/lib/libnet80211.a(wl_cnx.o)
scan_add_probe_ssid                               /opt/Espressif/esp-open-sdk/sdk/lib/libnet80211.a(ieee80211_scan.o)
                                                  /opt/Espressif/esp-open-sdk/sdk/lib/libnet80211.a(wl_cnx.o)
scan_cancel                                       /opt/Espressif/esp-open-sdk/sdk/lib/libnet80211.a(ieee80211_scan.o)
                                                  /opt/Espressif/esp-open-sdk/sdk/lib/libmain.a(user_interface.o)
scan_check_hidden                                 /opt/Espressif/esp-open-sdk/sdk/lib/libnet80211.a(ieee80211_scan.o)
scan_clear_channles                               /opt/Espressif/esp-open-sdk/sdk/lib/libnet80211.a(ieee80211_scan.o)
scan_connect_state                                /opt/Espressif/esp-open-sdk/sdk/lib/libnet80211.a(ieee80211_scan.o)
                                                  /opt/Espressif/esp-open-sdk/sdk/lib/libpp.a(pp.o)
scan_get_type                                     /opt/Espressif/esp-open-sdk/sdk/lib/libnet80211.a(ieee80211_scan.o)
                                                  /opt/Espressif/esp-open-sdk/sdk/lib/libnet80211.a(wl_cnx.o)
scan_hidden_ssid                                  /opt/Espressif/esp-open-sdk/sdk/lib/libnet80211.a(ieee80211_scan.o)
                                                  /opt/Espressif/esp-open-sdk/sdk/lib/libnet80211.a(wl_cnx.o)
scan_parse_beacon                                 /opt/Espressif/esp-open-sdk/sdk/lib/libnet80211.a(ieee80211_scan.o)
                                                  /opt/Espressif/esp-open-sdk/sdk/lib/libnet80211.a(ieee80211_sta.o)
scan_pm_channel_op_cb                             /opt/Espressif/esp-open-sdk/sdk/lib/libnet80211.a(ieee80211_scan.o)
scan_profile_check                                /opt/Espressif/esp-open-sdk/sdk/lib/libnet80211.a(ieee80211_scan.o)
scan_remove_bssid                                 /opt/Espressif/esp-open-sdk/sdk/lib/libnet80211.a(ieee80211_scan.o)
                                                  /opt/Espressif/esp-open-sdk/sdk/lib/libnet80211.a(wl_cnx.o)
scan_remove_probe_ssid                            /opt/Espressif/esp-open-sdk/sdk/lib/libnet80211.a(ieee80211_scan.o)
scan_set_desChan                                  /opt/Espressif/esp-open-sdk/sdk/lib/libnet80211.a(ieee80211_scan.o)
                                                  /opt/Espressif/esp-open-sdk/sdk/lib/libnet80211.a(wl_cnx.o)
scan_start                                        /opt/Espressif/esp-open-sdk/sdk/lib/libnet80211.a(ieee80211_scan.o)
                                                  /opt/Espressif/esp-open-sdk/sdk/lib/libnet80211.a(wl_cnx.o)
scannum                                           /opt/Espressif/esp-open-sdk/sdk/lib/libnet80211.a(ieee80211_scan.o)
                                                  /opt/Espressif/esp-open-sdk/sdk/lib/libmain.a(user_interface.o)
sdt_on_noise_start                                /opt/Espressif/esp-open-sdk/sdk/lib/libphy.a(phy_chip_v6.o)
set_cal_rxdc                                      /opt/Espressif/esp-open-sdk/sdk/lib/libphy.a(phy_chip_v6.o)
set_crystal_uart                                  /opt/Espressif/esp-open-sdk/sdk/lib/libphy.a(phy_chip_v6.o)
set_dpd_bypass                                    /opt/Espressif/esp-open-sdk/sdk/lib/libphy.a(phy_chip_v6.o)
set_most_pwr_reg                                  /opt/Espressif/esp-open-sdk/sdk/lib/libphy.a(phy_chip_v6.o)
set_rf_freq_offset                                /opt/Espressif/esp-open-sdk/sdk/lib/libphy.a(phy_chip_v6_ana.o)
set_rf_gain_stage10                               /opt/Espressif/esp-open-sdk/sdk/lib/libphy.a(phy_chip_v6.o)
set_rfanagain_dc_reg                              /opt/Espressif/esp-open-sdk/sdk/lib/libphy.a(phy_chip_v6_cal.o)
                                                  /opt/Espressif/esp-open-sdk/sdk/lib/libphy.a(phy_chip_v6.o)
set_rx_gain_cal_iq                                /opt/Espressif/esp-open-sdk/sdk/lib/libphy.a(phy_chip_v6.o)
set_rx_gain_testchip_50                           /opt/Espressif/esp-open-sdk/sdk/lib/libphy.a(phy_chip_v6.o)
set_timers                                        build/app_app.a(timer.o)
                                                  build/app_app.a(timer_hal.o)
set_txcap_reg                                     /opt/Espressif/esp-open-sdk/sdk/lib/libphy.a(phy_chip_v6_ana.o)
                                                  /opt/Espressif/esp-open-sdk/sdk/lib/libphy.a(phy_chip_v6.o)
set_txdc_pbus                                     /opt/Espressif/esp-open-sdk/sdk/lib/libphy.a(phy_chip_v6_cal.o)
                                                  /opt/Espressif/esp-open-sdk/sdk/lib/libphy.a(phy_chip_v6.o)
setdate_r                                         build/app_app.a(time.o)
                                                  build/app_app.a(user_main.o)
settimeofday                                      build/app_app.a(time.o)
                                                  build/app_app.a(user_main.o)
settimezone                                       build/app_app.a(time.o)
setup_networking                                  build/app_app.a(network.o)
                                                  build/app_app.a(user_main.o)
sha1_prf                                          /opt/Espressif/esp-open-sdk/sdk/lib/libwpa.a(wpa_common.o)
                                                  /opt/Espressif/esp-open-sdk/sdk/lib/libwpa.a(wpa_auth.o)
shift_point                                       build/app_app.a(cordic.o)
signal_loop                                       build/app_app.a(user_main.o)
skip_atoi                                         /opt/Espressif/esp-open-sdk/sdk/lib/libmain.a(eagle_lib.o)
skipchars                                         build/app_app.a(util.o)
skipspaces                                        build/app_app.a(util.o)
                                                  build/app_app.a(user_main.o)
sleep_opt_8266                                    /opt/Espressif/esp-open-sdk/sdk/lib/libphy.a(phy_sleep.o)
sleep_opt_bb_on_8266                              /opt/Espressif/esp-open-sdk/sdk/lib/libphy.a(phy_sleep.o)
sleep_reset_analog_rtcreg_8266                    /opt/Espressif/esp-open-sdk/sdk/lib/libphy.a(phy_sleep.o)
                                                  /opt/Espressif/esp-open-sdk/sdk/lib/libmain.a(app_main.o)
sleep_start_wait_time                             /opt/Espressif/esp-open-sdk/sdk/lib/libpp.a(pp.o)
                                                  /opt/Espressif/esp-open-sdk/sdk/lib/libpp.a(pm.o)
slop_test                                         /opt/Espressif/esp-open-sdk/sdk/lib/libphy.a(phy_chip_v6_unused.o)
slop_wdt_feed                                     /opt/Espressif/esp-open-sdk/sdk/lib/libphy.a(phy_chip_v6_unused.o)
sntp__tzcalc_limits                               /opt/Espressif/esp-open-sdk/sdk/lib/liblwip.a(sntp.o)
sntp__tzrule                                      /opt/Espressif/esp-open-sdk/sdk/lib/liblwip.a(sntp.o)
sntp_asctime                                      /opt/Espressif/esp-open-sdk/sdk/lib/liblwip.a(sntp.o)
sntp_asctime_r                                    /opt/Espressif/esp-open-sdk/sdk/lib/liblwip.a(sntp.o)
sntp_get_current_timestamp                        /opt/Espressif/esp-open-sdk/sdk/lib/liblwip.a(sntp.o)
                                                  build/app_app.a(user_main.o)
sntp_get_real_time                                /opt/Espressif/esp-open-sdk/sdk/lib/liblwip.a(sntp.o)
sntp_get_timezone                                 /opt/Espressif/esp-open-sdk/sdk/lib/liblwip.a(sntp.o)
sntp_getserver                                    /opt/Espressif/esp-open-sdk/sdk/lib/liblwip.a(sntp.o)
sntp_getservername                                /opt/Espressif/esp-open-sdk/sdk/lib/liblwip.a(sntp.o)
sntp_init                                         /opt/Espressif/esp-open-sdk/sdk/lib/liblwip.a(sntp.o)
                                                  build/app_app.a(user_main.o)
sntp_localtime                                    /opt/Espressif/esp-open-sdk/sdk/lib/liblwip.a(sntp.o)
sntp_localtime_r                                  /opt/Espressif/esp-open-sdk/sdk/lib/liblwip.a(sntp.o)
sntp_mktm_r                                       /opt/Espressif/esp-open-sdk/sdk/lib/liblwip.a(sntp.o)
sntp_set_timezone                                 /opt/Espressif/esp-open-sdk/sdk/lib/liblwip.a(sntp.o)
sntp_setserver                                    /opt/Espressif/esp-open-sdk/sdk/lib/liblwip.a(sntp.o)
                                                  build/app_app.a(user_main.o)
sntp_setservername                                /opt/Espressif/esp-open-sdk/sdk/lib/liblwip.a(sntp.o)
sntp_stop                                         /opt/Espressif/esp-open-sdk/sdk/lib/liblwip.a(sntp.o)
                                                  build/app_app.a(user_main.o)
sntp_time_inc                                     /opt/Espressif/esp-open-sdk/sdk/lib/liblwip.a(sntp.o)
soft_wdt_interval                                 /opt/Espressif/esp-open-sdk/sdk/lib/libpp.a(pp.o)
software_slp_reject                               /opt/Espressif/esp-open-sdk/sdk/lib/libphy.a(phy_sleep.o)
spi_flash_erase_sector                            /opt/Espressif/esp-open-sdk/sdk/lib/libmain.a(spi_flash.o)
                                                  /opt/Espressif/esp-open-sdk/sdk/lib/libmain.a(user_interface.o)
spi_flash_get_id                                  /opt/Espressif/esp-open-sdk/sdk/lib/libmain.a(spi_flash.o)
spi_flash_read                                    /opt/Espressif/esp-open-sdk/sdk/lib/libmain.a(spi_flash.o)
                                                  /opt/Espressif/esp-open-sdk/sdk/lib/libmain.a(user_interface.o)
                                                  /opt/Espressif/esp-open-sdk/sdk/lib/libmain.a(app_main.o)
spi_flash_read_status                             /opt/Espressif/esp-open-sdk/sdk/lib/libmain.a(spi_flash.o)
spi_flash_set_read_func                           /opt/Espressif/esp-open-sdk/sdk/lib/libmain.a(spi_flash.o)
spi_flash_write                                   /opt/Espressif/esp-open-sdk/sdk/lib/libmain.a(spi_flash.o)
                                                  /opt/Espressif/esp-open-sdk/sdk/lib/libmain.a(user_interface.o)
spi_flash_write_status                            /opt/Espressif/esp-open-sdk/sdk/lib/libmain.a(spi_flash.o)
sta_con_timer                                     /opt/Espressif/esp-open-sdk/sdk/lib/libnet80211.a(wl_cnx.o)
                                                  /opt/Espressif/esp-open-sdk/sdk/lib/libmain.a(user_interface.o)
sta_input                                         /opt/Espressif/esp-open-sdk/sdk/lib/libnet80211.a(ieee80211_sta.o)
                                                  /opt/Espressif/esp-open-sdk/sdk/lib/libpp.a(pp.o)
sta_status_set                                    /opt/Espressif/esp-open-sdk/sdk/lib/libnet80211.a(ieee80211_sta.o)
                                                  /opt/Espressif/esp-open-sdk/sdk/lib/libnet80211.a(wl_cnx.o)
stackok                                           build/app_app.a(cal_dex.o)
start_dig_rx                                      /opt/Espressif/esp-open-sdk/sdk/lib/libphy.a(phy_chip_v6.o)
                                                  /opt/Espressif/esp-open-sdk/sdk/lib/libphy.a(phy_chip_v6_ana.o)
status_led_output_level                           /opt/Espressif/esp-open-sdk/sdk/lib/libmain.a(user_interface.o)
stop_dig_rx                                       /opt/Espressif/esp-open-sdk/sdk/lib/libphy.a(phy_chip_v6.o)
                                                  /opt/Espressif/esp-open-sdk/sdk/lib/libphy.a(phy_chip_v6_ana.o)
stralloc                                          build/app_app.a(util.o)
strcpy                                            build/app_app.a(util.o)
strlen                                            build/app_app.a(util.o)
strnalloc                                         build/app_app.a(util.o)
strncmp                                           build/app_app.a(util.o)
strncpy                                           build/app_app.a(util.o)
strtol                                            build/app_app.a(printf.o)
                                                  build/app_app.a(time.o)
subtract_timespec                                 build/app_app.a(timer.o)
sw_scan_mode                                      /opt/Espressif/esp-open-sdk/sdk/lib/libphy.a(phy_chip_v6.o)
sys_check_timeouts                                /opt/Espressif/esp-open-sdk/sdk/lib/liblwip.a(timers.o)
                                                  /opt/Espressif/esp-open-sdk/sdk/lib/libmain.a(app_main.o)
sys_restart_timeouts                              /opt/Espressif/esp-open-sdk/sdk/lib/liblwip.a(timers.o)
sys_timeout                                       /opt/Espressif/esp-open-sdk/sdk/lib/liblwip.a(timers.o)
                                                  /opt/Espressif/esp-open-sdk/sdk/lib/liblwip.a(sntp.o)
sys_timeouts_init                                 /opt/Espressif/esp-open-sdk/sdk/lib/liblwip.a(timers.o)
                                                  /opt/Espressif/esp-open-sdk/sdk/lib/liblwip.a(init.o)
sys_untimeout                                     /opt/Espressif/esp-open-sdk/sdk/lib/liblwip.a(timers.o)
                                                  /opt/Espressif/esp-open-sdk/sdk/lib/liblwip.a(sntp.o)
system_adc_read                                   /opt/Espressif/esp-open-sdk/sdk/lib/libmain.a(user_interface.o)
                                                  build/app_app.a(user_main.o)
system_deep_sleep                                 /opt/Espressif/esp-open-sdk/sdk/lib/libmain.a(user_interface.o)
system_deep_sleep_set_option                      /opt/Espressif/esp-open-sdk/sdk/lib/libmain.a(user_interface.o)
system_get_boot_mode                              /opt/Espressif/esp-open-sdk/sdk/lib/libmain.a(user_interface.o)
system_get_boot_version                           /opt/Espressif/esp-open-sdk/sdk/lib/libmain.a(user_interface.o)
system_get_checksum                               /opt/Espressif/esp-open-sdk/sdk/lib/libmain.a(user_interface.o)
                                                  /opt/Espressif/esp-open-sdk/sdk/lib/libmain.a(app_main.o)
system_get_chip_id                                /opt/Espressif/esp-open-sdk/sdk/lib/libmain.a(user_interface.o)
system_get_cpu_freq                               /opt/Espressif/esp-open-sdk/sdk/lib/libmain.a(user_interface.o)
system_get_flash_size_map                         /opt/Espressif/esp-open-sdk/sdk/lib/libmain.a(user_interface.o)
system_get_free_heap_size                         /opt/Espressif/esp-open-sdk/sdk/lib/libmain.a(user_interface.o)
                                                  /opt/Espressif/esp-open-sdk/sdk/lib/liblwip.a(dhcpserver.o)
                                                  build/app_app.a(user_main.o)
system_get_os_print                               /opt/Espressif/esp-open-sdk/sdk/lib/libmain.a(user_interface.o)
system_get_rst_info                               /opt/Espressif/esp-open-sdk/sdk/lib/libmain.a(user_interface.o)
system_get_rtc_time                               /opt/Espressif/esp-open-sdk/sdk/lib/libmain.a(user_interface.o)
system_get_sdk_version                            /opt/Espressif/esp-open-sdk/sdk/lib/libmain.a(user_interface.o)
                                                  build/app_app.a(cal_dex.o)
system_get_test_result                            /opt/Espressif/esp-open-sdk/sdk/lib/libmain.a(user_interface.o)
system_get_time                                   /opt/Espressif/esp-open-sdk/sdk/lib/libmain.a(user_interface.o)
                                                  /opt/Espressif/esp-open-sdk/sdk/lib/liblwip.a(espconn.o)
                                                  /opt/Espressif/esp-open-sdk/sdk/lib/libmain.a(app_main.o)
system_get_userbin_addr                           /opt/Espressif/esp-open-sdk/sdk/lib/libmain.a(user_interface.o)
system_get_vdd33                                  /opt/Espressif/esp-open-sdk/sdk/lib/libmain.a(user_interface.o)
system_init_done_cb                               /opt/Espressif/esp-open-sdk/sdk/lib/libmain.a(user_interface.o)
                                                  build/app_app.a(user_main.o)
system_mktime                                     /opt/Espressif/esp-open-sdk/sdk/lib/libmain.a(user_interface.o)
system_os_post                                    /opt/Espressif/esp-open-sdk/sdk/lib/libmain.a(user_interface.o)
                                                  build/app_app.a(user_main.o)
system_os_task                                    /opt/Espressif/esp-open-sdk/sdk/lib/libmain.a(user_interface.o)
                                                  build/app_app.a(user_main.o)
system_overclock                                  /opt/Espressif/esp-open-sdk/sdk/lib/libmain.a(user_interface.o)
                                                  /opt/Espressif/esp-open-sdk/sdk/lib/libwpa.a(wpa.o)
system_param_load                                 /opt/Espressif/esp-open-sdk/sdk/lib/libmain.a(user_interface.o)
system_param_save_with_protect                    /opt/Espressif/esp-open-sdk/sdk/lib/libmain.a(user_interface.o)
system_phy_set_max_tpw                            /opt/Espressif/esp-open-sdk/sdk/lib/libmain.a(user_interface.o)
system_phy_set_rfoption                           /opt/Espressif/esp-open-sdk/sdk/lib/libmain.a(user_interface.o)
system_phy_set_tpw_via_vdd33                      /opt/Espressif/esp-open-sdk/sdk/lib/libmain.a(user_interface.o)
system_phy_temperature_alert                      /opt/Espressif/esp-open-sdk/sdk/lib/libmain.a(user_interface.o)
system_pp_recycle_rx_pkt                          /opt/Espressif/esp-open-sdk/sdk/lib/libmain.a(user_interface.o)
                                                  /opt/Espressif/esp-open-sdk/sdk/lib/liblwip.a(pbuf.o)
system_print_meminfo                              /opt/Espressif/esp-open-sdk/sdk/lib/libmain.a(user_interface.o)
system_relative_time                              /opt/Espressif/esp-open-sdk/sdk/lib/libmain.a(user_interface.o)
system_restart                                    /opt/Espressif/esp-open-sdk/sdk/lib/libmain.a(user_interface.o)
                                                  build/app_app.a(util.o)
system_restart_enhance                            /opt/Espressif/esp-open-sdk/sdk/lib/libmain.a(user_interface.o)
system_restart_local                              /opt/Espressif/esp-open-sdk/sdk/lib/libmain.a(user_interface.o)
                                                  /opt/Espressif/esp-open-sdk/sdk/lib/libpp.a(pp.o)
                                                  /opt/Espressif/esp-open-sdk/sdk/lib/libmain.a(app_main.o)
system_restore                                    /opt/Espressif/esp-open-sdk/sdk/lib/libmain.a(user_interface.o)
system_restoreclock                               /opt/Espressif/esp-open-sdk/sdk/lib/libmain.a(user_interface.o)
                                                  /opt/Espressif/esp-open-sdk/sdk/lib/libwpa.a(wpa.o)
system_rtc_clock_cali_proc                        /opt/Espressif/esp-open-sdk/sdk/lib/libmain.a(user_interface.o)
system_rtc_mem_read                               /opt/Espressif/esp-open-sdk/sdk/lib/libmain.a(user_interface.o)
                                                  /opt/Espressif/esp-open-sdk/sdk/lib/libmain.a(app_main.o)
system_rtc_mem_write                              /opt/Espressif/esp-open-sdk/sdk/lib/libmain.a(user_interface.o)
                                                  /opt/Espressif/esp-open-sdk/sdk/lib/libpp.a(pp.o)
                                                  /opt/Espressif/esp-open-sdk/sdk/lib/libmain.a(app_main.o)
system_save_sys_param                             /opt/Espressif/esp-open-sdk/sdk/lib/libmain.a(user_interface.o)
system_set_os_print                               /opt/Espressif/esp-open-sdk/sdk/lib/libmain.a(user_interface.o)
                                                  build/app_app.a(user_main.o)
system_soft_wdt_restart                           /opt/Espressif/esp-open-sdk/sdk/lib/libpp.a(pp.o)
system_soft_wdt_stop                              /opt/Espressif/esp-open-sdk/sdk/lib/libpp.a(pp.o)
system_station_got_ip_set                         /opt/Espressif/esp-open-sdk/sdk/lib/libmain.a(user_interface.o)
                                                  /opt/Espressif/esp-open-sdk/sdk/lib/libwpa.a(wpa_main.o)
                                                  /opt/Espressif/esp-open-sdk/sdk/lib/liblwip.a(dhcp.o)
system_timer_reinit                               /opt/Espressif/esp-open-sdk/sdk/lib/libmain.a(user_interface.o)
system_uart_de_swap                               /opt/Espressif/esp-open-sdk/sdk/lib/libmain.a(user_interface.o)
system_uart_swap                                  /opt/Espressif/esp-open-sdk/sdk/lib/libmain.a(user_interface.o)
system_update_cpu_freq                            /opt/Espressif/esp-open-sdk/sdk/lib/libmain.a(user_interface.o)
system_upgrade_flag_check                         /opt/Espressif/esp-open-sdk/sdk/lib/libmain.a(user_interface.o)
system_upgrade_flag_set                           /opt/Espressif/esp-open-sdk/sdk/lib/libmain.a(user_interface.o)
system_upgrade_reboot                             /opt/Espressif/esp-open-sdk/sdk/lib/libmain.a(user_interface.o)
system_upgrade_userbin_check                      /opt/Espressif/esp-open-sdk/sdk/lib/libmain.a(user_interface.o)
system_upgrade_userbin_set                        /opt/Espressif/esp-open-sdk/sdk/lib/libmain.a(user_interface.o)
t_snprintf                                        build/app_app.a(printf.o)
                                                  build/app_app.a(timer.o)
                                                  build/app_app.a(network.o)
                                                  build/app_app.a(time.o)
t_vsnprintf                                       build/app_app.a(printf.o)
                                                  build/app_app.a(pr.o)
                                                  build/app_app.a(debug.o)
target_power_add_backoff                          /opt/Espressif/esp-open-sdk/sdk/lib/libphy.a(phy_chip_v6.o)
target_power_backoff                              /opt/Espressif/esp-open-sdk/sdk/lib/libphy.a(phy_chip_v6.o)
tcb                                               /opt/Espressif/esp-open-sdk/sdk/lib/libpp.a(pp.o)
tcp_abandon                                       /opt/Espressif/esp-open-sdk/sdk/lib/liblwip.a(tcp.o)
                                                  /opt/Espressif/esp-open-sdk/sdk/lib/liblwip.a(tcp_in.o)
                                                  /opt/Espressif/esp-open-sdk/sdk/lib/liblwip.a(espconn_tcp.o)
tcp_abort                                         /opt/Espressif/esp-open-sdk/sdk/lib/liblwip.a(tcp.o)
                                                  /opt/Espressif/esp-open-sdk/sdk/lib/liblwip.a(tcp_in.o)
                                                  /opt/Espressif/esp-open-sdk/sdk/lib/liblwip.a(netif.o)
                                                  /opt/Espressif/esp-open-sdk/sdk/lib/liblwip.a(espconn_tcp.o)
tcp_accept                                        /opt/Espressif/esp-open-sdk/sdk/lib/liblwip.a(tcp.o)
                                                  /opt/Espressif/esp-open-sdk/sdk/lib/liblwip.a(espconn_tcp.o)
tcp_active_pcbs                                   /opt/Espressif/esp-open-sdk/sdk/lib/liblwip.a(tcp.o)
                                                  /opt/Espressif/esp-open-sdk/sdk/lib/liblwip.a(timers.o)
                                                  /opt/Espressif/esp-open-sdk/sdk/lib/liblwip.a(tcp_in.o)
                                                  /opt/Espressif/esp-open-sdk/sdk/lib/liblwip.a(netif.o)
                                                  /opt/Espressif/esp-open-sdk/sdk/lib/liblwip.a(espconn_tcp.o)
tcp_alloc                                         /opt/Espressif/esp-open-sdk/sdk/lib/liblwip.a(tcp.o)
                                                  /opt/Espressif/esp-open-sdk/sdk/lib/liblwip.a(tcp_in.o)
tcp_arg                                           /opt/Espressif/esp-open-sdk/sdk/lib/liblwip.a(tcp.o)
                                                  /opt/Espressif/esp-open-sdk/sdk/lib/liblwip.a(espconn_tcp.o)
tcp_backoff                                       /opt/Espressif/esp-open-sdk/sdk/lib/liblwip.a(tcp.o)
tcp_bind                                          /opt/Espressif/esp-open-sdk/sdk/lib/liblwip.a(tcp.o)
                                                  /opt/Espressif/esp-open-sdk/sdk/lib/liblwip.a(espconn_tcp.o)
tcp_bound_pcbs                                    /opt/Espressif/esp-open-sdk/sdk/lib/liblwip.a(tcp.o)
tcp_close                                         /opt/Espressif/esp-open-sdk/sdk/lib/liblwip.a(tcp.o)
                                                  /opt/Espressif/esp-open-sdk/sdk/lib/liblwip.a(espconn_tcp.o)
tcp_connect                                       /opt/Espressif/esp-open-sdk/sdk/lib/liblwip.a(tcp.o)
                                                  /opt/Espressif/esp-open-sdk/sdk/lib/liblwip.a(espconn_tcp.o)
tcp_eff_send_mss                                  /opt/Espressif/esp-open-sdk/sdk/lib/liblwip.a(tcp.o)
                                                  /opt/Espressif/esp-open-sdk/sdk/lib/liblwip.a(tcp_in.o)
tcp_enqueue_flags                                 /opt/Espressif/esp-open-sdk/sdk/lib/liblwip.a(tcp_out.o)
                                                  /opt/Espressif/esp-open-sdk/sdk/lib/liblwip.a(tcp.o)
                                                  /opt/Espressif/esp-open-sdk/sdk/lib/liblwip.a(tcp_in.o)
tcp_err                                           /opt/Espressif/esp-open-sdk/sdk/lib/liblwip.a(tcp.o)
                                                  /opt/Espressif/esp-open-sdk/sdk/lib/liblwip.a(espconn_tcp.o)
tcp_fasttmr                                       /opt/Espressif/esp-open-sdk/sdk/lib/liblwip.a(tcp.o)
tcp_input                                         /opt/Espressif/esp-open-sdk/sdk/lib/liblwip.a(tcp_in.o)
                                                  /opt/Espressif/esp-open-sdk/sdk/lib/liblwip.a(ip.o)
tcp_input_pcb                                     /opt/Espressif/esp-open-sdk/sdk/lib/liblwip.a(tcp_in.o)
                                                  /opt/Espressif/esp-open-sdk/sdk/lib/liblwip.a(tcp_out.o)
tcp_keepalive                                     /opt/Espressif/esp-open-sdk/sdk/lib/liblwip.a(tcp_out.o)
                                                  /opt/Espressif/esp-open-sdk/sdk/lib/liblwip.a(tcp.o)
tcp_listen_pcbs                                   /opt/Espressif/esp-open-sdk/sdk/lib/liblwip.a(tcp.o)
                                                  /opt/Espressif/esp-open-sdk/sdk/lib/liblwip.a(tcp_in.o)
                                                  /opt/Espressif/esp-open-sdk/sdk/lib/liblwip.a(netif.o)
tcp_listen_with_backlog                           /opt/Espressif/esp-open-sdk/sdk/lib/liblwip.a(tcp.o)
                                                  /opt/Espressif/esp-open-sdk/sdk/lib/liblwip.a(espconn_tcp.o)
tcp_new                                           /opt/Espressif/esp-open-sdk/sdk/lib/liblwip.a(tcp.o)
                                                  /opt/Espressif/esp-open-sdk/sdk/lib/liblwip.a(espconn_tcp.o)
tcp_next_iss                                      /opt/Espressif/esp-open-sdk/sdk/lib/liblwip.a(tcp.o)
tcp_output                                        /opt/Espressif/esp-open-sdk/sdk/lib/liblwip.a(tcp_out.o)
                                                  /opt/Espressif/esp-open-sdk/sdk/lib/liblwip.a(tcp.o)
                                                  /opt/Espressif/esp-open-sdk/sdk/lib/liblwip.a(tcp_in.o)
                                                  /opt/Espressif/esp-open-sdk/sdk/lib/liblwip.a(espconn_tcp.o)
tcp_pcb_lists                                     /opt/Espressif/esp-open-sdk/sdk/lib/liblwip.a(tcp.o)
                                                  /opt/Espressif/esp-open-sdk/sdk/lib/liblwip.a(espconn_tcp.o)
tcp_pcb_purge                                     /opt/Espressif/esp-open-sdk/sdk/lib/liblwip.a(tcp.o)
                                                  /opt/Espressif/esp-open-sdk/sdk/lib/liblwip.a(tcp_in.o)
                                                  /opt/Espressif/esp-open-sdk/sdk/lib/liblwip.a(espconn_tcp.o)
tcp_pcb_remove                                    /opt/Espressif/esp-open-sdk/sdk/lib/liblwip.a(tcp.o)
                                                  /opt/Espressif/esp-open-sdk/sdk/lib/liblwip.a(tcp_in.o)
                                                  /opt/Espressif/esp-open-sdk/sdk/lib/liblwip.a(espconn_tcp.o)
tcp_persist_backoff                               /opt/Espressif/esp-open-sdk/sdk/lib/liblwip.a(tcp.o)
tcp_poll                                          /opt/Espressif/esp-open-sdk/sdk/lib/liblwip.a(tcp.o)
                                                  /opt/Espressif/esp-open-sdk/sdk/lib/liblwip.a(espconn_tcp.o)
tcp_recv                                          /opt/Espressif/esp-open-sdk/sdk/lib/liblwip.a(tcp.o)
                                                  /opt/Espressif/esp-open-sdk/sdk/lib/liblwip.a(espconn_tcp.o)
tcp_recv_null                                     /opt/Espressif/esp-open-sdk/sdk/lib/liblwip.a(tcp.o)
                                                  /opt/Espressif/esp-open-sdk/sdk/lib/liblwip.a(tcp_in.o)
tcp_recved                                        /opt/Espressif/esp-open-sdk/sdk/lib/liblwip.a(tcp.o)
                                                  /opt/Espressif/esp-open-sdk/sdk/lib/liblwip.a(espconn_tcp.o)
tcp_rexmit                                        /opt/Espressif/esp-open-sdk/sdk/lib/liblwip.a(tcp_out.o)
                                                  /opt/Espressif/esp-open-sdk/sdk/lib/liblwip.a(tcp_in.o)
tcp_rexmit_fast                                   /opt/Espressif/esp-open-sdk/sdk/lib/liblwip.a(tcp_out.o)
                                                  /opt/Espressif/esp-open-sdk/sdk/lib/liblwip.a(tcp_in.o)
tcp_rexmit_rto                                    /opt/Espressif/esp-open-sdk/sdk/lib/liblwip.a(tcp_out.o)
                                                  /opt/Espressif/esp-open-sdk/sdk/lib/liblwip.a(tcp.o)
tcp_rst                                           /opt/Espressif/esp-open-sdk/sdk/lib/liblwip.a(tcp_out.o)
                                                  /opt/Espressif/esp-open-sdk/sdk/lib/liblwip.a(tcp.o)
                                                  /opt/Espressif/esp-open-sdk/sdk/lib/liblwip.a(tcp_in.o)
tcp_seg_free                                      /opt/Espressif/esp-open-sdk/sdk/lib/liblwip.a(tcp.o)
                                                  /opt/Espressif/esp-open-sdk/sdk/lib/liblwip.a(tcp_out.o)
                                                  /opt/Espressif/esp-open-sdk/sdk/lib/liblwip.a(tcp_in.o)
tcp_segs_free                                     /opt/Espressif/esp-open-sdk/sdk/lib/liblwip.a(tcp.o)
                                                  /opt/Espressif/esp-open-sdk/sdk/lib/liblwip.a(tcp_out.o)
tcp_send_empty_ack                                /opt/Espressif/esp-open-sdk/sdk/lib/liblwip.a(tcp_out.o)
                                                  /opt/Espressif/esp-open-sdk/sdk/lib/liblwip.a(tcp_in.o)
tcp_send_fin                                      /opt/Espressif/esp-open-sdk/sdk/lib/liblwip.a(tcp_out.o)
                                                  /opt/Espressif/esp-open-sdk/sdk/lib/liblwip.a(tcp.o)
tcp_sent                                          /opt/Espressif/esp-open-sdk/sdk/lib/liblwip.a(tcp.o)
                                                  /opt/Espressif/esp-open-sdk/sdk/lib/liblwip.a(espconn_tcp.o)
tcp_setprio                                       /opt/Espressif/esp-open-sdk/sdk/lib/liblwip.a(tcp.o)
tcp_shutdown                                      /opt/Espressif/esp-open-sdk/sdk/lib/liblwip.a(tcp.o)
tcp_slowtmr                                       /opt/Espressif/esp-open-sdk/sdk/lib/liblwip.a(tcp.o)
tcp_ticks                                         /opt/Espressif/esp-open-sdk/sdk/lib/liblwip.a(tcp.o)
                                                  /opt/Espressif/esp-open-sdk/sdk/lib/liblwip.a(tcp_out.o)
                                                  /opt/Espressif/esp-open-sdk/sdk/lib/liblwip.a(tcp_in.o)
                                                  /opt/Espressif/esp-open-sdk/sdk/lib/liblwip.a(espconn_tcp.o)
tcp_timer_needed                                  /opt/Espressif/esp-open-sdk/sdk/lib/liblwip.a(timers.o)
                                                  /opt/Espressif/esp-open-sdk/sdk/lib/liblwip.a(tcp.o)
                                                  /opt/Espressif/esp-open-sdk/sdk/lib/liblwip.a(tcp_in.o)
tcp_tmp_pcb                                       /opt/Espressif/esp-open-sdk/sdk/lib/liblwip.a(tcp.o)
                                                  /opt/Espressif/esp-open-sdk/sdk/lib/liblwip.a(tcp_in.o)
tcp_tmr                                           /opt/Espressif/esp-open-sdk/sdk/lib/liblwip.a(tcp.o)
                                                  /opt/Espressif/esp-open-sdk/sdk/lib/liblwip.a(timers.o)
tcp_tw_pcbs                                       /opt/Espressif/esp-open-sdk/sdk/lib/liblwip.a(tcp.o)
                                                  /opt/Espressif/esp-open-sdk/sdk/lib/liblwip.a(timers.o)
                                                  /opt/Espressif/esp-open-sdk/sdk/lib/liblwip.a(tcp_in.o)
                                                  /opt/Espressif/esp-open-sdk/sdk/lib/liblwip.a(espconn_tcp.o)
tcp_update_rcv_ann_wnd                            /opt/Espressif/esp-open-sdk/sdk/lib/liblwip.a(tcp.o)
                                                  /opt/Espressif/esp-open-sdk/sdk/lib/liblwip.a(tcp_in.o)
tcp_write                                         /opt/Espressif/esp-open-sdk/sdk/lib/liblwip.a(tcp_out.o)
                                                  /opt/Espressif/esp-open-sdk/sdk/lib/liblwip.a(espconn_tcp.o)
tcp_zero_window_probe                             /opt/Espressif/esp-open-sdk/sdk/lib/liblwip.a(tcp_out.o)
                                                  /opt/Espressif/esp-open-sdk/sdk/lib/liblwip.a(tcp.o)
test_rffreq_txcap                                 /opt/Espressif/esp-open-sdk/sdk/lib/libphy.a(phy_chip_v6.o)
test_tout                                         /opt/Espressif/esp-open-sdk/sdk/lib/libphy.a(phy_chip_v6_ana.o)
                                                  /opt/Espressif/esp-open-sdk/sdk/lib/libmain.a(user_interface.o)
tft                                               build/app_app.a(ili9341.o)
tft_565toRGB                                      build/app_app.a(ili9341.o)
tft_Cmd                                           build/app_app.a(ili9341.o)
tft_Cmd_Data_TX                                   build/app_app.a(ili9341.o)
                                                  build/app_app.a(ili9341_adafruit.o)
tft_Data                                          build/app_app.a(ili9341.o)
tft_ID                                            build/app_app.a(ili9341.o)
                                                  build/app_app.a(user_main.o)
tft_Vscroll                                       build/app_app.a(ili9341.o)
                                                  build/app_app.a(font.o)
tft_abs_window                                    build/app_app.a(ili9341.o)
tft_bit_blit                                      build/app_app.a(ili9341.o)
                                                  build/app_app.a(font.o)
tft_cleareol                                      build/app_app.a(ili9341.o)
tft_clearline                                     build/app_app.a(ili9341.o)
tft_clock                                         build/app_app.a(ili9341.o)
tft_configRegister                                build/app_app.a(ili9341_adafruit.o)
                                                  build/app_app.a(ili9341.o)
tft_drawBitmap                                    build/app_app.a(ili9341_adafruit.o)
tft_drawChar                                      build/app_app.a(font.o)
                                                  build/app_app.a(ili9341.o)
tft_drawCircle                                    build/app_app.a(ili9341_adafruit.o)
tft_drawCircleHelper                              build/app_app.a(ili9341_adafruit.o)
tft_drawFastHLine                                 build/app_app.a(ili9341.o)
                                                  build/app_app.a(ili9341_adafruit.o)
tft_drawFastVLine                                 build/app_app.a(ili9341.o)
                                                  build/app_app.a(ili9341_adafruit.o)
tft_drawLine                                      build/app_app.a(ili9341.o)
                                                  build/app_app.a(ili9341_adafruit.o)
                                                  build/app_app.a(wire.o)
tft_drawPixel                                     build/app_app.a(ili9341.o)
                                                  build/app_app.a(ili9341_adafruit.o)
tft_drawRect                                      build/app_app.a(ili9341_adafruit.o)
tft_drawRoundRect                                 build/app_app.a(ili9341_adafruit.o)
tft_drawTriangle                                  build/app_app.a(ili9341_adafruit.o)
tft_fillCircle                                    build/app_app.a(ili9341_adafruit.o)
tft_fillCircleHelper                              build/app_app.a(ili9341_adafruit.o)
tft_fillRectWH                                    build/app_app.a(ili9341.o)
                                                  build/app_app.a(font.o)
                                                  build/app_app.a(ili9341_adafruit.o)
tft_fillRectXY                                    build/app_app.a(ili9341.o)
tft_fillRoundRect                                 build/app_app.a(ili9341_adafruit.o)
tft_fillTriangle                                  build/app_app.a(ili9341_adafruit.o)
tft_fillWin                                       build/app_app.a(ili9341.o)
                                                  build/app_app.a(user_main.o)
tft_font_fixed                                    build/app_app.a(ili9341.o)
                                                  build/app_app.a(user_main.o)
tft_font_var                                      build/app_app.a(ili9341.o)
                                                  build/app_app.a(user_main.o)
tft_get_font_height                               build/app_app.a(ili9341.o)
tft_init                                          build/app_app.a(ili9341.o)
                                                  build/app_app.a(user_main.o)
tft_invertDisplay                                 build/app_app.a(ili9341.o)
tft_printf                                        build/app_app.a(pr.o)
                                                  build/app_app.a(user_main.o)
tft_putch                                         build/app_app.a(ili9341.o)
                                                  build/app_app.a(pr.o)
tft_readId                                        build/app_app.a(ili9341.o)
tft_readPixel                                     build/app_app.a(ili9341.o)
tft_readRect                                      build/app_app.a(ili9341.o)
tft_readRegister                                  build/app_app.a(ili9341.o)
tft_rel_window                                    build/app_app.a(ili9341.o)
tft_setRotation                                   build/app_app.a(ili9341.o)
                                                  build/app_app.a(user_main.o)
tft_setTextColor                                  build/app_app.a(ili9341.o)
                                                  build/app_app.a(user_main.o)
tft_set_font                                      build/app_app.a(ili9341.o)
                                                  build/app_app.a(user_main.o)
tft_setpos                                        build/app_app.a(ili9341.o)
                                                  build/app_app.a(user_main.o)
tft_spi_RX                                        build/app_app.a(ili9341.o)
tft_spi_TX                                        build/app_app.a(ili9341.o)
tft_spi_TXRX                                      build/app_app.a(ili9341.o)
tft_spi_begin                                     build/app_app.a(ili9341.o)
tft_spi_end                                       build/app_app.a(ili9341.o)
tft_spi_init                                      build/app_app.a(ili9341.o)
tft_window_init                                   build/app_app.a(ili9341.o)
                                                  build/app_app.a(user_main.o)
tft_writeRect                                     build/app_app.a(ili9341.o)
                                                  build/app_app.a(ili9341_adafruit.o)
tftwin                                            build/app_app.a(ili9341.o)
time                                              build/app_app.a(time.o)
                                                  build/app_app.a(user_main.o)
time_to_tm                                        build/app_app.a(time.o)
time_zone                                         /opt/Espressif/esp-open-sdk/sdk/lib/liblwip.a(sntp.o)
timegm                                            build/app_app.a(time.o)
timer2_ms_flag                                    /opt/Espressif/esp-open-sdk/sdk/lib/libmain.a(user_interface.o)
                                                  /opt/Espressif/esp-open-sdk/sdk/lib/liblwip.a(timers.o)
                                                  /opt/Espressif/esp-open-sdk/sdk/lib/libpp.a(pm_for_bcn_only_mode.o)
                                                  /opt/Espressif/esp-open-sdk/sdk/lib/libpp.a(pm.o)
                                                  /opt/Espressif/esp-open-sdk/sdk/lib/libmain.a(ets_timer.o)
timer_irq                                         build/app_app.a(timer_hal.o)
                                                  build/app_app.a(timer.o)
timer_list                                        /opt/Espressif/esp-open-sdk/sdk/lib/libmain.a(ets_timer.o)
                                                  /opt/Espressif/esp-open-sdk/sdk/lib/libpp.a(pm_for_bcn_only_mode.o)
                                                  /opt/Espressif/esp-open-sdk/sdk/lib/libpp.a(pm.o)
tkip                                              /opt/Espressif/esp-open-sdk/sdk/lib/libnet80211.a(ieee80211_crypto_tkip.o)
                                                  /opt/Espressif/esp-open-sdk/sdk/lib/libwpa.a(wpa_main.o)
                                                  /opt/Espressif/esp-open-sdk/sdk/lib/libwpa.a(wpa_auth.o)
tm_mon_to_ascii                                   build/app_app.a(time.o)
tm_wday_to_ascii                                  build/app_app.a(time.o)
token                                             build/app_app.a(util.o)
                                                  build/app_app.a(user_main.o)
trc_NeedRTS                                       /opt/Espressif/esp-open-sdk/sdk/lib/libpp.a(trc.o)
trc_onDisconnect                                  /opt/Espressif/esp-open-sdk/sdk/lib/libpp.a(trc.o)
trc_onScanDone                                    /opt/Espressif/esp-open-sdk/sdk/lib/libpp.a(trc.o)
trc_onScanStart                                   /opt/Espressif/esp-open-sdk/sdk/lib/libpp.a(trc.o)
trim_tail                                         build/app_app.a(util.o)
ts_to_str                                         build/app_app.a(timer.o)
tsen_meas                                         /opt/Espressif/esp-open-sdk/sdk/lib/libphy.a(phy_chip_v6_ana.o)
tx_atten_set_interp                               /opt/Espressif/esp-open-sdk/sdk/lib/libphy.a(phy_chip_v6.o)
                                                  /opt/Espressif/esp-open-sdk/sdk/lib/libphy.a(phy_chip_v6_cal.o)
                                                  /opt/Espressif/esp-open-sdk/sdk/lib/libphy.a(phy_chip_v6_ana.o)
tx_cap_init                                       /opt/Espressif/esp-open-sdk/sdk/lib/libphy.a(phy_chip_v6.o)
tx_cont_cfg                                       /opt/Espressif/esp-open-sdk/sdk/lib/libphy.a(phy_chip_v6.o)
tx_cont_dis                                       /opt/Espressif/esp-open-sdk/sdk/lib/libphy.a(phy_chip_v6.o)
tx_cont_en                                        /opt/Espressif/esp-open-sdk/sdk/lib/libphy.a(phy_chip_v6.o)
tx_fifo_empty                                     build/app_app.a(uart.o)
tx_fifo_flush                                     build/app_app.a(uart.o)
tx_fifo_free                                      build/app_app.a(uart.o)
tx_fifo_putc                                      build/app_app.a(uart.o)
tx_fifo_used                                      build/app_app.a(uart.o)
tx_fifo_write                                     build/app_app.a(uart.o)
tx_pwctrl_atten_init                              /opt/Espressif/esp-open-sdk/sdk/lib/libphy.a(phy_chip_v6.o)
tx_pwctrl_atten_init_en                           /opt/Espressif/esp-open-sdk/sdk/lib/libphy.a(phy_chip_v6.o)
tx_pwctrl_background                              /opt/Espressif/esp-open-sdk/sdk/lib/libphy.a(phy_chip_v6_cal.o)
                                                  /opt/Espressif/esp-open-sdk/sdk/lib/libpp.a(pp.o)
tx_pwctrl_bg_init                                 /opt/Espressif/esp-open-sdk/sdk/lib/libphy.a(phy_chip_v6_cal.o)
                                                  /opt/Espressif/esp-open-sdk/sdk/lib/libphy.a(phy_chip_v6.o)
tx_pwctrl_cal                                     /opt/Espressif/esp-open-sdk/sdk/lib/libphy.a(phy_chip_v6_cal.o)
tx_pwctrl_init                                    /opt/Espressif/esp-open-sdk/sdk/lib/libphy.a(phy_chip_v6.o)
tx_pwctrl_init_cal                                /opt/Espressif/esp-open-sdk/sdk/lib/libphy.a(phy_chip_v6.o)
tx_pwctrl_pk_num                                  /opt/Espressif/esp-open-sdk/sdk/lib/libphy.a(phy_chip_v6_cal.o)
tx_pwctrl_set_chan_flag                           /opt/Espressif/esp-open-sdk/sdk/lib/libphy.a(phy_chip_v6_cal.o)
                                                  /opt/Espressif/esp-open-sdk/sdk/lib/libphy.a(phy_chip_v6_ana.o)
tx_pwr_backoff                                    /opt/Espressif/esp-open-sdk/sdk/lib/libphy.a(phy_chip_v6_cal.o)
                                                  /opt/Espressif/esp-open-sdk/sdk/lib/libphy.a(phy_chip_v6.o)
tx_rf_ana_gain                                    /opt/Espressif/esp-open-sdk/sdk/lib/libphy.a(phy_chip_v6.o)
                                                  /opt/Espressif/esp-open-sdk/sdk/lib/libphy.a(phy_chip_v6_cal.o)
txbbgain2dcoindex                                 /opt/Espressif/esp-open-sdk/sdk/lib/libphy.a(phy_chip_v6_cal.o)
txbk_dpdby_flag                                   /opt/Espressif/esp-open-sdk/sdk/lib/libphy.a(phy_chip_v6.o)
txiq_cover                                        /opt/Espressif/esp-open-sdk/sdk/lib/libphy.a(phy_chip_v6_cal.o)
txiq_get_mis_pwr                                  /opt/Espressif/esp-open-sdk/sdk/lib/libphy.a(phy_chip_v6_cal.o)
txpwr_offset                                      /opt/Espressif/esp-open-sdk/sdk/lib/libphy.a(phy_chip_v6_ana.o)
                                                  /opt/Espressif/esp-open-sdk/sdk/lib/libphy.a(phy_chip_v6.o)
uart0_getc                                        build/app_app.a(uart.o)
uart0_gets                                        build/app_app.a(uart.o)
                                                  build/app_app.a(user_main.o)
uart0_gets_add                                    build/app_app.a(uart.o)
uart0_gets_init                                   build/app_app.a(uart.o)
uart0_gets_line                                   build/app_app.a(uart.o)
uart0_gets_ready                                  build/app_app.a(uart.o)
uart0_gets_receive_queue                          build/app_app.a(uart.o)
uart0_gets_size                                   build/app_app.a(uart.o)
uart0_printf                                      build/app_app.a(debug.o)
                                                  build/app_app.a(timer.o)
                                                  build/app_app.a(network.o)
                                                  build/app_app.a(cal_dex.o)
                                                  build/app_app.a(hspi.o)
                                                  build/app_app.a(timer_hal.o)
                                                  build/app_app.a(time.o)
                                                  build/app_app.a(user_main.o)
uart0_putc                                        build/app_app.a(uart.o)
uart1_getc                                        build/app_app.a(uart.o)
uart1_putc                                        build/app_app.a(uart.o)
uart_buff_switch                                  /opt/Espressif/esp-open-sdk/sdk/lib/libphy.a(phy_chip_v6.o)
uart_callback                                     build/app_app.a(uart.o)
uart_config                                       build/app_app.a(uart.o)
uart_div_modify                                   build/app_app.a(uart.o)
                                                  /opt/Espressif/esp-open-sdk/sdk/lib/libmain.a(app_main.o)
uart_getc                                         build/app_app.a(uart.o)
uart_init                                         build/app_app.a(uart.o)
                                                  build/app_app.a(user_main.o)
uart_putc                                         build/app_app.a(uart.o)
                                                  build/app_app.a(debug.o)
uart_reattach                                     build/app_app.a(uart.o)
uart_rx_disable                                   build/app_app.a(uart.o)
uart_rx_enable                                    build/app_app.a(uart.o)
uart_tx_disable                                   build/app_app.a(uart.o)
uart_tx_enable                                    build/app_app.a(uart.o)
uart_tx_flush                                     /opt/Espressif/esp-open-sdk/sdk/lib/libpp.a(pm.o)
                                                  /opt/Espressif/esp-open-sdk/sdk/lib/libphy.a(phy_chip_v6.o)
uart_wait_idle                                    /opt/Espressif/esp-open-sdk/sdk/lib/libphy.a(phy_chip_v6.o)
udp_bind                                          /opt/Espressif/esp-open-sdk/sdk/lib/liblwip.a(udp.o)
                                                  /opt/Espressif/esp-open-sdk/sdk/lib/liblwip.a(mdns.o)
                                                  /opt/Espressif/esp-open-sdk/sdk/lib/liblwip.a(espconn_udp.o)
                                                  /opt/Espressif/esp-open-sdk/sdk/lib/liblwip.a(dns.o)
                                                  /opt/Espressif/esp-open-sdk/sdk/lib/liblwip.a(dhcpserver.o)
                                                  /opt/Espressif/esp-open-sdk/sdk/lib/liblwip.a(dhcp.o)
udp_connect                                       /opt/Espressif/esp-open-sdk/sdk/lib/liblwip.a(udp.o)
                                                  /opt/Espressif/esp-open-sdk/sdk/lib/liblwip.a(dns.o)
                                                  /opt/Espressif/esp-open-sdk/sdk/lib/liblwip.a(dhcp.o)
udp_disconnect                                    /opt/Espressif/esp-open-sdk/sdk/lib/liblwip.a(udp.o)
                                                  /opt/Espressif/esp-open-sdk/sdk/lib/liblwip.a(espconn_udp.o)
                                                  /opt/Espressif/esp-open-sdk/sdk/lib/liblwip.a(dhcpserver.o)
udp_input                                         /opt/Espressif/esp-open-sdk/sdk/lib/liblwip.a(udp.o)
                                                  /opt/Espressif/esp-open-sdk/sdk/lib/liblwip.a(ip.o)
udp_new                                           /opt/Espressif/esp-open-sdk/sdk/lib/liblwip.a(udp.o)
                                                  /opt/Espressif/esp-open-sdk/sdk/lib/liblwip.a(mdns.o)
                                                  /opt/Espressif/esp-open-sdk/sdk/lib/liblwip.a(espconn_udp.o)
                                                  /opt/Espressif/esp-open-sdk/sdk/lib/liblwip.a(sntp.o)
                                                  /opt/Espressif/esp-open-sdk/sdk/lib/liblwip.a(dns.o)
                                                  /opt/Espressif/esp-open-sdk/sdk/lib/liblwip.a(dhcpserver.o)
                                                  /opt/Espressif/esp-open-sdk/sdk/lib/liblwip.a(dhcp.o)
udp_pcbs                                          /opt/Espressif/esp-open-sdk/sdk/lib/liblwip.a(udp.o)
udp_recv                                          /opt/Espressif/esp-open-sdk/sdk/lib/liblwip.a(udp.o)
                                                  /opt/Espressif/esp-open-sdk/sdk/lib/liblwip.a(mdns.o)
                                                  /opt/Espressif/esp-open-sdk/sdk/lib/liblwip.a(espconn_udp.o)
                                                  /opt/Espressif/esp-open-sdk/sdk/lib/liblwip.a(sntp.o)
                                                  /opt/Espressif/esp-open-sdk/sdk/lib/liblwip.a(dns.o)
                                                  /opt/Espressif/esp-open-sdk/sdk/lib/liblwip.a(dhcpserver.o)
                                                  /opt/Espressif/esp-open-sdk/sdk/lib/liblwip.a(dhcp.o)
udp_remove                                        /opt/Espressif/esp-open-sdk/sdk/lib/liblwip.a(udp.o)
                                                  /opt/Espressif/esp-open-sdk/sdk/lib/liblwip.a(mdns.o)
                                                  /opt/Espressif/esp-open-sdk/sdk/lib/liblwip.a(espconn_udp.o)
                                                  /opt/Espressif/esp-open-sdk/sdk/lib/liblwip.a(sntp.o)
                                                  /opt/Espressif/esp-open-sdk/sdk/lib/liblwip.a(dhcpserver.o)
                                                  /opt/Espressif/esp-open-sdk/sdk/lib/liblwip.a(dhcp.o)
udp_send                                          /opt/Espressif/esp-open-sdk/sdk/lib/liblwip.a(udp.o)
                                                  /opt/Espressif/esp-open-sdk/sdk/lib/liblwip.a(espconn_udp.o)
udp_sendto                                        /opt/Espressif/esp-open-sdk/sdk/lib/liblwip.a(udp.o)
                                                  /opt/Espressif/esp-open-sdk/sdk/lib/liblwip.a(mdns.o)
                                                  /opt/Espressif/esp-open-sdk/sdk/lib/liblwip.a(sntp.o)
                                                  /opt/Espressif/esp-open-sdk/sdk/lib/liblwip.a(dns.o)
                                                  /opt/Espressif/esp-open-sdk/sdk/lib/liblwip.a(dhcpserver.o)
udp_sendto_if                                     /opt/Espressif/esp-open-sdk/sdk/lib/liblwip.a(udp.o)
                                                  /opt/Espressif/esp-open-sdk/sdk/lib/liblwip.a(dhcp.o)
unregister_ieee80211_action_vendor_get_key_cb     /opt/Espressif/esp-open-sdk/sdk/lib/libnet80211.a(ieee80211_action_vendor.o)
unregister_ieee80211_action_vendor_spec_cb        /opt/Espressif/esp-open-sdk/sdk/lib/libnet80211.a(ieee80211_action_vendor.o)
unsign_to_sign                                    /opt/Espressif/esp-open-sdk/sdk/lib/libphy.a(phy_chip_v6_cal.o)
user_help                                         build/app_app.a(user_main.o)
user_init                                         build/app_app.a(user_main.o)
                                                  /opt/Espressif/esp-open-sdk/sdk/lib/libmain.a(app_main.o)
user_init_flag                                    /opt/Espressif/esp-open-sdk/sdk/lib/libmain.a(app_main.o)
                                                  /opt/Espressif/esp-open-sdk/sdk/lib/libmain.a(user_interface.o)
user_rf_pre_init                                  /opt/Espressif/esp-open-sdk/sdk/lib/libmain.a(empty_user_rf_pre_init.o)
                                                  /opt/Espressif/esp-open-sdk/sdk/lib/libmain.a(app_main.o)
user_tests                                        build/app_app.a(user_main.o)
user_uart_wait_tx_fifo_empty                      /opt/Espressif/esp-open-sdk/sdk/lib/libmain.a(app_main.o)
                                                  /opt/Espressif/esp-open-sdk/sdk/lib/libmain.a(user_interface.o)
vPortFree                                         /opt/Espressif/esp-open-sdk/sdk/lib/libmain.a(mem_manager.o)
                                                  /opt/Espressif/esp-open-sdk/sdk/lib/libwpa.a(aes-internal-enc.o)
                                                  /opt/Espressif/esp-open-sdk/sdk/lib/libwpa.a(wpa_main.o)
                                                  /opt/Espressif/esp-open-sdk/sdk/lib/libwpa.a(wpa_auth_ie.o)
                                                  /opt/Espressif/esp-open-sdk/sdk/lib/libwpa.a(wpa_auth.o)
                                                  /opt/Espressif/esp-open-sdk/sdk/lib/libwpa.a(common.o)
                                                  /opt/Espressif/esp-open-sdk/sdk/lib/libwpa.a(ap_config.o)
                                                  /opt/Espressif/esp-open-sdk/sdk/lib/liblwip.a(mdns.o)
                                                  /opt/Espressif/esp-open-sdk/sdk/lib/liblwip.a(igmp.o)
                                                  /opt/Espressif/esp-open-sdk/sdk/lib/liblwip.a(espconn_udp.o)
                                                  /opt/Espressif/esp-open-sdk/sdk/lib/liblwip.a(udp.o)
                                                  /opt/Espressif/esp-open-sdk/sdk/lib/liblwip.a(timers.o)
                                                  /opt/Espressif/esp-open-sdk/sdk/lib/liblwip.a(tcp.o)
                                                  /opt/Espressif/esp-open-sdk/sdk/lib/liblwip.a(tcp_in.o)
                                                  /opt/Espressif/esp-open-sdk/sdk/lib/liblwip.a(raw.o)
                                                  /opt/Espressif/esp-open-sdk/sdk/lib/liblwip.a(pbuf.o)
                                                  /opt/Espressif/esp-open-sdk/sdk/lib/liblwip.a(etharp.o)
                                                  /opt/Espressif/esp-open-sdk/sdk/lib/liblwip.a(espconn_tcp.o)
                                                  /opt/Espressif/esp-open-sdk/sdk/lib/liblwip.a(dhcpserver.o)
                                                  /opt/Espressif/esp-open-sdk/sdk/lib/liblwip.a(dhcp.o)
                                                  /opt/Espressif/esp-open-sdk/sdk/lib/libnet80211.a(wl_cnx.o)
                                                  /opt/Espressif/esp-open-sdk/sdk/lib/libnet80211.a(ieee80211_sta.o)
                                                  /opt/Espressif/esp-open-sdk/sdk/lib/libnet80211.a(ieee80211_scan.o)
                                                  /opt/Espressif/esp-open-sdk/sdk/lib/libnet80211.a(ieee80211_hostap.o)
                                                  /opt/Espressif/esp-open-sdk/sdk/lib/libnet80211.a(ieee80211.o)
                                                  /opt/Espressif/esp-open-sdk/sdk/lib/libpp.a(esf_buf.o)
                                                  /opt/Espressif/esp-open-sdk/sdk/lib/libpp.a(wdev.o)
                                                  /opt/Espressif/esp-open-sdk/sdk/lib/libpp.a(pp.o)
                                                  build/app_app.a(util.o)
                                                  build/app_app.a(user_main.o)
                                                  /opt/Espressif/esp-open-sdk/sdk/lib/libmain.a(eagle_lwip_if.o)
                                                  /opt/Espressif/esp-open-sdk/sdk/lib/libmain.a(user_interface.o)
                                                  /opt/Espressif/esp-open-sdk/sdk/lib/libmain.a(app_main.o)
vPortInitialiseBlocks                             /opt/Espressif/esp-open-sdk/sdk/lib/libmain.a(mem_manager.o)
voltage                                           build/app_app.a(user_main.o)
wDevCtrl                                          /opt/Espressif/esp-open-sdk/sdk/lib/libpp.a(wdev.o)
                                                  /opt/Espressif/esp-open-sdk/sdk/lib/libpp.a(esf_buf.o)
                                                  /opt/Espressif/esp-open-sdk/sdk/lib/libpp.a(pp.o)
wDevDisableRx                                     /opt/Espressif/esp-open-sdk/sdk/lib/libpp.a(wdev.o)
                                                  /opt/Espressif/esp-open-sdk/sdk/lib/libnet80211.a(ieee80211_hostap.o)
                                                  /opt/Espressif/esp-open-sdk/sdk/lib/libpp.a(if_hwctrl.o)
                                                  /opt/Espressif/esp-open-sdk/sdk/lib/libmain.a(user_interface.o)
wDevEnableRx                                      /opt/Espressif/esp-open-sdk/sdk/lib/libpp.a(wdev.o)
                                                  /opt/Espressif/esp-open-sdk/sdk/lib/libpp.a(if_hwctrl.o)
                                                  /opt/Espressif/esp-open-sdk/sdk/lib/libmain.a(user_interface.o)
                                                  /opt/Espressif/esp-open-sdk/sdk/lib/libmain.a(app_main.o)
wDevForceAck6M                                    /opt/Espressif/esp-open-sdk/sdk/lib/libpp.a(wdev.o)
wDev_AppendRxAmpduLensBlocks                      /opt/Espressif/esp-open-sdk/sdk/lib/libpp.a(wdev.o)
wDev_AppendRxBlocks                               /opt/Espressif/esp-open-sdk/sdk/lib/libpp.a(wdev.o)
                                                  /opt/Espressif/esp-open-sdk/sdk/lib/libpp.a(pp.o)
wDev_ClearBssid                                   /opt/Espressif/esp-open-sdk/sdk/lib/libpp.a(wdev.o)
wDev_ClearTxqCollisions                           /opt/Espressif/esp-open-sdk/sdk/lib/libpp.a(wdev.o)
                                                  /opt/Espressif/esp-open-sdk/sdk/lib/libpp.a(lmac.o)
wDev_ClearWaitingQueue                            /opt/Espressif/esp-open-sdk/sdk/lib/libpp.a(wdev.o)
                                                  /opt/Espressif/esp-open-sdk/sdk/lib/libpp.a(lmac.o)
wDev_Crypto_Conf                                  /opt/Espressif/esp-open-sdk/sdk/lib/libpp.a(wdev.o)
                                                  /opt/Espressif/esp-open-sdk/sdk/lib/libpp.a(if_hwctrl.o)
wDev_Crypto_Disable                               /opt/Espressif/esp-open-sdk/sdk/lib/libpp.a(wdev.o)
                                                  /opt/Espressif/esp-open-sdk/sdk/lib/libpp.a(if_hwctrl.o)
wDev_DisableTransmit                              /opt/Espressif/esp-open-sdk/sdk/lib/libpp.a(wdev.o)
wDev_Disable_Beacon_Tsf                           /opt/Espressif/esp-open-sdk/sdk/lib/libpp.a(wdev.o)
wDev_EnableTransmit                               /opt/Espressif/esp-open-sdk/sdk/lib/libpp.a(wdev.o)
                                                  /opt/Espressif/esp-open-sdk/sdk/lib/libpp.a(lmac.o)
wDev_Enable_Beacon_Tsf                            /opt/Espressif/esp-open-sdk/sdk/lib/libpp.a(wdev.o)
wDev_GetBAInfo                                    /opt/Espressif/esp-open-sdk/sdk/lib/libpp.a(wdev.o)
                                                  /opt/Espressif/esp-open-sdk/sdk/lib/libpp.a(lmac.o)
wDev_GetTxqCollisions                             /opt/Espressif/esp-open-sdk/sdk/lib/libpp.a(wdev.o)
                                                  /opt/Espressif/esp-open-sdk/sdk/lib/libpp.a(lmac.o)
wDev_Get_Next_TBTT                                /opt/Espressif/esp-open-sdk/sdk/lib/libpp.a(wdev.o)
                                                  /opt/Espressif/esp-open-sdk/sdk/lib/libnet80211.a(ieee80211_hostap.o)
wDev_Initialize                                   /opt/Espressif/esp-open-sdk/sdk/lib/libpp.a(wdev.o)
                                                  /opt/Espressif/esp-open-sdk/sdk/lib/libmain.a(app_main.o)
wDev_Insert_KeyEntry                              /opt/Espressif/esp-open-sdk/sdk/lib/libpp.a(wdev.o)
                                                  /opt/Espressif/esp-open-sdk/sdk/lib/libpp.a(if_hwctrl.o)
wDev_MacTim1Arm                                   /opt/Espressif/esp-open-sdk/sdk/lib/libpp.a(wdev.o)
                                                  /opt/Espressif/esp-open-sdk/sdk/lib/libpp.a(pp.o)
wDev_MacTim1SetFunc                               /opt/Espressif/esp-open-sdk/sdk/lib/libpp.a(wdev.o)
                                                  /opt/Espressif/esp-open-sdk/sdk/lib/libpp.a(pp.o)
wDev_Option_Init                                  /opt/Espressif/esp-open-sdk/sdk/lib/libpp.a(wdev.o)
wDev_ProcessCollision                             /opt/Espressif/esp-open-sdk/sdk/lib/libpp.a(wdev.o)
                                                  /opt/Espressif/esp-open-sdk/sdk/lib/libpp.a(lmac.o)
wDev_ProcessFiq                                   /opt/Espressif/esp-open-sdk/sdk/lib/libpp.a(wdev.o)
                                                  /opt/Espressif/esp-open-sdk/sdk/lib/libmain.a(app_main.o)
wDev_Reset_TBTT                                   /opt/Espressif/esp-open-sdk/sdk/lib/libpp.a(wdev.o)
                                                  /opt/Espressif/esp-open-sdk/sdk/lib/libnet80211.a(ieee80211_hostap.o)
wDev_SetBssid                                     /opt/Espressif/esp-open-sdk/sdk/lib/libpp.a(wdev.o)
wDev_SetFrameAckType                              /opt/Espressif/esp-open-sdk/sdk/lib/libpp.a(wdev.o)
                                                  /opt/Espressif/esp-open-sdk/sdk/lib/libpp.a(lmac.o)
wDev_SetMacAddress                                /opt/Espressif/esp-open-sdk/sdk/lib/libpp.a(wdev.o)
                                                  /opt/Espressif/esp-open-sdk/sdk/lib/libpp.a(if_hwctrl.o)
                                                  /opt/Espressif/esp-open-sdk/sdk/lib/libmain.a(user_interface.o)
wDev_SetRxPolicy                                  /opt/Espressif/esp-open-sdk/sdk/lib/libpp.a(wdev.o)
                                                  /opt/Espressif/esp-open-sdk/sdk/lib/libnet80211.a(wl_cnx.o)
                                                  /opt/Espressif/esp-open-sdk/sdk/lib/libnet80211.a(ieee80211_scan.o)
                                                  /opt/Espressif/esp-open-sdk/sdk/lib/libnet80211.a(ieee80211_hostap.o)
                                                  /opt/Espressif/esp-open-sdk/sdk/lib/libpp.a(if_hwctrl.o)
wDev_SetWaitingQueue                              /opt/Espressif/esp-open-sdk/sdk/lib/libpp.a(wdev.o)
                                                  /opt/Espressif/esp-open-sdk/sdk/lib/libpp.a(lmac.o)
wDev_Set_Beacon_Int                               /opt/Espressif/esp-open-sdk/sdk/lib/libpp.a(wdev.o)
                                                  /opt/Espressif/esp-open-sdk/sdk/lib/libmain.a(user_interface.o)
                                                  /opt/Espressif/esp-open-sdk/sdk/lib/libmain.a(app_main.o)
wDev_remove_KeyEntry                              /opt/Espressif/esp-open-sdk/sdk/lib/libpp.a(wdev.o)
                                                  /opt/Espressif/esp-open-sdk/sdk/lib/libwpa.a(wpa_main.o)
                                                  /opt/Espressif/esp-open-sdk/sdk/lib/libnet80211.a(wl_cnx.o)
                                                  /opt/Espressif/esp-open-sdk/sdk/lib/libpp.a(if_hwctrl.o)
wDev_remove_KeyEntry_all_cnx                      /opt/Espressif/esp-open-sdk/sdk/lib/libpp.a(wdev.o)
                                                  /opt/Espressif/esp-open-sdk/sdk/lib/libnet80211.a(wl_cnx.o)
                                                  /opt/Espressif/esp-open-sdk/sdk/lib/libnet80211.a(ieee80211_hostap.o)
wait_rfpll_cal_end                                /opt/Espressif/esp-open-sdk/sdk/lib/libphy.a(phy_chip_v6_ana.o)
                                                  /opt/Espressif/esp-open-sdk/sdk/lib/libphy.a(phy_chip_v6.o)
wd_reset_cnt                                      /opt/Espressif/esp-open-sdk/sdk/lib/libphy.a(phy_chip_v6_unused.o)
wdev_exit_sniffer                                 /opt/Espressif/esp-open-sdk/sdk/lib/libpp.a(wdev.o)
                                                  /opt/Espressif/esp-open-sdk/sdk/lib/libmain.a(user_interface.o)
wdev_go_sniffer                                   /opt/Espressif/esp-open-sdk/sdk/lib/libpp.a(wdev.o)
                                                  /opt/Espressif/esp-open-sdk/sdk/lib/libmain.a(user_interface.o)
wdev_set_sniffer_addr                             /opt/Espressif/esp-open-sdk/sdk/lib/libpp.a(wdev.o)
wdt_init                                          /opt/Espressif/esp-open-sdk/sdk/lib/libmain.a(app_main.o)
wdt_reset                                         build/app_app.a(util.o)
                                                  build/app_app.a(wire.o)
                                                  build/app_app.a(user_main.o)
wep                                               /opt/Espressif/esp-open-sdk/sdk/lib/libnet80211.a(ieee80211_crypto_wep.o)
                                                  /opt/Espressif/esp-open-sdk/sdk/lib/libwpa.a(wpa_main.o)
                                                  /opt/Espressif/esp-open-sdk/sdk/lib/libwpa.a(wpa_auth.o)
wifi_event_cb                                     build/app_app.a(network.o)
wifi_get_broadcast_if                             /opt/Espressif/esp-open-sdk/sdk/lib/libmain.a(user_interface.o)
wifi_get_channel                                  /opt/Espressif/esp-open-sdk/sdk/lib/libmain.a(user_interface.o)
                                                  build/app_app.a(user_main.o)
wifi_get_ip_info                                  /opt/Espressif/esp-open-sdk/sdk/lib/libmain.a(user_interface.o)
                                                  /opt/Espressif/esp-open-sdk/sdk/lib/liblwip.a(espconn_udp.o)
                                                  /opt/Espressif/esp-open-sdk/sdk/lib/liblwip.a(espconn.o)
                                                  /opt/Espressif/esp-open-sdk/sdk/lib/liblwip.a(dhcpserver.o)
wifi_get_macaddr                                  /opt/Espressif/esp-open-sdk/sdk/lib/libmain.a(user_interface.o)
                                                  /opt/Espressif/esp-open-sdk/sdk/lib/libnet80211.a(ieee80211_output.o)
                                                  /opt/Espressif/esp-open-sdk/sdk/lib/libnet80211.a(ieee80211_hostap.o)
                                                  build/app_app.a(network.o)
wifi_get_opmode                                   /opt/Espressif/esp-open-sdk/sdk/lib/libmain.a(user_interface.o)
                                                  /opt/Espressif/esp-open-sdk/sdk/lib/liblwip.a(espconn_udp.o)
                                                  /opt/Espressif/esp-open-sdk/sdk/lib/liblwip.a(espconn.o)
                                                  /opt/Espressif/esp-open-sdk/sdk/lib/libnet80211.a(ieee80211_scan.o)
                                                  /opt/Espressif/esp-open-sdk/sdk/lib/libnet80211.a(ieee80211_hostap.o)
                                                  build/app_app.a(network.o)
wifi_get_opmode_default                           /opt/Espressif/esp-open-sdk/sdk/lib/libmain.a(user_interface.o)
wifi_get_phy_mode                                 /opt/Espressif/esp-open-sdk/sdk/lib/libmain.a(user_interface.o)
                                                  /opt/Espressif/esp-open-sdk/sdk/lib/libnet80211.a(ieee80211_hostap.o)
                                                  build/app_app.a(network.o)
wifi_get_sleep_type                               /opt/Espressif/esp-open-sdk/sdk/lib/libmain.a(user_interface.o)
wifi_get_user_ie                                  /opt/Espressif/esp-open-sdk/sdk/lib/libmain.a(user_interface.o)
                                                  /opt/Espressif/esp-open-sdk/sdk/lib/libnet80211.a(ieee80211_output.o)
wifi_mode_set                                     /opt/Espressif/esp-open-sdk/sdk/lib/libnet80211.a(ieee80211.o)
                                                  /opt/Espressif/esp-open-sdk/sdk/lib/libmain.a(user_interface.o)
                                                  /opt/Espressif/esp-open-sdk/sdk/lib/libmain.a(app_main.o)
wifi_promiscuous_enable                           /opt/Espressif/esp-open-sdk/sdk/lib/libmain.a(user_interface.o)
wifi_promiscuous_set_mac                          /opt/Espressif/esp-open-sdk/sdk/lib/libmain.a(user_interface.o)
wifi_set_broadcast_if                             /opt/Espressif/esp-open-sdk/sdk/lib/libmain.a(user_interface.o)
wifi_set_channel                                  /opt/Espressif/esp-open-sdk/sdk/lib/libmain.a(user_interface.o)
wifi_set_event_handler_cb                         /opt/Espressif/esp-open-sdk/sdk/lib/libmain.a(user_interface.o)
                                                  build/app_app.a(network.o)
wifi_set_ip_info                                  /opt/Espressif/esp-open-sdk/sdk/lib/libmain.a(user_interface.o)
wifi_set_macaddr                                  /opt/Espressif/esp-open-sdk/sdk/lib/libmain.a(user_interface.o)
wifi_set_opmode                                   /opt/Espressif/esp-open-sdk/sdk/lib/libmain.a(user_interface.o)
                                                  build/app_app.a(network.o)
wifi_set_opmode_current                           /opt/Espressif/esp-open-sdk/sdk/lib/libmain.a(user_interface.o)
wifi_set_phy_mode                                 /opt/Espressif/esp-open-sdk/sdk/lib/libmain.a(user_interface.o)
                                                  build/app_app.a(network.o)
wifi_set_promiscuous_rx_cb                        /opt/Espressif/esp-open-sdk/sdk/lib/libmain.a(user_interface.o)
wifi_set_sleep_type                               /opt/Espressif/esp-open-sdk/sdk/lib/libmain.a(user_interface.o)
wifi_set_status_led_output_level                  /opt/Espressif/esp-open-sdk/sdk/lib/libmain.a(user_interface.o)
wifi_set_user_ie                                  /opt/Espressif/esp-open-sdk/sdk/lib/libmain.a(user_interface.o)
wifi_softap_cacl_mac                              /opt/Espressif/esp-open-sdk/sdk/lib/libmain.a(user_interface.o)
                                                  /opt/Espressif/esp-open-sdk/sdk/lib/libmain.a(app_main.o)
wifi_softap_deauth                                /opt/Espressif/esp-open-sdk/sdk/lib/libmain.a(user_interface.o)
                                                  /opt/Espressif/esp-open-sdk/sdk/lib/libnet80211.a(ieee80211_scan.o)
wifi_softap_dhcps_start                           /opt/Espressif/esp-open-sdk/sdk/lib/libmain.a(user_interface.o)
wifi_softap_dhcps_status                          /opt/Espressif/esp-open-sdk/sdk/lib/libmain.a(user_interface.o)
                                                  /opt/Espressif/esp-open-sdk/sdk/lib/liblwip.a(dhcpserver.o)
wifi_softap_dhcps_stop                            /opt/Espressif/esp-open-sdk/sdk/lib/libmain.a(user_interface.o)
wifi_softap_free_station_info                     /opt/Espressif/esp-open-sdk/sdk/lib/libmain.a(user_interface.o)
wifi_softap_get_beacon_only_mode                  /opt/Espressif/esp-open-sdk/sdk/lib/libmain.a(user_interface.o)
wifi_softap_get_config                            /opt/Espressif/esp-open-sdk/sdk/lib/libmain.a(user_interface.o)
wifi_softap_get_config_default                    /opt/Espressif/esp-open-sdk/sdk/lib/libmain.a(user_interface.o)
wifi_softap_get_station_info                      /opt/Espressif/esp-open-sdk/sdk/lib/libmain.a(user_interface.o)
wifi_softap_get_station_num                       /opt/Espressif/esp-open-sdk/sdk/lib/libmain.a(user_interface.o)
wifi_softap_set_beacon_only_mode                  /opt/Espressif/esp-open-sdk/sdk/lib/libmain.a(user_interface.o)
wifi_softap_set_config                            /opt/Espressif/esp-open-sdk/sdk/lib/libmain.a(user_interface.o)
wifi_softap_set_config_current                    /opt/Espressif/esp-open-sdk/sdk/lib/libmain.a(user_interface.o)
wifi_softap_set_default_ssid                      /opt/Espressif/esp-open-sdk/sdk/lib/libmain.a(user_interface.o)
                                                  /opt/Espressif/esp-open-sdk/sdk/lib/libmain.a(app_main.o)
wifi_softap_set_dhcps_lease                       /opt/Espressif/esp-open-sdk/sdk/lib/liblwip.a(dhcpserver.o)
wifi_softap_set_dhcps_offer_option                /opt/Espressif/esp-open-sdk/sdk/lib/liblwip.a(dhcpserver.o)
wifi_softap_set_station_info                      /opt/Espressif/esp-open-sdk/sdk/lib/libmain.a(user_interface.o)
                                                  /opt/Espressif/esp-open-sdk/sdk/lib/liblwip.a(dhcpserver.o)
wifi_softap_start                                 /opt/Espressif/esp-open-sdk/sdk/lib/libnet80211.a(ieee80211_hostap.o)
                                                  /opt/Espressif/esp-open-sdk/sdk/lib/libmain.a(user_interface.o)
                                                  /opt/Espressif/esp-open-sdk/sdk/lib/libmain.a(app_main.o)
wifi_softap_stop                                  /opt/Espressif/esp-open-sdk/sdk/lib/libnet80211.a(ieee80211_hostap.o)
                                                  /opt/Espressif/esp-open-sdk/sdk/lib/libmain.a(user_interface.o)
wifi_station_ap_change                            /opt/Espressif/esp-open-sdk/sdk/lib/libmain.a(user_interface.o)
wifi_station_ap_check                             /opt/Espressif/esp-open-sdk/sdk/lib/libmain.a(user_interface.o)
wifi_station_ap_number_set                        /opt/Espressif/esp-open-sdk/sdk/lib/libmain.a(user_interface.o)
wifi_station_connect                              /opt/Espressif/esp-open-sdk/sdk/lib/libmain.a(user_interface.o)
                                                  build/app_app.a(network.o)
                                                  /opt/Espressif/esp-open-sdk/sdk/lib/libmain.a(app_main.o)
wifi_station_dhcpc_start                          /opt/Espressif/esp-open-sdk/sdk/lib/libmain.a(user_interface.o)
                                                  build/app_app.a(network.o)
wifi_station_dhcpc_status                         /opt/Espressif/esp-open-sdk/sdk/lib/libmain.a(user_interface.o)
                                                  /opt/Espressif/esp-open-sdk/sdk/lib/libmain.a(eagle_lwip_if.o)
wifi_station_dhcpc_stop                           /opt/Espressif/esp-open-sdk/sdk/lib/libmain.a(user_interface.o)
wifi_station_disconnect                           /opt/Espressif/esp-open-sdk/sdk/lib/libmain.a(user_interface.o)
                                                  /opt/Espressif/esp-open-sdk/sdk/lib/libnet80211.a(ieee80211_sta.o)
                                                  build/app_app.a(network.o)
wifi_station_get_ap_info                          /opt/Espressif/esp-open-sdk/sdk/lib/libmain.a(user_interface.o)
wifi_station_get_auto_connect                     /opt/Espressif/esp-open-sdk/sdk/lib/libmain.a(user_interface.o)
                                                  /opt/Espressif/esp-open-sdk/sdk/lib/libmain.a(app_main.o)
wifi_station_get_config                           /opt/Espressif/esp-open-sdk/sdk/lib/libmain.a(user_interface.o)
                                                  build/app_app.a(network.o)
wifi_station_get_config_default                   /opt/Espressif/esp-open-sdk/sdk/lib/libmain.a(user_interface.o)
wifi_station_get_connect_status                   /opt/Espressif/esp-open-sdk/sdk/lib/libmain.a(user_interface.o)
                                                  /opt/Espressif/esp-open-sdk/sdk/lib/liblwip.a(espconn.o)
wifi_station_get_current_ap_id                    /opt/Espressif/esp-open-sdk/sdk/lib/libmain.a(user_interface.o)
wifi_station_get_hostname                         /opt/Espressif/esp-open-sdk/sdk/lib/libmain.a(user_interface.o)
wifi_station_get_reconnect_policy                 /opt/Espressif/esp-open-sdk/sdk/lib/libmain.a(user_interface.o)
                                                  /opt/Espressif/esp-open-sdk/sdk/lib/libnet80211.a(wl_cnx.o)
                                                  /opt/Espressif/esp-open-sdk/sdk/lib/libnet80211.a(ieee80211_sta.o)
wifi_station_get_rssi                             /opt/Espressif/esp-open-sdk/sdk/lib/libmain.a(user_interface.o)
                                                  build/app_app.a(user_main.o)
wifi_station_scan                                 /opt/Espressif/esp-open-sdk/sdk/lib/libmain.a(user_interface.o)
wifi_station_set_auto_connect                     /opt/Espressif/esp-open-sdk/sdk/lib/libmain.a(user_interface.o)
                                                  build/app_app.a(network.o)
wifi_station_set_config                           /opt/Espressif/esp-open-sdk/sdk/lib/libmain.a(user_interface.o)
                                                  build/app_app.a(network.o)
wifi_station_set_config_current                   /opt/Espressif/esp-open-sdk/sdk/lib/libmain.a(user_interface.o)
wifi_station_set_default_hostname                 /opt/Espressif/esp-open-sdk/sdk/lib/libmain.a(user_interface.o)
                                                  /opt/Espressif/esp-open-sdk/sdk/lib/libmain.a(eagle_lwip_if.o)
                                                  /opt/Espressif/esp-open-sdk/sdk/lib/libmain.a(app_main.o)
wifi_station_set_hostname                         /opt/Espressif/esp-open-sdk/sdk/lib/libmain.a(user_interface.o)
wifi_station_set_reconnect_policy                 /opt/Espressif/esp-open-sdk/sdk/lib/libmain.a(user_interface.o)
                                                  build/app_app.a(network.o)
wifi_station_start                                /opt/Espressif/esp-open-sdk/sdk/lib/libnet80211.a(ieee80211_sta.o)
                                                  /opt/Espressif/esp-open-sdk/sdk/lib/libmain.a(user_interface.o)
                                                  /opt/Espressif/esp-open-sdk/sdk/lib/libmain.a(app_main.o)
wifi_station_stop                                 /opt/Espressif/esp-open-sdk/sdk/lib/libnet80211.a(ieee80211_sta.o)
                                                  /opt/Espressif/esp-open-sdk/sdk/lib/libmain.a(user_interface.o)
wifi_status_led_install                           /opt/Espressif/esp-open-sdk/sdk/lib/libmain.a(user_interface.o)
wifi_status_led_uninstall                         /opt/Espressif/esp-open-sdk/sdk/lib/libmain.a(user_interface.o)
windemo                                           build/app_app.a(user_main.o)
winstats                                          build/app_app.a(user_main.o)
wintest                                           build/app_app.a(user_main.o)
wintestdemo                                       build/app_app.a(user_main.o)
wire2fp                                           build/app_app.a(wire.o)
wire_draw                                         build/app_app.a(wire.o)
                                                  build/app_app.a(user_main.o)
wpa_add_kde                                       /opt/Espressif/esp-open-sdk/sdk/lib/libwpa.a(wpa_auth_ie.o)
                                                  /opt/Espressif/esp-open-sdk/sdk/lib/libwpa.a(wpa_auth.o)
wpa_attach                                        /opt/Espressif/esp-open-sdk/sdk/lib/libwpa.a(wpa_main.o)
                                                  /opt/Espressif/esp-open-sdk/sdk/lib/libnet80211.a(ieee80211_sta.o)
wpa_auth_for_each_sta                             /opt/Espressif/esp-open-sdk/sdk/lib/libwpa.a(wpa_auth.o)
wpa_auth_gen_wpa_ie                               /opt/Espressif/esp-open-sdk/sdk/lib/libwpa.a(wpa_auth_ie.o)
                                                  /opt/Espressif/esp-open-sdk/sdk/lib/libwpa.a(wpa_auth.o)
wpa_auth_sm_event                                 /opt/Espressif/esp-open-sdk/sdk/lib/libwpa.a(wpa_auth.o)
wpa_auth_sta_associated                           /opt/Espressif/esp-open-sdk/sdk/lib/libwpa.a(wpa_auth.o)
                                                  /opt/Espressif/esp-open-sdk/sdk/lib/libnet80211.a(wl_cnx.o)
wpa_auth_sta_deinit                               /opt/Espressif/esp-open-sdk/sdk/lib/libwpa.a(wpa_auth.o)
                                                  /opt/Espressif/esp-open-sdk/sdk/lib/libnet80211.a(wl_cnx.o)
wpa_auth_sta_init                                 /opt/Espressif/esp-open-sdk/sdk/lib/libwpa.a(wpa_auth.o)
                                                  /opt/Espressif/esp-open-sdk/sdk/lib/libnet80211.a(wl_cnx.o)
wpa_auth_sta_no_wpa                               /opt/Espressif/esp-open-sdk/sdk/lib/libwpa.a(wpa_auth.o)
wpa_auth_uses_mfp                                 /opt/Espressif/esp-open-sdk/sdk/lib/libwpa.a(wpa_auth_ie.o)
wpa_cipher_key_len                                /opt/Espressif/esp-open-sdk/sdk/lib/libwpa.a(wpa_common.o)
                                                  /opt/Espressif/esp-open-sdk/sdk/lib/libwpa.a(wpa_auth.o)
wpa_cipher_put_suites                             /opt/Espressif/esp-open-sdk/sdk/lib/libwpa.a(wpa_common.o)
                                                  /opt/Espressif/esp-open-sdk/sdk/lib/libwpa.a(wpa_auth_ie.o)
wpa_cipher_to_alg                                 /opt/Espressif/esp-open-sdk/sdk/lib/libwpa.a(wpa_common.o)
                                                  /opt/Espressif/esp-open-sdk/sdk/lib/libwpa.a(wpa_auth.o)
wpa_cipher_to_suite                               /opt/Espressif/esp-open-sdk/sdk/lib/libwpa.a(wpa_common.o)
                                                  /opt/Espressif/esp-open-sdk/sdk/lib/libwpa.a(wpa_auth_ie.o)
wpa_compare_rsn_ie                                /opt/Espressif/esp-open-sdk/sdk/lib/libwpa.a(wpa_common.o)
                                                  /opt/Espressif/esp-open-sdk/sdk/lib/libwpa.a(wpa.o)
                                                  /opt/Espressif/esp-open-sdk/sdk/lib/libwpa.a(wpa_auth.o)
wpa_config_assoc_ie                               /opt/Espressif/esp-open-sdk/sdk/lib/libwpa.a(wpa_main.o)
wpa_config_bss                                    /opt/Espressif/esp-open-sdk/sdk/lib/libwpa.a(wpa_main.o)
                                                  /opt/Espressif/esp-open-sdk/sdk/lib/libnet80211.a(wl_cnx.o)
wpa_config_parse_string                           /opt/Espressif/esp-open-sdk/sdk/lib/libwpa.a(common.o)
                                                  /opt/Espressif/esp-open-sdk/sdk/lib/libnet80211.a(ieee80211_scan.o)
wpa_config_profile                                /opt/Espressif/esp-open-sdk/sdk/lib/libwpa.a(wpa_main.o)
                                                  /opt/Espressif/esp-open-sdk/sdk/lib/libnet80211.a(wl_cnx.o)
wpa_eapol_key_mic                                 /opt/Espressif/esp-open-sdk/sdk/lib/libwpa.a(wpa_common.o)
                                                  /opt/Espressif/esp-open-sdk/sdk/lib/libwpa.a(wpa.o)
                                                  /opt/Espressif/esp-open-sdk/sdk/lib/libwpa.a(wpa_auth.o)
wpa_gen_wpa_ie                                    /opt/Espressif/esp-open-sdk/sdk/lib/libwpa.a(wpa_ie.o)
                                                  /opt/Espressif/esp-open-sdk/sdk/lib/libwpa.a(wpa.o)
wpa_get_ntp_timestamp                             /opt/Espressif/esp-open-sdk/sdk/lib/libwpa.a(common.o)
                                                  /opt/Espressif/esp-open-sdk/sdk/lib/libwpa.a(wpa_auth.o)
wpa_init                                          /opt/Espressif/esp-open-sdk/sdk/lib/libwpa.a(wpa_auth.o)
                                                  /opt/Espressif/esp-open-sdk/sdk/lib/libnet80211.a(ieee80211_hostap.o)
wpa_neg_complete                                  /opt/Espressif/esp-open-sdk/sdk/lib/libwpa.a(wpa_main.o)
wpa_parse_kde_ies                                 /opt/Espressif/esp-open-sdk/sdk/lib/libwpa.a(wpa_auth_ie.o)
                                                  /opt/Espressif/esp-open-sdk/sdk/lib/libwpa.a(wpa_auth.o)
wpa_parse_wpa_ie                                  /opt/Espressif/esp-open-sdk/sdk/lib/libwpa.a(wpa_ie.o)
                                                  /opt/Espressif/esp-open-sdk/sdk/lib/libnet80211.a(ieee80211_scan.o)
wpa_parse_wpa_ie_rsn                              /opt/Espressif/esp-open-sdk/sdk/lib/libwpa.a(wpa_common.o)
                                                  /opt/Espressif/esp-open-sdk/sdk/lib/libwpa.a(wpa_ie.o)
                                                  /opt/Espressif/esp-open-sdk/sdk/lib/libwpa.a(wpa_auth_ie.o)
wpa_parse_wpa_ie_wpa                              /opt/Espressif/esp-open-sdk/sdk/lib/libwpa.a(wpa_common.o)
                                                  /opt/Espressif/esp-open-sdk/sdk/lib/libwpa.a(wpa_ie.o)
                                                  /opt/Espressif/esp-open-sdk/sdk/lib/libwpa.a(wpa_auth_ie.o)
wpa_pmk_to_ptk                                    /opt/Espressif/esp-open-sdk/sdk/lib/libwpa.a(wpa_common.o)
                                                  /opt/Espressif/esp-open-sdk/sdk/lib/libwpa.a(wpa.o)
                                                  /opt/Espressif/esp-open-sdk/sdk/lib/libwpa.a(wpa_auth.o)
wpa_receive                                       /opt/Espressif/esp-open-sdk/sdk/lib/libwpa.a(wpa_auth.o)
                                                  /opt/Espressif/esp-open-sdk/sdk/lib/libnet80211.a(ieee80211_hostap.o)
wpa_register                                      /opt/Espressif/esp-open-sdk/sdk/lib/libwpa.a(wpa.o)
                                                  /opt/Espressif/esp-open-sdk/sdk/lib/libwpa.a(wpa_main.o)
wpa_remove_ptk                                    /opt/Espressif/esp-open-sdk/sdk/lib/libwpa.a(wpa_auth.o)
wpa_set_bss                                       /opt/Espressif/esp-open-sdk/sdk/lib/libwpa.a(wpa.o)
                                                  /opt/Espressif/esp-open-sdk/sdk/lib/libwpa.a(wpa_main.o)
wpa_set_pmk                                       /opt/Espressif/esp-open-sdk/sdk/lib/libwpa.a(wpa.o)
wpa_set_profile                                   /opt/Espressif/esp-open-sdk/sdk/lib/libwpa.a(wpa.o)
                                                  /opt/Espressif/esp-open-sdk/sdk/lib/libwpa.a(wpa_main.o)
wpa_sm_alloc_eapol                                /opt/Espressif/esp-open-sdk/sdk/lib/libwpa.a(wpas_glue.o)
                                                  /opt/Espressif/esp-open-sdk/sdk/lib/libwpa.a(wpa.o)
wpa_sm_deauthenticate                             /opt/Espressif/esp-open-sdk/sdk/lib/libwpa.a(wpas_glue.o)
                                                  /opt/Espressif/esp-open-sdk/sdk/lib/libwpa.a(wpa.o)
wpa_sm_disassociate                               /opt/Espressif/esp-open-sdk/sdk/lib/libwpa.a(wpas_glue.o)
                                                  /opt/Espressif/esp-open-sdk/sdk/lib/libwpa.a(wpa.o)
wpa_sm_get_beacon_ie                              /opt/Espressif/esp-open-sdk/sdk/lib/libwpa.a(wpas_glue.o)
                                                  /opt/Espressif/esp-open-sdk/sdk/lib/libwpa.a(wpa.o)
wpa_sm_mlme_setprotection                         /opt/Espressif/esp-open-sdk/sdk/lib/libwpa.a(wpas_glue.o)
                                                  /opt/Espressif/esp-open-sdk/sdk/lib/libwpa.a(wpa.o)
wpa_sm_rx_eapol                                   /opt/Espressif/esp-open-sdk/sdk/lib/libwpa.a(wpa.o)
                                                  /opt/Espressif/esp-open-sdk/sdk/lib/libnet80211.a(ieee80211_sta.o)
wpa_sm_set_state                                  /opt/Espressif/esp-open-sdk/sdk/lib/libwpa.a(wpa.o)
wpa_snprintf_hex                                  /opt/Espressif/esp-open-sdk/sdk/lib/libwpa.a(wpa_debug.o)
wpa_snprintf_hex_uppercase                        /opt/Espressif/esp-open-sdk/sdk/lib/libwpa.a(wpa_debug.o)
wpa_supplicant_parse_ies                          /opt/Espressif/esp-open-sdk/sdk/lib/libwpa.a(wpa_ie.o)
                                                  /opt/Espressif/esp-open-sdk/sdk/lib/libwpa.a(wpa.o)
wpa_validate_wpa_ie                               /opt/Espressif/esp-open-sdk/sdk/lib/libwpa.a(wpa_auth_ie.o)
                                                  /opt/Espressif/esp-open-sdk/sdk/lib/libnet80211.a(wl_cnx.o)
wpa_write_rsn_ie                                  /opt/Espressif/esp-open-sdk/sdk/lib/libwpa.a(wpa_auth_ie.o)
xPortGetFreeHeapSize                              /opt/Espressif/esp-open-sdk/sdk/lib/libmain.a(mem_manager.o)
                                                  /opt/Espressif/esp-open-sdk/sdk/lib/libmain.a(user_interface.o)
xPortWantedSizeAlign                              /opt/Espressif/esp-open-sdk/sdk/lib/libmain.a(mem_manager.o)
                                                  /opt/Espressif/esp-open-sdk/sdk/lib/libmain.a(user_interface.o)
xpos                                              build/app_app.a(user_main.o)
xthal_set_intclear                                /opt/Espressif/esp-open-sdk/xtensa-lx106-elf/xtensa-lx106-elf/sysroot/usr/lib/libhal.a(int_asm--set_intclear.o)
                                                  /opt/Espressif/esp-open-sdk/sdk/lib/libmain.a(app_main.o)
ypos                                              build/app_app.a(user_main.o)
